;
; File generated by cc65 v 2.18 - N/A
;
	.fopt		compiler,"cc65 v 2.18 - N/A"
	.setcpu		"6502"
	.smart		on
	.autoimport	on
	.case		on
	.debuginfo	off
	.importzp	sp, sreg, regsave, regbank
	.importzp	tmp1, tmp2, tmp3, tmp4, ptr1, ptr2, ptr3, ptr4
	.macpack	longbranch
	.forceimport	__STARTUP__
	.import		_pal_bg
	.import		_pal_spr
	.import		_ppu_wait_nmi
	.import		_ppu_off
	.import		_ppu_on_all
	.import		_oam_clear
	.import		_oam_meta_spr
	.import		_music_play
	.import		_music_stop
	.import		_sfx_play
	.import		_bank_spr
	.import		_rand8
	.import		_vram_adr
	.import		_vram_put
	.import		_delay
	.import		_set_vram_buffer
	.import		_one_vram_buffer
	.import		_multi_vram_buffer_horz
	.import		_clear_vram_buffer
	.import		_set_scroll_y
	.import		_pad_poll_4score_1_3
	.import		_pad_poll_4score_2_4
	.export		_gamesprites_smallbeeleft0_data
	.export		_gamesprites_smallbeeleft1_data
	.export		_gamesprites_smallbeeleft2_data
	.export		_gamesprites_smallbeeright0_data
	.export		_gamesprites_smallbeeright1_data
	.export		_gamesprites_smallbeeright2_data
	.export		_gamesprites_bigbeeleft0_data
	.export		_gamesprites_bigbeeleft1_data
	.export		_gamesprites_bigbeeleft2_data
	.export		_gamesprites_bigbeeright0_data
	.export		_gamesprites_bigbeeright1_data
	.export		_gamesprites_bigbeeright2_data
	.export		_gamesprites_smallbee2left0_data
	.export		_gamesprites_smallbee2left1_data
	.export		_gamesprites_smallbee2left2_data
	.export		_gamesprites_smallbee2right0_data
	.export		_gamesprites_smallbee2right1_data
	.export		_gamesprites_smallbee2right2_data
	.export		_gamesprites_bigbee2left0_data
	.export		_gamesprites_bigbee2left1_data
	.export		_gamesprites_bigbee2left2_data
	.export		_gamesprites_bigbee2right0_data
	.export		_gamesprites_bigbee2right1_data
	.export		_gamesprites_bigbee2right2_data
	.export		_gamesprites_smallduckleft0_data
	.export		_gamesprites_smallduckleft1_data
	.export		_gamesprites_smallduckleft2_data
	.export		_gamesprites_smallduckright0_data
	.export		_gamesprites_smallduckright1_data
	.export		_gamesprites_smallduckright2_data
	.export		_gamesprites_smallduck2left0_data
	.export		_gamesprites_smallduck2left1_data
	.export		_gamesprites_smallduck2left2_data
	.export		_gamesprites_smallduck2right0_data
	.export		_gamesprites_smallduck2right1_data
	.export		_gamesprites_smallduck2right2_data
	.export		_gamesprites_big3_data
	.export		_gamesprites_big2_data
	.export		_gamesprites_big1_data
	.export		_gamesprites_box1_data
	.export		_gamesprites_box2_data
	.export		_gamesprites_box3_data
	.export		_gamesprites_box4_data
	.export		_gamesprites_quackright_data
	.export		_gamesprites_quackleft_data
	.export		_gamesprites_quackup_data
	.export		_gamesprites_quackdown_data
	.export		_gamesprites_powerup_data
	.export		_gamesprites_win_icon_honey
	.export		_gamesprites_win_icon_time
	.export		_gamesprites_win_blueduck
	.export		_gamesprites_win_redduck
	.export		_gamesprites_win_bluebee
	.export		_gamesprites_win_redbee
	.export		_gamesprites_win_unwon
	.export		_tick_frequency
	.export		_doublepad
	.export		_generic_pad
	.export		_turbo_p1
	.export		_turbo_p2
	.export		_turbo_p3
	.export		_turbo_p4
	.export		_prev_pad1
	.export		_prev_pad2
	.export		_prev_pad3
	.export		_prev_pad4
	.export		_pad1
	.export		_pad2
	.export		_pad3
	.export		_pad4
	.export		_pad1_new
	.export		_pad2_new
	.export		_pad3_new
	.export		_pad4_new
	.export		_game_mode
	.export		_winner
	.export		_game_frame_timer
	.export		_game_timer
	.export		_speed_option
	.export		_current_speed
	.export		_force_redraw
	.export		_use_turbo
	.export		_turbo_amount
	.export		_ducks_go_faster_over_time
	.export		_map_positions
	.export		_collision
	.export		_collision_L
	.export		_collision_R
	.export		_collision_U
	.export		_collision_D
	.export		_coordinates
	.export		_temp1
	.export		_temp2
	.export		_temp3
	.export		_temp4
	.export		_temp5
	.export		_temp6
	.export		_tempint
	.export		_eject_L
	.export		_eject_R
	.export		_eject_D
	.export		_eject_U
	.export		_address
	.export		_x
	.export		_y
	.export		_index
	.export		_map
	.export		_scroll_x
	.export		_scroll_y
	.export		_hero_velocity_x
	.export		_hero_velocity_y
	.export		_old_x
	.export		_old_y
	.export		_signed_temp
	.export		_signed_temp2
	.export		_temp
	.export		_temp_x
	.export		_temp_y
	.export		_temp_x2
	.export		_temp_y2
	.export		_largeindex
	.export		_song
	.export		_collision_box_size
	.export		_current_settings_choice
	.export		_settings_map
	.export		_settings_speed
	.export		_settings_song
	.export		_map_ptr
	.export		_bit_index
	.export		_bit_offset
	.export		_frame_counter
	.export		_ai_counter
	.export		_use_ai_player_1
	.export		_use_ai_player_2
	.export		_use_ai_player_3
	.export		_use_ai_player_4
	.export		_ai_timer_p1
	.export		_ai_timer_p2
	.export		_ai_timer_p3
	.export		_ai_timer_p4
	.export		_ai_dir_p1
	.export		_ai_dir_p2
	.export		_ai_dir_p3
	.export		_ai_dir_p4
	.export		_ai_timer_work
	.export		_ai_dir_work
	.export		_ai_collision_work
	.export		_ai_pad_work
	.export		_current_player
	.export		_team1_score
	.export		_team2_score
	.export		_temp_win_reason
	.export		_temp_win_team
	.export		_team1_wins
	.export		_team2_wins
	.export		_team1_win1
	.export		_team1_win2
	.export		_team1_win3
	.export		_team2_win1
	.export		_team2_win2
	.export		_team2_win3
	.export		_round_1_winner
	.export		_round_2_winner
	.export		_round_3_winner
	.export		_round_4_winner
	.export		_round_5_winner
	.export		_round_1
	.export		_round_2
	.export		_round_3
	.export		_round_4
	.export		_round_5
	.export		_temp_round
	.export		_temp_winner
	.export		_current_round
	.export		_win_reason
	.export		_powerup1
	.export		_powerup2
	.export		_powerup3
	.export		_powerup4
	.export		_bee1_bigbee_timer
	.export		_bee3_bigbee_timer
	.export		_sprite_rotation
	.export		_anim_frame_1
	.export		_anim_frame_2
	.export		_anim_frame_3
	.export		_anim_frame_4
	.export		_consumed_dots
	.export		_start_hold_timer
	.export		_start_held
	.export		_combs
	.export		_vines
	.export		_outdoors
	.export		_settings
	.export		_title
	.export		_Generic
	.export		_quack2
	.export		_quack4
	.export		_quack2_cooldown
	.export		_quack4_cooldown
	.export		_stun_p1
	.export		_stun_p2
	.export		_stun_p3
	.export		_stun_p4
	.export		_GenericBoxGuy
	.export		_BoxGuy1
	.export		_BoxGuy2
	.export		_BoxGuy3
	.export		_BoxGuy4
	.export		_COMBS_FLOWER_X
	.export		_COMBS_FLOWER_Y
	.export		_VINES_FLOWER_X
	.export		_VINES_FLOWER_Y
	.export		_OUTDOORS_FLOWER_X
	.export		_OUTDOORS_FLOWER_Y
	.export		_palette_combsnplants_bg
	.export		_palette_outdoors_bg
	.export		_palette_vineswoflowers_bg
	.export		_palette_sp
	.export		_palette_title_bg
	.export		_palette_options_bg
	.export		_metatiles1
	.export		_load_room
	.export		_draw_sprites
	.export		_draw_player_1
	.export		_draw_player_2
	.export		_draw_player_3
	.export		_draw_player_4
	.export		_movement
	.export		_check_tile_and_collect
	.export		_draw_hud
	.export		_read_controllers
	.export		_player1_ai
	.export		_player2_ai
	.export		_player3_ai
	.export		_player4_ai
	.export		_game_loop
	.export		_title_loop
	.export		_options_loop
	.export		_gameover_loop
	.export		_init_game_loop
	.export		_init_options_loop
	.export		_init_gameover_loop
	.export		_init_title_loop
	.export		_init_system
	.export		_clear_background
	.export		_update_hud
	.export		_init_roundover
	.export		_start_round
	.export		_roundover_loop
	.export		_game_counters
	.export		_quack_movement
	.export		_load_bg_palette
	.export		_update_options_screen
	.export		_draw_win_round_sprite
	.export		_display_round_summary
	.export		_bg_collision_sub
	.export		_bg_coll_L
	.export		_bg_coll_R
	.export		_bg_coll_U
	.export		_bg_coll_D
	.export		_sprite_collision
	.export		_check_powerup_collision
	.export		_main
	.export		_quack_tile_solid
	.export		_check_powerup
	.export		_pellet_tiles
	.export		_blank_tiles
	.export		_is_dot_consumed
	.export		_mark_dot_consumed

.segment	"DATA"

_BoxGuy1:
	.word	$4000
	.word	$2800
	.byte	$04
	.byte	$00
	.byte	$00
_BoxGuy2:
	.word	$8000
	.word	$3000
	.byte	$04
	.byte	$00
	.byte	$00
_BoxGuy3:
	.word	$A000
	.word	$3000
	.byte	$04
	.byte	$00
	.byte	$00
_BoxGuy4:
	.word	$C000
	.word	$4000
	.byte	$04
	.byte	$00
	.byte	$00
_last_team1_score:
	.byte	$FF
_last_team2_score:
	.byte	$FF
_last_game_timer:
	.byte	$FF

.segment	"RODATA"

_gamesprites_smallbeeleft0_data:
	.byte	$00
	.byte	$00
	.byte	$27
	.byte	$00
	.byte	$08
	.byte	$00
	.byte	$28
	.byte	$00
	.byte	$80
_gamesprites_smallbeeleft1_data:
	.byte	$00
	.byte	$00
	.byte	$29
	.byte	$00
	.byte	$08
	.byte	$00
	.byte	$2A
	.byte	$00
	.byte	$80
_gamesprites_smallbeeleft2_data:
	.byte	$00
	.byte	$00
	.byte	$2B
	.byte	$00
	.byte	$08
	.byte	$00
	.byte	$2C
	.byte	$00
	.byte	$80
_gamesprites_smallbeeright0_data:
	.byte	$00
	.byte	$00
	.byte	$27
	.byte	$40
	.byte	$F8
	.byte	$00
	.byte	$28
	.byte	$40
	.byte	$80
_gamesprites_smallbeeright1_data:
	.byte	$00
	.byte	$00
	.byte	$29
	.byte	$40
	.byte	$F8
	.byte	$00
	.byte	$2A
	.byte	$40
	.byte	$80
_gamesprites_smallbeeright2_data:
	.byte	$00
	.byte	$00
	.byte	$2B
	.byte	$40
	.byte	$F8
	.byte	$00
	.byte	$2C
	.byte	$40
	.byte	$80
_gamesprites_bigbeeleft0_data:
	.byte	$FC
	.byte	$03
	.byte	$47
	.byte	$00
	.byte	$FC
	.byte	$FB
	.byte	$37
	.byte	$00
	.byte	$04
	.byte	$03
	.byte	$48
	.byte	$00
	.byte	$04
	.byte	$FB
	.byte	$38
	.byte	$00
	.byte	$80
_gamesprites_bigbeeleft1_data:
	.byte	$FC
	.byte	$03
	.byte	$49
	.byte	$00
	.byte	$FC
	.byte	$FB
	.byte	$39
	.byte	$00
	.byte	$04
	.byte	$FB
	.byte	$3A
	.byte	$00
	.byte	$04
	.byte	$03
	.byte	$4A
	.byte	$00
	.byte	$80
_gamesprites_bigbeeleft2_data:
	.byte	$FC
	.byte	$03
	.byte	$4B
	.byte	$00
	.byte	$FC
	.byte	$FB
	.byte	$3B
	.byte	$00
	.byte	$04
	.byte	$FB
	.byte	$3C
	.byte	$00
	.byte	$04
	.byte	$03
	.byte	$4C
	.byte	$00
	.byte	$80
_gamesprites_bigbeeright0_data:
	.byte	$04
	.byte	$03
	.byte	$47
	.byte	$40
	.byte	$04
	.byte	$FB
	.byte	$37
	.byte	$40
	.byte	$FC
	.byte	$03
	.byte	$48
	.byte	$40
	.byte	$FC
	.byte	$FB
	.byte	$38
	.byte	$40
	.byte	$80
_gamesprites_bigbeeright1_data:
	.byte	$04
	.byte	$03
	.byte	$49
	.byte	$40
	.byte	$04
	.byte	$FB
	.byte	$39
	.byte	$40
	.byte	$FC
	.byte	$FB
	.byte	$3A
	.byte	$40
	.byte	$FC
	.byte	$03
	.byte	$4A
	.byte	$40
	.byte	$80
_gamesprites_bigbeeright2_data:
	.byte	$04
	.byte	$03
	.byte	$4B
	.byte	$40
	.byte	$04
	.byte	$FB
	.byte	$3B
	.byte	$40
	.byte	$FC
	.byte	$FB
	.byte	$3C
	.byte	$40
	.byte	$FC
	.byte	$03
	.byte	$4C
	.byte	$40
	.byte	$80
_gamesprites_smallbee2left0_data:
	.byte	$00
	.byte	$00
	.byte	$27
	.byte	$02
	.byte	$08
	.byte	$00
	.byte	$28
	.byte	$02
	.byte	$80
_gamesprites_smallbee2left1_data:
	.byte	$00
	.byte	$00
	.byte	$29
	.byte	$02
	.byte	$08
	.byte	$00
	.byte	$2A
	.byte	$02
	.byte	$80
_gamesprites_smallbee2left2_data:
	.byte	$00
	.byte	$00
	.byte	$2B
	.byte	$02
	.byte	$08
	.byte	$00
	.byte	$2C
	.byte	$02
	.byte	$80
_gamesprites_smallbee2right0_data:
	.byte	$00
	.byte	$00
	.byte	$27
	.byte	$42
	.byte	$F8
	.byte	$00
	.byte	$28
	.byte	$42
	.byte	$80
_gamesprites_smallbee2right1_data:
	.byte	$00
	.byte	$00
	.byte	$29
	.byte	$42
	.byte	$F8
	.byte	$00
	.byte	$2A
	.byte	$42
	.byte	$80
_gamesprites_smallbee2right2_data:
	.byte	$00
	.byte	$00
	.byte	$2B
	.byte	$42
	.byte	$F8
	.byte	$00
	.byte	$2C
	.byte	$42
	.byte	$80
_gamesprites_bigbee2left0_data:
	.byte	$FC
	.byte	$03
	.byte	$47
	.byte	$02
	.byte	$FC
	.byte	$FB
	.byte	$37
	.byte	$02
	.byte	$04
	.byte	$03
	.byte	$48
	.byte	$02
	.byte	$04
	.byte	$FB
	.byte	$38
	.byte	$02
	.byte	$80
_gamesprites_bigbee2left1_data:
	.byte	$FC
	.byte	$03
	.byte	$49
	.byte	$02
	.byte	$FC
	.byte	$FB
	.byte	$39
	.byte	$02
	.byte	$04
	.byte	$FB
	.byte	$3A
	.byte	$02
	.byte	$04
	.byte	$03
	.byte	$4A
	.byte	$02
	.byte	$80
_gamesprites_bigbee2left2_data:
	.byte	$FC
	.byte	$03
	.byte	$4B
	.byte	$02
	.byte	$FC
	.byte	$FB
	.byte	$3B
	.byte	$02
	.byte	$04
	.byte	$FB
	.byte	$3C
	.byte	$02
	.byte	$04
	.byte	$03
	.byte	$4C
	.byte	$02
	.byte	$80
_gamesprites_bigbee2right0_data:
	.byte	$04
	.byte	$03
	.byte	$47
	.byte	$42
	.byte	$04
	.byte	$FB
	.byte	$37
	.byte	$42
	.byte	$FC
	.byte	$03
	.byte	$48
	.byte	$42
	.byte	$FC
	.byte	$FB
	.byte	$38
	.byte	$42
	.byte	$80
_gamesprites_bigbee2right1_data:
	.byte	$04
	.byte	$03
	.byte	$49
	.byte	$42
	.byte	$04
	.byte	$FB
	.byte	$39
	.byte	$42
	.byte	$FC
	.byte	$FB
	.byte	$3A
	.byte	$42
	.byte	$FC
	.byte	$03
	.byte	$4A
	.byte	$42
	.byte	$80
_gamesprites_bigbee2right2_data:
	.byte	$04
	.byte	$03
	.byte	$4B
	.byte	$42
	.byte	$04
	.byte	$FB
	.byte	$3B
	.byte	$42
	.byte	$FC
	.byte	$FB
	.byte	$6C
	.byte	$42
	.byte	$FC
	.byte	$03
	.byte	$4C
	.byte	$42
	.byte	$80
_gamesprites_smallduckleft0_data:
	.byte	$00
	.byte	$FF
	.byte	$0C
	.byte	$00
	.byte	$00
	.byte	$07
	.byte	$1C
	.byte	$00
	.byte	$80
_gamesprites_smallduckleft1_data:
	.byte	$00
	.byte	$FF
	.byte	$0D
	.byte	$00
	.byte	$00
	.byte	$07
	.byte	$1D
	.byte	$00
	.byte	$80
_gamesprites_smallduckleft2_data:
	.byte	$00
	.byte	$FF
	.byte	$0B
	.byte	$00
	.byte	$00
	.byte	$07
	.byte	$1C
	.byte	$40
	.byte	$80
_gamesprites_smallduckright0_data:
	.byte	$00
	.byte	$FF
	.byte	$0C
	.byte	$40
	.byte	$00
	.byte	$07
	.byte	$1C
	.byte	$40
	.byte	$80
_gamesprites_smallduckright1_data:
	.byte	$00
	.byte	$FF
	.byte	$0D
	.byte	$40
	.byte	$00
	.byte	$07
	.byte	$1D
	.byte	$40
	.byte	$80
_gamesprites_smallduckright2_data:
	.byte	$00
	.byte	$FF
	.byte	$0B
	.byte	$40
	.byte	$00
	.byte	$07
	.byte	$1C
	.byte	$00
	.byte	$80
_gamesprites_smallduck2left0_data:
	.byte	$00
	.byte	$FF
	.byte	$0C
	.byte	$02
	.byte	$00
	.byte	$07
	.byte	$1C
	.byte	$00
	.byte	$80
_gamesprites_smallduck2left1_data:
	.byte	$00
	.byte	$FF
	.byte	$0D
	.byte	$02
	.byte	$00
	.byte	$07
	.byte	$1D
	.byte	$02
	.byte	$80
_gamesprites_smallduck2left2_data:
	.byte	$00
	.byte	$FF
	.byte	$0B
	.byte	$02
	.byte	$00
	.byte	$07
	.byte	$1C
	.byte	$42
	.byte	$80
_gamesprites_smallduck2right0_data:
	.byte	$00
	.byte	$FF
	.byte	$0C
	.byte	$42
	.byte	$00
	.byte	$07
	.byte	$1C
	.byte	$42
	.byte	$80
_gamesprites_smallduck2right1_data:
	.byte	$00
	.byte	$FF
	.byte	$0D
	.byte	$42
	.byte	$00
	.byte	$07
	.byte	$1D
	.byte	$42
	.byte	$80
_gamesprites_smallduck2right2_data:
	.byte	$00
	.byte	$FF
	.byte	$0D
	.byte	$42
	.byte	$00
	.byte	$07
	.byte	$1C
	.byte	$02
	.byte	$80
_gamesprites_big3_data:
	.byte	$00
	.byte	$00
	.byte	$05
	.byte	$01
	.byte	$08
	.byte	$00
	.byte	$06
	.byte	$01
	.byte	$10
	.byte	$00
	.byte	$07
	.byte	$01
	.byte	$00
	.byte	$10
	.byte	$05
	.byte	$01
	.byte	$08
	.byte	$10
	.byte	$06
	.byte	$01
	.byte	$10
	.byte	$10
	.byte	$15
	.byte	$01
	.byte	$10
	.byte	$08
	.byte	$08
	.byte	$01
	.byte	$00
	.byte	$20
	.byte	$05
	.byte	$01
	.byte	$08
	.byte	$20
	.byte	$06
	.byte	$01
	.byte	$10
	.byte	$20
	.byte	$07
	.byte	$81
	.byte	$10
	.byte	$18
	.byte	$08
	.byte	$01
	.byte	$F8
	.byte	$00
	.byte	$03
	.byte	$01
	.byte	$18
	.byte	$00
	.byte	$03
	.byte	$01
	.byte	$F8
	.byte	$08
	.byte	$03
	.byte	$01
	.byte	$00
	.byte	$08
	.byte	$03
	.byte	$01
	.byte	$08
	.byte	$08
	.byte	$03
	.byte	$01
	.byte	$18
	.byte	$08
	.byte	$03
	.byte	$01
	.byte	$F8
	.byte	$10
	.byte	$03
	.byte	$01
	.byte	$18
	.byte	$10
	.byte	$03
	.byte	$01
	.byte	$18
	.byte	$18
	.byte	$03
	.byte	$01
	.byte	$18
	.byte	$20
	.byte	$03
	.byte	$01
	.byte	$08
	.byte	$18
	.byte	$03
	.byte	$01
	.byte	$00
	.byte	$18
	.byte	$03
	.byte	$01
	.byte	$F8
	.byte	$18
	.byte	$03
	.byte	$01
	.byte	$F8
	.byte	$20
	.byte	$03
	.byte	$01
	.byte	$20
	.byte	$00
	.byte	$03
	.byte	$01
	.byte	$F0
	.byte	$00
	.byte	$03
	.byte	$01
	.byte	$20
	.byte	$08
	.byte	$03
	.byte	$01
	.byte	$20
	.byte	$10
	.byte	$03
	.byte	$01
	.byte	$20
	.byte	$18
	.byte	$03
	.byte	$01
	.byte	$20
	.byte	$20
	.byte	$03
	.byte	$01
	.byte	$F0
	.byte	$08
	.byte	$03
	.byte	$01
	.byte	$F0
	.byte	$10
	.byte	$03
	.byte	$01
	.byte	$F0
	.byte	$18
	.byte	$03
	.byte	$01
	.byte	$F0
	.byte	$20
	.byte	$03
	.byte	$01
	.byte	$F0
	.byte	$F8
	.byte	$03
	.byte	$01
	.byte	$F8
	.byte	$F8
	.byte	$03
	.byte	$01
	.byte	$00
	.byte	$F8
	.byte	$03
	.byte	$01
	.byte	$08
	.byte	$F8
	.byte	$03
	.byte	$01
	.byte	$10
	.byte	$F8
	.byte	$03
	.byte	$01
	.byte	$18
	.byte	$F8
	.byte	$03
	.byte	$01
	.byte	$20
	.byte	$F8
	.byte	$03
	.byte	$01
	.byte	$F0
	.byte	$28
	.byte	$03
	.byte	$01
	.byte	$F8
	.byte	$28
	.byte	$03
	.byte	$01
	.byte	$00
	.byte	$28
	.byte	$03
	.byte	$01
	.byte	$08
	.byte	$28
	.byte	$03
	.byte	$01
	.byte	$10
	.byte	$28
	.byte	$03
	.byte	$01
	.byte	$18
	.byte	$28
	.byte	$03
	.byte	$01
	.byte	$20
	.byte	$28
	.byte	$03
	.byte	$01
	.byte	$80
_gamesprites_big2_data:
	.byte	$00
	.byte	$00
	.byte	$05
	.byte	$01
	.byte	$08
	.byte	$00
	.byte	$06
	.byte	$01
	.byte	$10
	.byte	$00
	.byte	$07
	.byte	$01
	.byte	$10
	.byte	$08
	.byte	$08
	.byte	$01
	.byte	$10
	.byte	$10
	.byte	$07
	.byte	$81
	.byte	$08
	.byte	$10
	.byte	$06
	.byte	$01
	.byte	$00
	.byte	$10
	.byte	$07
	.byte	$41
	.byte	$00
	.byte	$18
	.byte	$08
	.byte	$01
	.byte	$00
	.byte	$20
	.byte	$07
	.byte	$C1
	.byte	$08
	.byte	$20
	.byte	$06
	.byte	$01
	.byte	$10
	.byte	$20
	.byte	$05
	.byte	$41
	.byte	$F8
	.byte	$00
	.byte	$03
	.byte	$01
	.byte	$18
	.byte	$00
	.byte	$03
	.byte	$01
	.byte	$18
	.byte	$08
	.byte	$03
	.byte	$01
	.byte	$00
	.byte	$08
	.byte	$03
	.byte	$01
	.byte	$08
	.byte	$08
	.byte	$03
	.byte	$01
	.byte	$F8
	.byte	$08
	.byte	$03
	.byte	$01
	.byte	$F8
	.byte	$10
	.byte	$03
	.byte	$01
	.byte	$18
	.byte	$10
	.byte	$03
	.byte	$01
	.byte	$F8
	.byte	$18
	.byte	$03
	.byte	$01
	.byte	$08
	.byte	$18
	.byte	$03
	.byte	$01
	.byte	$10
	.byte	$18
	.byte	$03
	.byte	$01
	.byte	$18
	.byte	$18
	.byte	$03
	.byte	$01
	.byte	$F8
	.byte	$20
	.byte	$03
	.byte	$01
	.byte	$18
	.byte	$20
	.byte	$03
	.byte	$01
	.byte	$20
	.byte	$00
	.byte	$03
	.byte	$01
	.byte	$20
	.byte	$08
	.byte	$03
	.byte	$01
	.byte	$20
	.byte	$10
	.byte	$03
	.byte	$01
	.byte	$20
	.byte	$18
	.byte	$03
	.byte	$01
	.byte	$20
	.byte	$20
	.byte	$03
	.byte	$01
	.byte	$F0
	.byte	$00
	.byte	$03
	.byte	$01
	.byte	$F0
	.byte	$08
	.byte	$03
	.byte	$01
	.byte	$F0
	.byte	$10
	.byte	$03
	.byte	$01
	.byte	$F0
	.byte	$18
	.byte	$03
	.byte	$01
	.byte	$F0
	.byte	$20
	.byte	$03
	.byte	$01
	.byte	$F0
	.byte	$F8
	.byte	$03
	.byte	$01
	.byte	$F8
	.byte	$F8
	.byte	$03
	.byte	$01
	.byte	$00
	.byte	$F8
	.byte	$03
	.byte	$01
	.byte	$08
	.byte	$F8
	.byte	$03
	.byte	$01
	.byte	$10
	.byte	$F8
	.byte	$03
	.byte	$01
	.byte	$18
	.byte	$F8
	.byte	$03
	.byte	$01
	.byte	$20
	.byte	$F8
	.byte	$03
	.byte	$01
	.byte	$F0
	.byte	$28
	.byte	$03
	.byte	$01
	.byte	$F8
	.byte	$28
	.byte	$03
	.byte	$01
	.byte	$00
	.byte	$28
	.byte	$03
	.byte	$01
	.byte	$08
	.byte	$28
	.byte	$03
	.byte	$01
	.byte	$10
	.byte	$28
	.byte	$03
	.byte	$01
	.byte	$18
	.byte	$28
	.byte	$03
	.byte	$01
	.byte	$20
	.byte	$28
	.byte	$03
	.byte	$01
	.byte	$80
_gamesprites_big1_data:
	.byte	$08
	.byte	$08
	.byte	$15
	.byte	$01
	.byte	$08
	.byte	$10
	.byte	$08
	.byte	$01
	.byte	$08
	.byte	$18
	.byte	$08
	.byte	$01
	.byte	$00
	.byte	$20
	.byte	$05
	.byte	$01
	.byte	$10
	.byte	$20
	.byte	$05
	.byte	$41
	.byte	$00
	.byte	$08
	.byte	$05
	.byte	$01
	.byte	$08
	.byte	$20
	.byte	$17
	.byte	$01
	.byte	$08
	.byte	$00
	.byte	$16
	.byte	$01
	.byte	$F8
	.byte	$00
	.byte	$03
	.byte	$01
	.byte	$00
	.byte	$00
	.byte	$03
	.byte	$01
	.byte	$10
	.byte	$00
	.byte	$03
	.byte	$01
	.byte	$18
	.byte	$00
	.byte	$03
	.byte	$01
	.byte	$18
	.byte	$08
	.byte	$03
	.byte	$01
	.byte	$18
	.byte	$10
	.byte	$03
	.byte	$01
	.byte	$18
	.byte	$18
	.byte	$03
	.byte	$01
	.byte	$18
	.byte	$20
	.byte	$03
	.byte	$01
	.byte	$10
	.byte	$08
	.byte	$03
	.byte	$01
	.byte	$10
	.byte	$10
	.byte	$03
	.byte	$01
	.byte	$10
	.byte	$18
	.byte	$03
	.byte	$01
	.byte	$F8
	.byte	$08
	.byte	$03
	.byte	$01
	.byte	$F8
	.byte	$10
	.byte	$03
	.byte	$01
	.byte	$F8
	.byte	$18
	.byte	$03
	.byte	$01
	.byte	$F8
	.byte	$20
	.byte	$03
	.byte	$01
	.byte	$00
	.byte	$10
	.byte	$03
	.byte	$01
	.byte	$00
	.byte	$18
	.byte	$03
	.byte	$01
	.byte	$20
	.byte	$00
	.byte	$03
	.byte	$01
	.byte	$F0
	.byte	$00
	.byte	$03
	.byte	$01
	.byte	$20
	.byte	$08
	.byte	$03
	.byte	$01
	.byte	$20
	.byte	$10
	.byte	$03
	.byte	$01
	.byte	$20
	.byte	$18
	.byte	$03
	.byte	$01
	.byte	$20
	.byte	$20
	.byte	$03
	.byte	$01
	.byte	$F0
	.byte	$08
	.byte	$03
	.byte	$01
	.byte	$F0
	.byte	$10
	.byte	$03
	.byte	$01
	.byte	$F0
	.byte	$18
	.byte	$03
	.byte	$01
	.byte	$F0
	.byte	$20
	.byte	$03
	.byte	$01
	.byte	$F0
	.byte	$F8
	.byte	$03
	.byte	$01
	.byte	$F8
	.byte	$F8
	.byte	$03
	.byte	$01
	.byte	$00
	.byte	$F8
	.byte	$03
	.byte	$01
	.byte	$08
	.byte	$F8
	.byte	$03
	.byte	$01
	.byte	$10
	.byte	$F8
	.byte	$03
	.byte	$01
	.byte	$18
	.byte	$F8
	.byte	$03
	.byte	$01
	.byte	$20
	.byte	$F8
	.byte	$03
	.byte	$01
	.byte	$F0
	.byte	$28
	.byte	$03
	.byte	$01
	.byte	$F8
	.byte	$28
	.byte	$03
	.byte	$01
	.byte	$00
	.byte	$28
	.byte	$03
	.byte	$01
	.byte	$08
	.byte	$28
	.byte	$03
	.byte	$01
	.byte	$10
	.byte	$28
	.byte	$03
	.byte	$01
	.byte	$18
	.byte	$28
	.byte	$03
	.byte	$01
	.byte	$20
	.byte	$28
	.byte	$03
	.byte	$01
	.byte	$80
_gamesprites_box1_data:
	.byte	$00
	.byte	$00
	.byte	$12
	.byte	$00
	.byte	$80
_gamesprites_box2_data:
	.byte	$00
	.byte	$00
	.byte	$12
	.byte	$01
	.byte	$80
_gamesprites_box3_data:
	.byte	$00
	.byte	$00
	.byte	$12
	.byte	$02
	.byte	$80
_gamesprites_box4_data:
	.byte	$00
	.byte	$00
	.byte	$12
	.byte	$03
	.byte	$80
_gamesprites_quackright_data:
	.byte	$00
	.byte	$00
	.byte	$0E
	.byte	$00
	.byte	$80
_gamesprites_quackleft_data:
	.byte	$00
	.byte	$00
	.byte	$0E
	.byte	$40
	.byte	$80
_gamesprites_quackup_data:
	.byte	$00
	.byte	$00
	.byte	$0F
	.byte	$00
	.byte	$80
_gamesprites_quackdown_data:
	.byte	$00
	.byte	$00
	.byte	$0F
	.byte	$80
	.byte	$80
_gamesprites_powerup_data:
	.byte	$00
	.byte	$00
	.byte	$10
	.byte	$03
	.byte	$08
	.byte	$00
	.byte	$11
	.byte	$03
	.byte	$00
	.byte	$08
	.byte	$20
	.byte	$03
	.byte	$08
	.byte	$08
	.byte	$21
	.byte	$03
	.byte	$80
_gamesprites_win_icon_honey:
	.byte	$00
	.byte	$00
	.byte	$60
	.byte	$00
	.byte	$80
_gamesprites_win_icon_time:
	.byte	$00
	.byte	$00
	.byte	$61
	.byte	$00
	.byte	$80
_gamesprites_win_blueduck:
	.byte	$00
	.byte	$00
	.byte	$0B
	.byte	$02
	.byte	$80
_gamesprites_win_redduck:
	.byte	$00
	.byte	$00
	.byte	$0B
	.byte	$00
	.byte	$80
_gamesprites_win_bluebee:
	.byte	$00
	.byte	$00
	.byte	$27
	.byte	$02
	.byte	$80
_gamesprites_win_redbee:
	.byte	$00
	.byte	$00
	.byte	$27
	.byte	$00
	.byte	$80
_gamesprites_win_unwon:
	.byte	$00
	.byte	$00
	.byte	$26
	.byte	$00
	.byte	$80
_combs:
	.byte	$A7
	.byte	$B6
	.byte	$EE
	.byte	$EF
	.byte	$A7
	.byte	$5D
	.byte	$00
	.byte	$00
	.byte	$00
	.byte	$00
	.byte	$00
	.byte	$00
	.byte	$00
	.byte	$00
	.byte	$00
	.byte	$00
	.byte	$00
	.byte	$00
	.byte	$00
	.byte	$00
	.byte	$00
	.byte	$00
	.byte	$00
	.byte	$00
	.byte	$00
	.byte	$00
	.byte	$5C
	.byte	$EE
	.byte	$EF
	.byte	$B6
	.byte	$AB
	.byte	$B6
	.byte	$AB
	.byte	$A7
	.byte	$FE
	.byte	$FF
	.byte	$B6
	.byte	$5D
	.byte	$00
	.byte	$00
	.byte	$00
	.byte	$00
	.byte	$00
	.byte	$00
	.byte	$00
	.byte	$00
	.byte	$00
	.byte	$00
	.byte	$00
	.byte	$00
	.byte	$00
	.byte	$00
	.byte	$00
	.byte	$00
	.byte	$00
	.byte	$00
	.byte	$00
	.byte	$00
	.byte	$5C
	.byte	$FE
	.byte	$FF
	.byte	$A7
	.byte	$B6
	.byte	$A7
	.byte	$A7
	.byte	$B6
	.byte	$A7
	.byte	$B6
	.byte	$A8
	.byte	$5E
	.byte	$5F
	.byte	$5F
	.byte	$5F
	.byte	$5F
	.byte	$5F
	.byte	$5F
	.byte	$5F
	.byte	$5F
	.byte	$5F
	.byte	$5F
	.byte	$5F
	.byte	$5F
	.byte	$5F
	.byte	$5F
	.byte	$5F
	.byte	$5F
	.byte	$5F
	.byte	$5F
	.byte	$5F
	.byte	$5F
	.byte	$5B
	.byte	$AA
	.byte	$B6
	.byte	$A7
	.byte	$B6
	.byte	$B6
	.byte	$B6
	.byte	$A7
	.byte	$F8
	.byte	$F9
	.byte	$E8
	.byte	$E9
	.byte	$F8
	.byte	$F9
	.byte	$F8
	.byte	$F9
	.byte	$BE
	.byte	$BF
	.byte	$EE
	.byte	$EF
	.byte	$F8
	.byte	$F9
	.byte	$F8
	.byte	$F9
	.byte	$EE
	.byte	$EF
	.byte	$EE
	.byte	$EF
	.byte	$E8
	.byte	$E9
	.byte	$F8
	.byte	$F9
	.byte	$F8
	.byte	$F9
	.byte	$F8
	.byte	$F9
	.byte	$AA
	.byte	$B6
	.byte	$A7
	.byte	$EB
	.byte	$B6
	.byte	$B8
	.byte	$C8
	.byte	$CA
	.byte	$C6
	.byte	$C6
	.byte	$C6
	.byte	$C8
	.byte	$DE
	.byte	$DF
	.byte	$FE
	.byte	$FF
	.byte	$C6
	.byte	$A7
	.byte	$A7
	.byte	$C6
	.byte	$FE
	.byte	$FF
	.byte	$FE
	.byte	$FF
	.byte	$C6
	.byte	$C6
	.byte	$C6
	.byte	$C6
	.byte	$C6
	.byte	$C6
	.byte	$B8
	.byte	$B8
	.byte	$EB
	.byte	$B6
	.byte	$B6
	.byte	$FB
	.byte	$B6
	.byte	$B8
	.byte	$CA
	.byte	$C8
	.byte	$EE
	.byte	$EF
	.byte	$C6
	.byte	$CA
	.byte	$C6
	.byte	$C6
	.byte	$C6
	.byte	$C8
	.byte	$C8
	.byte	$C8
	.byte	$C6
	.byte	$C8
	.byte	$C6
	.byte	$C6
	.byte	$C6
	.byte	$C9
	.byte	$C6
	.byte	$C9
	.byte	$EE
	.byte	$EF
	.byte	$C6
	.byte	$C9
	.byte	$B8
	.byte	$B8
	.byte	$FB
	.byte	$A7
	.byte	$CD
	.byte	$CD
	.byte	$CD
	.byte	$BF
	.byte	$C6
	.byte	$C6
	.byte	$FE
	.byte	$FF
	.byte	$F8
	.byte	$F9
	.byte	$E8
	.byte	$E9
	.byte	$A7
	.byte	$C6
	.byte	$C6
	.byte	$C6
	.byte	$C6
	.byte	$C6
	.byte	$C6
	.byte	$A7
	.byte	$E8
	.byte	$E9
	.byte	$F8
	.byte	$F9
	.byte	$FE
	.byte	$FF
	.byte	$C6
	.byte	$C9
	.byte	$BE
	.byte	$BF
	.byte	$EB
	.byte	$B6
	.byte	$CC
	.byte	$CB
	.byte	$DD
	.byte	$DF
	.byte	$C6
	.byte	$CA
	.byte	$C6
	.byte	$C8
	.byte	$C6
	.byte	$C6
	.byte	$C6
	.byte	$C8
	.byte	$C6
	.byte	$C6
	.byte	$A7
	.byte	$C6
	.byte	$C8
	.byte	$A7
	.byte	$C6
	.byte	$C6
	.byte	$C6
	.byte	$C6
	.byte	$C6
	.byte	$C6
	.byte	$C6
	.byte	$C6
	.byte	$C6
	.byte	$C6
	.byte	$DE
	.byte	$DF
	.byte	$FB
	.byte	$B6
	.byte	$CC
	.byte	$CF
	.byte	$C6
	.byte	$8C
	.byte	$E8
	.byte	$E9
	.byte	$F8
	.byte	$F9
	.byte	$8D
	.byte	$C6
	.byte	$F8
	.byte	$F9
	.byte	$F8
	.byte	$F9
	.byte	$EB
	.byte	$CA
	.byte	$C6
	.byte	$EB
	.byte	$F8
	.byte	$F9
	.byte	$F8
	.byte	$F9
	.byte	$C6
	.byte	$A7
	.byte	$F8
	.byte	$F9
	.byte	$E8
	.byte	$E9
	.byte	$A7
	.byte	$C6
	.byte	$EA
	.byte	$B6
	.byte	$CB
	.byte	$DF
	.byte	$C6
	.byte	$A7
	.byte	$C6
	.byte	$C6
	.byte	$C6
	.byte	$A7
	.byte	$EB
	.byte	$C6
	.byte	$C6
	.byte	$C6
	.byte	$C6
	.byte	$C6
	.byte	$FB
	.byte	$C6
	.byte	$C6
	.byte	$FB
	.byte	$CA
	.byte	$C6
	.byte	$C6
	.byte	$C6
	.byte	$C6
	.byte	$EB
	.byte	$8F
	.byte	$C9
	.byte	$C6
	.byte	$C6
	.byte	$EB
	.byte	$C6
	.byte	$FA
	.byte	$B8
	.byte	$DF
	.byte	$EB
	.byte	$C6
	.byte	$A7
	.byte	$C6
	.byte	$9C
	.byte	$CA
	.byte	$C6
	.byte	$FB
	.byte	$C6
	.byte	$F8
	.byte	$F9
	.byte	$F8
	.byte	$F9
	.byte	$A7
	.byte	$CA
	.byte	$C8
	.byte	$A7
	.byte	$E8
	.byte	$E9
	.byte	$F8
	.byte	$F9
	.byte	$C6
	.byte	$FB
	.byte	$C6
	.byte	$C6
	.byte	$A7
	.byte	$C6
	.byte	$FB
	.byte	$C7
	.byte	$EB
	.byte	$B9
	.byte	$B6
	.byte	$FB
	.byte	$C6
	.byte	$A7
	.byte	$C6
	.byte	$BE
	.byte	$BF
	.byte	$CA
	.byte	$C6
	.byte	$C6
	.byte	$CA
	.byte	$C6
	.byte	$C6
	.byte	$C6
	.byte	$C7
	.byte	$C8
	.byte	$C9
	.byte	$C6
	.byte	$C6
	.byte	$C6
	.byte	$C6
	.byte	$C6
	.byte	$C9
	.byte	$C6
	.byte	$C6
	.byte	$EE
	.byte	$EF
	.byte	$C6
	.byte	$A7
	.byte	$C6
	.byte	$FB
	.byte	$B6
	.byte	$A7
	.byte	$EB
	.byte	$C6
	.byte	$C6
	.byte	$C6
	.byte	$DE
	.byte	$DF
	.byte	$A7
	.byte	$F8
	.byte	$F9
	.byte	$F8
	.byte	$F9
	.byte	$F8
	.byte	$F9
	.byte	$8F
	.byte	$C6
	.byte	$C9
	.byte	$8E
	.byte	$F8
	.byte	$F9
	.byte	$A7
	.byte	$A7
	.byte	$F8
	.byte	$F9
	.byte	$A7
	.byte	$FE
	.byte	$FF
	.byte	$C6
	.byte	$C6
	.byte	$C6
	.byte	$ED
	.byte	$BF
	.byte	$B6
	.byte	$FB
	.byte	$C6
	.byte	$EB
	.byte	$C6
	.byte	$CA
	.byte	$C6
	.byte	$C6
	.byte	$C8
	.byte	$C6
	.byte	$C6
	.byte	$C6
	.byte	$C8
	.byte	$CA
	.byte	$C6
	.byte	$C7
	.byte	$C8
	.byte	$C6
	.byte	$C6
	.byte	$C8
	.byte	$CA
	.byte	$C6
	.byte	$C8
	.byte	$C6
	.byte	$CA
	.byte	$C6
	.byte	$C6
	.byte	$C6
	.byte	$EB
	.byte	$C6
	.byte	$FD
	.byte	$DF
	.byte	$B6
	.byte	$EB
	.byte	$C6
	.byte	$FB
	.byte	$F8
	.byte	$F9
	.byte	$F8
	.byte	$F9
	.byte	$A7
	.byte	$EE
	.byte	$EF
	.byte	$A7
	.byte	$F8
	.byte	$F9
	.byte	$A7
	.byte	$C8
	.byte	$C8
	.byte	$A7
	.byte	$F8
	.byte	$F9
	.byte	$A7
	.byte	$EE
	.byte	$EF
	.byte	$A7
	.byte	$F8
	.byte	$F9
	.byte	$F8
	.byte	$F9
	.byte	$FB
	.byte	$C6
	.byte	$EB
	.byte	$A7
	.byte	$B6
	.byte	$FB
	.byte	$C6
	.byte	$EE
	.byte	$EF
	.byte	$C6
	.byte	$C6
	.byte	$C6
	.byte	$A7
	.byte	$FE
	.byte	$FF
	.byte	$A7
	.byte	$C6
	.byte	$C6
	.byte	$C7
	.byte	$C8
	.byte	$C7
	.byte	$C6
	.byte	$C6
	.byte	$C6
	.byte	$A7
	.byte	$FE
	.byte	$FF
	.byte	$A7
	.byte	$C6
	.byte	$C6
	.byte	$C6
	.byte	$BE
	.byte	$BF
	.byte	$C7
	.byte	$FB
	.byte	$B6
	.byte	$BE
	.byte	$EC
	.byte	$C6
	.byte	$FE
	.byte	$FF
	.byte	$F8
	.byte	$F9
	.byte	$C6
	.byte	$C6
	.byte	$C6
	.byte	$C6
	.byte	$C6
	.byte	$C6
	.byte	$BE
	.byte	$BF
	.byte	$C6
	.byte	$C7
	.byte	$BE
	.byte	$BF
	.byte	$CA
	.byte	$C6
	.byte	$C6
	.byte	$C6
	.byte	$C6
	.byte	$C6
	.byte	$F8
	.byte	$F9
	.byte	$DE
	.byte	$DF
	.byte	$C8
	.byte	$EB
	.byte	$B6
	.byte	$DE
	.byte	$FC
	.byte	$C6
	.byte	$C6
	.byte	$C6
	.byte	$C6
	.byte	$C6
	.byte	$C6
	.byte	$EB
	.byte	$C6
	.byte	$A7
	.byte	$F8
	.byte	$F9
	.byte	$CE
	.byte	$CF
	.byte	$C6
	.byte	$C6
	.byte	$CE
	.byte	$CF
	.byte	$F8
	.byte	$F9
	.byte	$A7
	.byte	$C6
	.byte	$EB
	.byte	$C6
	.byte	$C6
	.byte	$CA
	.byte	$C6
	.byte	$C6
	.byte	$C6
	.byte	$FB
	.byte	$B6
	.byte	$B6
	.byte	$EB
	.byte	$C6
	.byte	$A7
	.byte	$F8
	.byte	$F9
	.byte	$A7
	.byte	$C6
	.byte	$FB
	.byte	$C6
	.byte	$C6
	.byte	$C6
	.byte	$8E
	.byte	$DE
	.byte	$DF
	.byte	$BE
	.byte	$BF
	.byte	$DE
	.byte	$DF
	.byte	$8F
	.byte	$C6
	.byte	$C6
	.byte	$C6
	.byte	$FB
	.byte	$C6
	.byte	$9C
	.byte	$9C
	.byte	$F8
	.byte	$F9
	.byte	$C7
	.byte	$EA
	.byte	$B6
	.byte	$B6
	.byte	$FB
	.byte	$C6
	.byte	$C6
	.byte	$C6
	.byte	$BE
	.byte	$BF
	.byte	$C6
	.byte	$EB
	.byte	$C6
	.byte	$A7
	.byte	$C6
	.byte	$C6
	.byte	$C6
	.byte	$C6
	.byte	$DE
	.byte	$DF
	.byte	$C6
	.byte	$C6
	.byte	$C6
	.byte	$C6
	.byte	$A7
	.byte	$C6
	.byte	$EB
	.byte	$C6
	.byte	$EE
	.byte	$EF
	.byte	$C6
	.byte	$C6
	.byte	$CA
	.byte	$FA
	.byte	$B6
	.byte	$B6
	.byte	$EA
	.byte	$C6
	.byte	$A7
	.byte	$A7
	.byte	$DE
	.byte	$DF
	.byte	$C6
	.byte	$FB
	.byte	$C6
	.byte	$8C
	.byte	$BE
	.byte	$BF
	.byte	$8D
	.byte	$C6
	.byte	$C9
	.byte	$C6
	.byte	$C6
	.byte	$8C
	.byte	$BE
	.byte	$BF
	.byte	$8D
	.byte	$C6
	.byte	$FB
	.byte	$C6
	.byte	$FE
	.byte	$FF
	.byte	$E8
	.byte	$E9
	.byte	$C6
	.byte	$EB
	.byte	$99
	.byte	$A7
	.byte	$FA
	.byte	$C6
	.byte	$C6
	.byte	$C6
	.byte	$C6
	.byte	$EB
	.byte	$C6
	.byte	$EA
	.byte	$C6
	.byte	$ED
	.byte	$BC
	.byte	$DC
	.byte	$EC
	.byte	$C7
	.byte	$C6
	.byte	$C6
	.byte	$C6
	.byte	$ED
	.byte	$BC
	.byte	$DC
	.byte	$EC
	.byte	$C9
	.byte	$EB
	.byte	$C6
	.byte	$A7
	.byte	$C6
	.byte	$C6
	.byte	$C6
	.byte	$C8
	.byte	$FB
	.byte	$B6
	.byte	$B6
	.byte	$EB
	.byte	$C6
	.byte	$F8
	.byte	$F9
	.byte	$A7
	.byte	$FB
	.byte	$C6
	.byte	$FA
	.byte	$C6
	.byte	$FD
	.byte	$BB
	.byte	$CB
	.byte	$FC
	.byte	$C6
	.byte	$BE
	.byte	$BF
	.byte	$C7
	.byte	$FD
	.byte	$BB
	.byte	$CB
	.byte	$FC
	.byte	$C6
	.byte	$FB
	.byte	$C6
	.byte	$A7
	.byte	$F8
	.byte	$F9
	.byte	$A7
	.byte	$C6
	.byte	$EB
	.byte	$B6
	.byte	$B6
	.byte	$FB
	.byte	$C6
	.byte	$C6
	.byte	$C6
	.byte	$C6
	.byte	$C6
	.byte	$C6
	.byte	$EB
	.byte	$C6
	.byte	$8E
	.byte	$DE
	.byte	$DF
	.byte	$8F
	.byte	$C6
	.byte	$DE
	.byte	$DF
	.byte	$C6
	.byte	$8E
	.byte	$DE
	.byte	$DF
	.byte	$8F
	.byte	$C6
	.byte	$EB
	.byte	$C6
	.byte	$C6
	.byte	$CA
	.byte	$C6
	.byte	$C6
	.byte	$CA
	.byte	$FB
	.byte	$B6
	.byte	$A7
	.byte	$EB
	.byte	$C6
	.byte	$A7
	.byte	$EE
	.byte	$EF
	.byte	$C6
	.byte	$9E
	.byte	$FB
	.byte	$C6
	.byte	$C7
	.byte	$C6
	.byte	$C6
	.byte	$C6
	.byte	$C6
	.byte	$C6
	.byte	$C6
	.byte	$C7
	.byte	$C6
	.byte	$CA
	.byte	$C6
	.byte	$C6
	.byte	$C6
	.byte	$FB
	.byte	$A7
	.byte	$C6
	.byte	$EE
	.byte	$EF
	.byte	$A7
	.byte	$C6
	.byte	$EB
	.byte	$B6
	.byte	$B6
	.byte	$FB
	.byte	$C6
	.byte	$C6
	.byte	$FE
	.byte	$FF
	.byte	$C6
	.byte	$C6
	.byte	$C6
	.byte	$C6
	.byte	$F8
	.byte	$F9
	.byte	$BE
	.byte	$BF
	.byte	$C7
	.byte	$EE
	.byte	$EF
	.byte	$C6
	.byte	$BE
	.byte	$BF
	.byte	$F8
	.byte	$F9
	.byte	$C6
	.byte	$C6
	.byte	$C6
	.byte	$C6
	.byte	$FE
	.byte	$FF
	.byte	$C6
	.byte	$C6
	.byte	$FB
	.byte	$AB
	.byte	$B6
	.byte	$EB
	.byte	$B8
	.byte	$B8
	.byte	$C6
	.byte	$A7
	.byte	$C6
	.byte	$BE
	.byte	$BF
	.byte	$C6
	.byte	$C6
	.byte	$C6
	.byte	$DE
	.byte	$DF
	.byte	$C6
	.byte	$FE
	.byte	$FF
	.byte	$C6
	.byte	$DE
	.byte	$DF
	.byte	$C6
	.byte	$C6
	.byte	$C6
	.byte	$BE
	.byte	$BF
	.byte	$C6
	.byte	$A7
	.byte	$C6
	.byte	$B8
	.byte	$B8
	.byte	$EB
	.byte	$A7
	.byte	$A7
	.byte	$FB
	.byte	$B8
	.byte	$B8
	.byte	$C6
	.byte	$C6
	.byte	$C6
	.byte	$CE
	.byte	$CF
	.byte	$EE
	.byte	$EF
	.byte	$C6
	.byte	$C6
	.byte	$C6
	.byte	$C6
	.byte	$C6
	.byte	$C6
	.byte	$C6
	.byte	$C6
	.byte	$C6
	.byte	$C6
	.byte	$BE
	.byte	$CD
	.byte	$BC
	.byte	$CF
	.byte	$C6
	.byte	$C6
	.byte	$C6
	.byte	$B8
	.byte	$B8
	.byte	$FB
	.byte	$B6
	.byte	$B6
	.byte	$A8
	.byte	$E8
	.byte	$E9
	.byte	$F8
	.byte	$F9
	.byte	$A7
	.byte	$CE
	.byte	$CF
	.byte	$FE
	.byte	$FF
	.byte	$F8
	.byte	$F9
	.byte	$F8
	.byte	$F9
	.byte	$E8
	.byte	$E9
	.byte	$F8
	.byte	$F9
	.byte	$F8
	.byte	$F9
	.byte	$CE
	.byte	$CC
	.byte	$CC
	.byte	$DB
	.byte	$A7
	.byte	$F8
	.byte	$F9
	.byte	$F8
	.byte	$F9
	.byte	$AA
	.byte	$B6
	.byte	$A7
	.byte	$B6
	.byte	$B6
	.byte	$B6
	.byte	$B6
	.byte	$A7
	.byte	$B6
	.byte	$DE
	.byte	$DF
	.byte	$A7
	.byte	$AF
	.byte	$B6
	.byte	$A7
	.byte	$B9
	.byte	$B6
	.byte	$B9
	.byte	$B6
	.byte	$A7
	.byte	$A7
	.byte	$B7
	.byte	$A8
	.byte	$DE
	.byte	$DD
	.byte	$DD
	.byte	$DF
	.byte	$B6
	.byte	$B7
	.byte	$B6
	.byte	$A7
	.byte	$A7
	.byte	$B6
	.byte	$B6
	.byte	$00
	.byte	$0C
	.byte	$0F
	.byte	$07
	.byte	$0D
	.byte	$0F
	.byte	$03
	.byte	$00
	.byte	$00
	.byte	$00
	.byte	$00
	.byte	$00
	.byte	$00
	.byte	$00
	.byte	$00
	.byte	$00
	.byte	$00
	.byte	$00
	.byte	$00
	.byte	$00
	.byte	$00
	.byte	$00
	.byte	$00
	.byte	$00
	.byte	$00
	.byte	$00
	.byte	$00
	.byte	$00
	.byte	$00
	.byte	$00
	.byte	$00
	.byte	$00
	.byte	$00
	.byte	$00
	.byte	$00
	.byte	$00
	.byte	$00
	.byte	$00
	.byte	$00
	.byte	$00
	.byte	$00
	.byte	$00
	.byte	$00
	.byte	$00
	.byte	$00
	.byte	$00
	.byte	$00
	.byte	$00
	.byte	$00
	.byte	$00
	.byte	$00
	.byte	$00
	.byte	$00
	.byte	$00
	.byte	$00
	.byte	$00
	.byte	$00
	.byte	$00
	.byte	$00
	.byte	$00
	.byte	$00
	.byte	$00
	.byte	$00
	.byte	$00
_vines:
	.byte	$CC
	.byte	$CC
	.byte	$CB
	.byte	$DD
	.byte	$BB
	.byte	$5D
	.byte	$00
	.byte	$00
	.byte	$00
	.byte	$00
	.byte	$00
	.byte	$00
	.byte	$00
	.byte	$00
	.byte	$00
	.byte	$00
	.byte	$00
	.byte	$00
	.byte	$00
	.byte	$00
	.byte	$00
	.byte	$00
	.byte	$00
	.byte	$00
	.byte	$00
	.byte	$00
	.byte	$5C
	.byte	$CC
	.byte	$A6
	.byte	$CC
	.byte	$CC
	.byte	$CC
	.byte	$CC
	.byte	$CC
	.byte	$CF
	.byte	$AB
	.byte	$CE
	.byte	$5D
	.byte	$00
	.byte	$00
	.byte	$00
	.byte	$00
	.byte	$00
	.byte	$00
	.byte	$00
	.byte	$00
	.byte	$00
	.byte	$00
	.byte	$00
	.byte	$00
	.byte	$00
	.byte	$00
	.byte	$00
	.byte	$00
	.byte	$00
	.byte	$00
	.byte	$00
	.byte	$00
	.byte	$5C
	.byte	$CC
	.byte	$CC
	.byte	$CC
	.byte	$CC
	.byte	$CC
	.byte	$CC
	.byte	$A6
	.byte	$DC
	.byte	$CD
	.byte	$BC
	.byte	$5E
	.byte	$5F
	.byte	$5F
	.byte	$5F
	.byte	$5F
	.byte	$5F
	.byte	$5F
	.byte	$5F
	.byte	$5F
	.byte	$5F
	.byte	$5F
	.byte	$5F
	.byte	$5F
	.byte	$5F
	.byte	$5F
	.byte	$5F
	.byte	$5F
	.byte	$5F
	.byte	$5F
	.byte	$5F
	.byte	$5F
	.byte	$5B
	.byte	$CC
	.byte	$CC
	.byte	$A6
	.byte	$CC
	.byte	$CC
	.byte	$CC
	.byte	$CB
	.byte	$DD
	.byte	$DD
	.byte	$DD
	.byte	$DD
	.byte	$DD
	.byte	$DD
	.byte	$DD
	.byte	$DD
	.byte	$DD
	.byte	$DD
	.byte	$DD
	.byte	$DD
	.byte	$DD
	.byte	$DD
	.byte	$DD
	.byte	$DD
	.byte	$DD
	.byte	$DD
	.byte	$DD
	.byte	$DD
	.byte	$DD
	.byte	$DD
	.byte	$DD
	.byte	$DD
	.byte	$DD
	.byte	$DD
	.byte	$DD
	.byte	$DD
	.byte	$BB
	.byte	$CC
	.byte	$CC
	.byte	$CF
	.byte	$00
	.byte	$00
	.byte	$C3
	.byte	$A5
	.byte	$D3
	.byte	$C4
	.byte	$C0
	.byte	$D4
	.byte	$A5
	.byte	$A5
	.byte	$A5
	.byte	$A5
	.byte	$A5
	.byte	$A5
	.byte	$A5
	.byte	$A5
	.byte	$A5
	.byte	$A5
	.byte	$A5
	.byte	$A5
	.byte	$D3
	.byte	$C4
	.byte	$C0
	.byte	$D4
	.byte	$A5
	.byte	$E0
	.byte	$00
	.byte	$00
	.byte	$CE
	.byte	$CC
	.byte	$CC
	.byte	$CF
	.byte	$00
	.byte	$00
	.byte	$E4
	.byte	$A5
	.byte	$A5
	.byte	$D3
	.byte	$D4
	.byte	$A5
	.byte	$A5
	.byte	$C0
	.byte	$A0
	.byte	$A1
	.byte	$C4
	.byte	$A5
	.byte	$A5
	.byte	$C0
	.byte	$E1
	.byte	$A0
	.byte	$C4
	.byte	$A5
	.byte	$A5
	.byte	$D3
	.byte	$D4
	.byte	$A5
	.byte	$A5
	.byte	$E4
	.byte	$00
	.byte	$00
	.byte	$CE
	.byte	$CC
	.byte	$CC
	.byte	$CF
	.byte	$A5
	.byte	$A5
	.byte	$A5
	.byte	$A5
	.byte	$A5
	.byte	$A5
	.byte	$A5
	.byte	$A5
	.byte	$C0
	.byte	$D4
	.byte	$B0
	.byte	$B1
	.byte	$F0
	.byte	$A5
	.byte	$A5
	.byte	$D0
	.byte	$00
	.byte	$B0
	.byte	$D3
	.byte	$C4
	.byte	$A5
	.byte	$A5
	.byte	$A5
	.byte	$A5
	.byte	$A5
	.byte	$A5
	.byte	$A5
	.byte	$A5
	.byte	$CE
	.byte	$CC
	.byte	$A6
	.byte	$CF
	.byte	$A5
	.byte	$A5
	.byte	$A5
	.byte	$A5
	.byte	$C0
	.byte	$C1
	.byte	$E2
	.byte	$C1
	.byte	$D4
	.byte	$00
	.byte	$00
	.byte	$00
	.byte	$F0
	.byte	$A5
	.byte	$A5
	.byte	$F0
	.byte	$00
	.byte	$00
	.byte	$00
	.byte	$D3
	.byte	$C1
	.byte	$E2
	.byte	$C1
	.byte	$C4
	.byte	$A5
	.byte	$A5
	.byte	$A5
	.byte	$A5
	.byte	$CE
	.byte	$CB
	.byte	$CC
	.byte	$CF
	.byte	$A5
	.byte	$A5
	.byte	$A5
	.byte	$A5
	.byte	$D3
	.byte	$C1
	.byte	$C1
	.byte	$C2
	.byte	$C1
	.byte	$E1
	.byte	$E2
	.byte	$C1
	.byte	$D4
	.byte	$A5
	.byte	$A5
	.byte	$D3
	.byte	$C2
	.byte	$C1
	.byte	$E1
	.byte	$C1
	.byte	$C1
	.byte	$C1
	.byte	$C1
	.byte	$D4
	.byte	$A5
	.byte	$A5
	.byte	$A5
	.byte	$A5
	.byte	$CE
	.byte	$CF
	.byte	$CC
	.byte	$CF
	.byte	$A5
	.byte	$E3
	.byte	$A5
	.byte	$A5
	.byte	$A5
	.byte	$A5
	.byte	$A5
	.byte	$A5
	.byte	$A5
	.byte	$A5
	.byte	$A5
	.byte	$A5
	.byte	$A5
	.byte	$A5
	.byte	$A5
	.byte	$A5
	.byte	$A5
	.byte	$A5
	.byte	$A5
	.byte	$A5
	.byte	$A5
	.byte	$A5
	.byte	$A5
	.byte	$A5
	.byte	$A5
	.byte	$A5
	.byte	$E3
	.byte	$A5
	.byte	$CE
	.byte	$CF
	.byte	$CC
	.byte	$CF
	.byte	$A5
	.byte	$D3
	.byte	$C1
	.byte	$E1
	.byte	$C1
	.byte	$C1
	.byte	$C4
	.byte	$A5
	.byte	$C0
	.byte	$E2
	.byte	$C5
	.byte	$E1
	.byte	$D1
	.byte	$A5
	.byte	$A5
	.byte	$D2
	.byte	$C1
	.byte	$C5
	.byte	$C1
	.byte	$C4
	.byte	$A5
	.byte	$C0
	.byte	$F2
	.byte	$C1
	.byte	$C1
	.byte	$E1
	.byte	$D4
	.byte	$A5
	.byte	$CE
	.byte	$CF
	.byte	$CC
	.byte	$CF
	.byte	$A5
	.byte	$A5
	.byte	$A5
	.byte	$A5
	.byte	$A5
	.byte	$A5
	.byte	$F0
	.byte	$A5
	.byte	$F0
	.byte	$C0
	.byte	$D4
	.byte	$A5
	.byte	$A5
	.byte	$A5
	.byte	$A5
	.byte	$A5
	.byte	$A5
	.byte	$D3
	.byte	$C4
	.byte	$D0
	.byte	$A5
	.byte	$F0
	.byte	$A5
	.byte	$A5
	.byte	$A5
	.byte	$A5
	.byte	$A5
	.byte	$A5
	.byte	$CE
	.byte	$DC
	.byte	$CC
	.byte	$CF
	.byte	$A5
	.byte	$C0
	.byte	$C1
	.byte	$E2
	.byte	$C1
	.byte	$C1
	.byte	$D4
	.byte	$A5
	.byte	$D3
	.byte	$D4
	.byte	$A5
	.byte	$A5
	.byte	$A5
	.byte	$A5
	.byte	$A5
	.byte	$A5
	.byte	$A5
	.byte	$A5
	.byte	$D3
	.byte	$D4
	.byte	$A5
	.byte	$D3
	.byte	$E2
	.byte	$C1
	.byte	$C1
	.byte	$C1
	.byte	$C4
	.byte	$A5
	.byte	$CE
	.byte	$CC
	.byte	$CC
	.byte	$CF
	.byte	$A5
	.byte	$F0
	.byte	$A5
	.byte	$A5
	.byte	$A5
	.byte	$A5
	.byte	$A5
	.byte	$A5
	.byte	$A5
	.byte	$A5
	.byte	$A5
	.byte	$A5
	.byte	$A7
	.byte	$A5
	.byte	$A5
	.byte	$A7
	.byte	$A5
	.byte	$A5
	.byte	$A5
	.byte	$A5
	.byte	$A5
	.byte	$A5
	.byte	$A5
	.byte	$A5
	.byte	$A5
	.byte	$A5
	.byte	$C3
	.byte	$A5
	.byte	$CE
	.byte	$CC
	.byte	$CC
	.byte	$CF
	.byte	$A5
	.byte	$F0
	.byte	$A5
	.byte	$C0
	.byte	$C1
	.byte	$C4
	.byte	$A5
	.byte	$E3
	.byte	$A5
	.byte	$A5
	.byte	$A5
	.byte	$A7
	.byte	$A7
	.byte	$A5
	.byte	$A5
	.byte	$A7
	.byte	$A7
	.byte	$A5
	.byte	$A5
	.byte	$A5
	.byte	$E3
	.byte	$A5
	.byte	$C0
	.byte	$E2
	.byte	$C4
	.byte	$A5
	.byte	$F0
	.byte	$A5
	.byte	$CE
	.byte	$CC
	.byte	$CC
	.byte	$CF
	.byte	$A5
	.byte	$F0
	.byte	$A5
	.byte	$F0
	.byte	$A5
	.byte	$F0
	.byte	$A5
	.byte	$F0
	.byte	$A5
	.byte	$A5
	.byte	$A7
	.byte	$A7
	.byte	$A7
	.byte	$B6
	.byte	$B6
	.byte	$A7
	.byte	$A7
	.byte	$A7
	.byte	$A5
	.byte	$A5
	.byte	$E0
	.byte	$A5
	.byte	$F0
	.byte	$A5
	.byte	$F0
	.byte	$A5
	.byte	$F0
	.byte	$A5
	.byte	$CE
	.byte	$CC
	.byte	$CC
	.byte	$CF
	.byte	$A5
	.byte	$F0
	.byte	$A5
	.byte	$E4
	.byte	$A5
	.byte	$F0
	.byte	$A5
	.byte	$E4
	.byte	$A5
	.byte	$A5
	.byte	$EE
	.byte	$EF
	.byte	$B6
	.byte	$B6
	.byte	$B6
	.byte	$B6
	.byte	$EE
	.byte	$EF
	.byte	$A5
	.byte	$A5
	.byte	$E4
	.byte	$A5
	.byte	$F0
	.byte	$A5
	.byte	$E4
	.byte	$A5
	.byte	$F0
	.byte	$A5
	.byte	$CE
	.byte	$A6
	.byte	$CC
	.byte	$CF
	.byte	$A5
	.byte	$F0
	.byte	$A5
	.byte	$A5
	.byte	$A5
	.byte	$F0
	.byte	$A5
	.byte	$A5
	.byte	$A5
	.byte	$A5
	.byte	$FE
	.byte	$FF
	.byte	$B6
	.byte	$B6
	.byte	$B6
	.byte	$B6
	.byte	$FE
	.byte	$FF
	.byte	$A5
	.byte	$A5
	.byte	$A5
	.byte	$A5
	.byte	$F0
	.byte	$A5
	.byte	$A5
	.byte	$A5
	.byte	$F0
	.byte	$A5
	.byte	$CE
	.byte	$CC
	.byte	$CC
	.byte	$CF
	.byte	$A5
	.byte	$F0
	.byte	$A5
	.byte	$A5
	.byte	$A5
	.byte	$F0
	.byte	$A5
	.byte	$E3
	.byte	$A5
	.byte	$A5
	.byte	$A7
	.byte	$A7
	.byte	$A7
	.byte	$B6
	.byte	$B6
	.byte	$A7
	.byte	$A7
	.byte	$A7
	.byte	$A5
	.byte	$A5
	.byte	$E3
	.byte	$A5
	.byte	$F0
	.byte	$A5
	.byte	$A5
	.byte	$A5
	.byte	$E0
	.byte	$A5
	.byte	$CE
	.byte	$CC
	.byte	$A6
	.byte	$CF
	.byte	$A5
	.byte	$E0
	.byte	$A5
	.byte	$E3
	.byte	$A5
	.byte	$F0
	.byte	$A5
	.byte	$F0
	.byte	$A5
	.byte	$A5
	.byte	$A5
	.byte	$A7
	.byte	$A7
	.byte	$A5
	.byte	$A5
	.byte	$A7
	.byte	$A7
	.byte	$A5
	.byte	$A5
	.byte	$A5
	.byte	$F0
	.byte	$A5
	.byte	$F0
	.byte	$A5
	.byte	$E3
	.byte	$A5
	.byte	$F0
	.byte	$A5
	.byte	$CE
	.byte	$CC
	.byte	$CC
	.byte	$CF
	.byte	$A5
	.byte	$F0
	.byte	$A5
	.byte	$F0
	.byte	$A5
	.byte	$F0
	.byte	$A5
	.byte	$F0
	.byte	$A5
	.byte	$A5
	.byte	$A5
	.byte	$A5
	.byte	$A7
	.byte	$A5
	.byte	$A5
	.byte	$A7
	.byte	$A5
	.byte	$A5
	.byte	$A5
	.byte	$A5
	.byte	$F0
	.byte	$A5
	.byte	$D0
	.byte	$A5
	.byte	$F0
	.byte	$A5
	.byte	$F0
	.byte	$A5
	.byte	$CE
	.byte	$CC
	.byte	$CC
	.byte	$CF
	.byte	$A5
	.byte	$E4
	.byte	$A5
	.byte	$F0
	.byte	$A5
	.byte	$F0
	.byte	$A5
	.byte	$E4
	.byte	$A5
	.byte	$C0
	.byte	$C4
	.byte	$A5
	.byte	$A5
	.byte	$A5
	.byte	$A5
	.byte	$A5
	.byte	$A5
	.byte	$C0
	.byte	$C4
	.byte	$A5
	.byte	$E4
	.byte	$A5
	.byte	$F0
	.byte	$A5
	.byte	$F0
	.byte	$A5
	.byte	$E4
	.byte	$A5
	.byte	$CE
	.byte	$CC
	.byte	$CC
	.byte	$CF
	.byte	$A5
	.byte	$A5
	.byte	$A5
	.byte	$D3
	.byte	$C1
	.byte	$D4
	.byte	$A5
	.byte	$A5
	.byte	$A5
	.byte	$F0
	.byte	$D3
	.byte	$C4
	.byte	$A5
	.byte	$A5
	.byte	$A5
	.byte	$A5
	.byte	$C0
	.byte	$D4
	.byte	$F0
	.byte	$A5
	.byte	$A5
	.byte	$A5
	.byte	$D3
	.byte	$C1
	.byte	$D4
	.byte	$A5
	.byte	$A5
	.byte	$A5
	.byte	$CE
	.byte	$CC
	.byte	$CC
	.byte	$CF
	.byte	$A5
	.byte	$A5
	.byte	$A5
	.byte	$A5
	.byte	$A5
	.byte	$A5
	.byte	$A5
	.byte	$A5
	.byte	$A5
	.byte	$F0
	.byte	$00
	.byte	$D3
	.byte	$C4
	.byte	$A5
	.byte	$A5
	.byte	$C0
	.byte	$D4
	.byte	$00
	.byte	$F0
	.byte	$A5
	.byte	$A5
	.byte	$A5
	.byte	$A5
	.byte	$A5
	.byte	$A5
	.byte	$A5
	.byte	$A5
	.byte	$A5
	.byte	$CE
	.byte	$CC
	.byte	$CC
	.byte	$CF
	.byte	$F2
	.byte	$E1
	.byte	$C1
	.byte	$D1
	.byte	$A5
	.byte	$A5
	.byte	$D2
	.byte	$C1
	.byte	$C1
	.byte	$F1
	.byte	$E1
	.byte	$C1
	.byte	$D4
	.byte	$A5
	.byte	$A5
	.byte	$D3
	.byte	$C1
	.byte	$C1
	.byte	$F1
	.byte	$C1
	.byte	$C1
	.byte	$C1
	.byte	$D1
	.byte	$A5
	.byte	$A5
	.byte	$D2
	.byte	$E2
	.byte	$E1
	.byte	$CE
	.byte	$A6
	.byte	$CC
	.byte	$CF
	.byte	$A5
	.byte	$A5
	.byte	$A5
	.byte	$A5
	.byte	$A5
	.byte	$A5
	.byte	$A5
	.byte	$A5
	.byte	$A5
	.byte	$E4
	.byte	$A5
	.byte	$A5
	.byte	$A5
	.byte	$A5
	.byte	$A5
	.byte	$A5
	.byte	$A5
	.byte	$A5
	.byte	$E4
	.byte	$A5
	.byte	$A5
	.byte	$A5
	.byte	$A5
	.byte	$A5
	.byte	$A5
	.byte	$A5
	.byte	$A5
	.byte	$A5
	.byte	$CE
	.byte	$CC
	.byte	$CC
	.byte	$CF
	.byte	$00
	.byte	$00
	.byte	$C0
	.byte	$A0
	.byte	$A1
	.byte	$F2
	.byte	$C4
	.byte	$A5
	.byte	$A5
	.byte	$A5
	.byte	$A5
	.byte	$C0
	.byte	$E1
	.byte	$C1
	.byte	$C1
	.byte	$E2
	.byte	$C4
	.byte	$A5
	.byte	$A5
	.byte	$A5
	.byte	$A5
	.byte	$C0
	.byte	$F2
	.byte	$A0
	.byte	$A1
	.byte	$C4
	.byte	$00
	.byte	$00
	.byte	$CE
	.byte	$CC
	.byte	$CC
	.byte	$CF
	.byte	$00
	.byte	$00
	.byte	$F0
	.byte	$B0
	.byte	$B1
	.byte	$00
	.byte	$F0
	.byte	$A5
	.byte	$A5
	.byte	$A5
	.byte	$A5
	.byte	$F0
	.byte	$00
	.byte	$00
	.byte	$00
	.byte	$00
	.byte	$F0
	.byte	$A5
	.byte	$A5
	.byte	$A5
	.byte	$A5
	.byte	$F0
	.byte	$00
	.byte	$B0
	.byte	$B1
	.byte	$E0
	.byte	$00
	.byte	$00
	.byte	$CE
	.byte	$CC
	.byte	$CC
	.byte	$DC
	.byte	$CD
	.byte	$CD
	.byte	$CD
	.byte	$CD
	.byte	$CD
	.byte	$CD
	.byte	$CD
	.byte	$CD
	.byte	$CD
	.byte	$CD
	.byte	$CD
	.byte	$CD
	.byte	$CD
	.byte	$CD
	.byte	$CD
	.byte	$CD
	.byte	$CD
	.byte	$CD
	.byte	$CD
	.byte	$CD
	.byte	$CD
	.byte	$CD
	.byte	$CD
	.byte	$CD
	.byte	$CD
	.byte	$CD
	.byte	$CD
	.byte	$CD
	.byte	$BC
	.byte	$CC
	.byte	$CC
	.byte	$CC
	.byte	$CC
	.byte	$A6
	.byte	$CC
	.byte	$CC
	.byte	$CC
	.byte	$CC
	.byte	$CC
	.byte	$CC
	.byte	$CC
	.byte	$A6
	.byte	$CC
	.byte	$CC
	.byte	$CC
	.byte	$CC
	.byte	$CC
	.byte	$A6
	.byte	$A6
	.byte	$CC
	.byte	$CC
	.byte	$CC
	.byte	$A6
	.byte	$CC
	.byte	$CC
	.byte	$CC
	.byte	$CC
	.byte	$A6
	.byte	$CC
	.byte	$CC
	.byte	$CC
	.byte	$CC
	.byte	$00
	.byte	$00
	.byte	$00
	.byte	$00
	.byte	$00
	.byte	$00
	.byte	$00
	.byte	$00
	.byte	$44
	.byte	$55
	.byte	$55
	.byte	$55
	.byte	$55
	.byte	$55
	.byte	$55
	.byte	$11
	.byte	$44
	.byte	$55
	.byte	$55
	.byte	$55
	.byte	$55
	.byte	$55
	.byte	$55
	.byte	$11
	.byte	$44
	.byte	$55
	.byte	$55
	.byte	$01
	.byte	$04
	.byte	$55
	.byte	$55
	.byte	$11
	.byte	$44
	.byte	$55
	.byte	$55
	.byte	$00
	.byte	$00
	.byte	$55
	.byte	$55
	.byte	$11
	.byte	$44
	.byte	$55
	.byte	$55
	.byte	$51
	.byte	$54
	.byte	$55
	.byte	$55
	.byte	$11
	.byte	$44
	.byte	$55
	.byte	$55
	.byte	$55
	.byte	$55
	.byte	$55
	.byte	$55
	.byte	$11
	.byte	$00
	.byte	$00
	.byte	$00
	.byte	$00
	.byte	$00
	.byte	$00
	.byte	$00
	.byte	$00
_outdoors:
	.byte	$82
	.byte	$83
	.byte	$82
	.byte	$82
	.byte	$65
	.byte	$5D
	.byte	$00
	.byte	$00
	.byte	$00
	.byte	$00
	.byte	$00
	.byte	$00
	.byte	$00
	.byte	$00
	.byte	$00
	.byte	$00
	.byte	$00
	.byte	$00
	.byte	$00
	.byte	$00
	.byte	$00
	.byte	$00
	.byte	$00
	.byte	$00
	.byte	$00
	.byte	$00
	.byte	$5C
	.byte	$84
	.byte	$90
	.byte	$83
	.byte	$91
	.byte	$92
	.byte	$92
	.byte	$63
	.byte	$63
	.byte	$82
	.byte	$75
	.byte	$5D
	.byte	$00
	.byte	$00
	.byte	$00
	.byte	$00
	.byte	$00
	.byte	$00
	.byte	$00
	.byte	$00
	.byte	$00
	.byte	$00
	.byte	$00
	.byte	$00
	.byte	$00
	.byte	$00
	.byte	$00
	.byte	$00
	.byte	$00
	.byte	$00
	.byte	$00
	.byte	$00
	.byte	$5C
	.byte	$94
	.byte	$83
	.byte	$62
	.byte	$63
	.byte	$91
	.byte	$92
	.byte	$83
	.byte	$82
	.byte	$82
	.byte	$85
	.byte	$5E
	.byte	$5F
	.byte	$5F
	.byte	$5F
	.byte	$5F
	.byte	$5F
	.byte	$5F
	.byte	$5F
	.byte	$5F
	.byte	$5F
	.byte	$5F
	.byte	$5F
	.byte	$5F
	.byte	$5F
	.byte	$5F
	.byte	$5F
	.byte	$5F
	.byte	$5F
	.byte	$5F
	.byte	$5F
	.byte	$5F
	.byte	$5B
	.byte	$74
	.byte	$90
	.byte	$83
	.byte	$82
	.byte	$90
	.byte	$92
	.byte	$92
	.byte	$70
	.byte	$71
	.byte	$71
	.byte	$61
	.byte	$60
	.byte	$61
	.byte	$60
	.byte	$61
	.byte	$60
	.byte	$61
	.byte	$60
	.byte	$61
	.byte	$60
	.byte	$61
	.byte	$60
	.byte	$61
	.byte	$60
	.byte	$61
	.byte	$60
	.byte	$61
	.byte	$60
	.byte	$61
	.byte	$60
	.byte	$61
	.byte	$60
	.byte	$71
	.byte	$70
	.byte	$71
	.byte	$90
	.byte	$63
	.byte	$82
	.byte	$65
	.byte	$A5
	.byte	$A5
	.byte	$A5
	.byte	$A5
	.byte	$A5
	.byte	$A5
	.byte	$A5
	.byte	$A5
	.byte	$A5
	.byte	$A5
	.byte	$A5
	.byte	$A5
	.byte	$A5
	.byte	$A5
	.byte	$A5
	.byte	$A5
	.byte	$A5
	.byte	$A5
	.byte	$A5
	.byte	$A5
	.byte	$A5
	.byte	$A5
	.byte	$A5
	.byte	$A5
	.byte	$A5
	.byte	$A5
	.byte	$A5
	.byte	$A5
	.byte	$64
	.byte	$92
	.byte	$92
	.byte	$75
	.byte	$A5
	.byte	$78
	.byte	$67
	.byte	$67
	.byte	$77
	.byte	$A5
	.byte	$61
	.byte	$60
	.byte	$61
	.byte	$60
	.byte	$72
	.byte	$A5
	.byte	$61
	.byte	$61
	.byte	$60
	.byte	$60
	.byte	$A5
	.byte	$73
	.byte	$60
	.byte	$61
	.byte	$61
	.byte	$60
	.byte	$A5
	.byte	$78
	.byte	$68
	.byte	$68
	.byte	$77
	.byte	$A5
	.byte	$74
	.byte	$91
	.byte	$82
	.byte	$85
	.byte	$A5
	.byte	$66
	.byte	$72
	.byte	$73
	.byte	$66
	.byte	$A5
	.byte	$A5
	.byte	$A5
	.byte	$A5
	.byte	$A5
	.byte	$A3
	.byte	$A5
	.byte	$A5
	.byte	$A5
	.byte	$A5
	.byte	$A5
	.byte	$A5
	.byte	$B3
	.byte	$A5
	.byte	$A5
	.byte	$A5
	.byte	$A5
	.byte	$A5
	.byte	$76
	.byte	$73
	.byte	$72
	.byte	$76
	.byte	$A5
	.byte	$84
	.byte	$91
	.byte	$92
	.byte	$95
	.byte	$A5
	.byte	$76
	.byte	$62
	.byte	$62
	.byte	$66
	.byte	$A5
	.byte	$61
	.byte	$60
	.byte	$60
	.byte	$60
	.byte	$70
	.byte	$A5
	.byte	$B3
	.byte	$A5
	.byte	$A5
	.byte	$B3
	.byte	$A5
	.byte	$71
	.byte	$60
	.byte	$60
	.byte	$61
	.byte	$60
	.byte	$A5
	.byte	$66
	.byte	$62
	.byte	$63
	.byte	$66
	.byte	$A5
	.byte	$94
	.byte	$91
	.byte	$91
	.byte	$85
	.byte	$A5
	.byte	$76
	.byte	$62
	.byte	$63
	.byte	$66
	.byte	$A5
	.byte	$A5
	.byte	$A5
	.byte	$A5
	.byte	$A5
	.byte	$A5
	.byte	$A5
	.byte	$A3
	.byte	$A5
	.byte	$A5
	.byte	$A3
	.byte	$A5
	.byte	$A5
	.byte	$A5
	.byte	$A5
	.byte	$A5
	.byte	$A5
	.byte	$A5
	.byte	$76
	.byte	$63
	.byte	$63
	.byte	$66
	.byte	$A5
	.byte	$64
	.byte	$92
	.byte	$90
	.byte	$95
	.byte	$A5
	.byte	$76
	.byte	$62
	.byte	$92
	.byte	$76
	.byte	$A5
	.byte	$64
	.byte	$60
	.byte	$60
	.byte	$60
	.byte	$A5
	.byte	$A5
	.byte	$B3
	.byte	$A5
	.byte	$A5
	.byte	$B3
	.byte	$A5
	.byte	$A5
	.byte	$61
	.byte	$60
	.byte	$61
	.byte	$72
	.byte	$A5
	.byte	$66
	.byte	$62
	.byte	$92
	.byte	$76
	.byte	$A5
	.byte	$74
	.byte	$62
	.byte	$63
	.byte	$85
	.byte	$A5
	.byte	$76
	.byte	$63
	.byte	$63
	.byte	$66
	.byte	$A5
	.byte	$A3
	.byte	$A5
	.byte	$A5
	.byte	$A5
	.byte	$A5
	.byte	$A5
	.byte	$A3
	.byte	$A5
	.byte	$A5
	.byte	$A3
	.byte	$A5
	.byte	$A5
	.byte	$A5
	.byte	$A5
	.byte	$A5
	.byte	$A3
	.byte	$A5
	.byte	$66
	.byte	$63
	.byte	$62
	.byte	$66
	.byte	$A5
	.byte	$84
	.byte	$63
	.byte	$93
	.byte	$95
	.byte	$A5
	.byte	$66
	.byte	$71
	.byte	$70
	.byte	$66
	.byte	$A5
	.byte	$B3
	.byte	$A5
	.byte	$A5
	.byte	$A5
	.byte	$A5
	.byte	$A5
	.byte	$B3
	.byte	$A5
	.byte	$A5
	.byte	$B3
	.byte	$A5
	.byte	$A5
	.byte	$A5
	.byte	$A5
	.byte	$A5
	.byte	$B3
	.byte	$A5
	.byte	$76
	.byte	$70
	.byte	$71
	.byte	$76
	.byte	$A5
	.byte	$94
	.byte	$91
	.byte	$93
	.byte	$65
	.byte	$A5
	.byte	$78
	.byte	$67
	.byte	$67
	.byte	$77
	.byte	$A5
	.byte	$A5
	.byte	$A5
	.byte	$60
	.byte	$61
	.byte	$60
	.byte	$60
	.byte	$70
	.byte	$A5
	.byte	$A5
	.byte	$70
	.byte	$61
	.byte	$60
	.byte	$60
	.byte	$61
	.byte	$A5
	.byte	$A5
	.byte	$A5
	.byte	$78
	.byte	$67
	.byte	$67
	.byte	$77
	.byte	$A5
	.byte	$64
	.byte	$91
	.byte	$92
	.byte	$75
	.byte	$A5
	.byte	$A5
	.byte	$A5
	.byte	$A5
	.byte	$A5
	.byte	$A5
	.byte	$A5
	.byte	$A5
	.byte	$A5
	.byte	$A5
	.byte	$A5
	.byte	$A5
	.byte	$A5
	.byte	$A5
	.byte	$A5
	.byte	$A5
	.byte	$A5
	.byte	$A5
	.byte	$A5
	.byte	$A5
	.byte	$A5
	.byte	$A5
	.byte	$A5
	.byte	$A5
	.byte	$A5
	.byte	$A5
	.byte	$A5
	.byte	$A5
	.byte	$71
	.byte	$70
	.byte	$86
	.byte	$88
	.byte	$A5
	.byte	$A5
	.byte	$00
	.byte	$00
	.byte	$A5
	.byte	$A5
	.byte	$84
	.byte	$81
	.byte	$80
	.byte	$81
	.byte	$80
	.byte	$81
	.byte	$60
	.byte	$A5
	.byte	$A5
	.byte	$61
	.byte	$80
	.byte	$81
	.byte	$72
	.byte	$73
	.byte	$72
	.byte	$73
	.byte	$A5
	.byte	$A5
	.byte	$00
	.byte	$00
	.byte	$A5
	.byte	$A5
	.byte	$87
	.byte	$86
	.byte	$96
	.byte	$79
	.byte	$A5
	.byte	$A5
	.byte	$00
	.byte	$00
	.byte	$A5
	.byte	$A5
	.byte	$94
	.byte	$91
	.byte	$91
	.byte	$63
	.byte	$91
	.byte	$95
	.byte	$A5
	.byte	$A5
	.byte	$A5
	.byte	$A5
	.byte	$91
	.byte	$91
	.byte	$91
	.byte	$62
	.byte	$91
	.byte	$95
	.byte	$A5
	.byte	$A5
	.byte	$00
	.byte	$00
	.byte	$A5
	.byte	$A5
	.byte	$89
	.byte	$96
	.byte	$96
	.byte	$96
	.byte	$86
	.byte	$86
	.byte	$69
	.byte	$6B
	.byte	$86
	.byte	$86
	.byte	$86
	.byte	$86
	.byte	$86
	.byte	$86
	.byte	$86
	.byte	$86
	.byte	$69
	.byte	$6A
	.byte	$6A
	.byte	$6B
	.byte	$86
	.byte	$86
	.byte	$86
	.byte	$86
	.byte	$86
	.byte	$86
	.byte	$86
	.byte	$86
	.byte	$69
	.byte	$6B
	.byte	$86
	.byte	$86
	.byte	$96
	.byte	$96
	.byte	$96
	.byte	$96
	.byte	$8A
	.byte	$8A
	.byte	$69
	.byte	$6B
	.byte	$8A
	.byte	$8A
	.byte	$8A
	.byte	$8A
	.byte	$8A
	.byte	$8A
	.byte	$8A
	.byte	$8A
	.byte	$69
	.byte	$6A
	.byte	$6A
	.byte	$6B
	.byte	$8A
	.byte	$8A
	.byte	$8A
	.byte	$8A
	.byte	$8A
	.byte	$8A
	.byte	$8A
	.byte	$8A
	.byte	$69
	.byte	$6B
	.byte	$8A
	.byte	$8A
	.byte	$96
	.byte	$96
	.byte	$96
	.byte	$79
	.byte	$A5
	.byte	$A5
	.byte	$A5
	.byte	$A5
	.byte	$A5
	.byte	$A5
	.byte	$64
	.byte	$63
	.byte	$62
	.byte	$63
	.byte	$91
	.byte	$75
	.byte	$A5
	.byte	$A5
	.byte	$A5
	.byte	$A5
	.byte	$84
	.byte	$62
	.byte	$90
	.byte	$63
	.byte	$62
	.byte	$65
	.byte	$A5
	.byte	$A5
	.byte	$A5
	.byte	$A5
	.byte	$A5
	.byte	$A5
	.byte	$89
	.byte	$96
	.byte	$8A
	.byte	$98
	.byte	$A5
	.byte	$A5
	.byte	$A5
	.byte	$A5
	.byte	$A5
	.byte	$A5
	.byte	$74
	.byte	$70
	.byte	$71
	.byte	$70
	.byte	$71
	.byte	$95
	.byte	$A5
	.byte	$A5
	.byte	$A5
	.byte	$A5
	.byte	$94
	.byte	$70
	.byte	$71
	.byte	$70
	.byte	$71
	.byte	$85
	.byte	$A5
	.byte	$A5
	.byte	$A5
	.byte	$A5
	.byte	$A5
	.byte	$A5
	.byte	$97
	.byte	$8A
	.byte	$92
	.byte	$65
	.byte	$A5
	.byte	$84
	.byte	$65
	.byte	$A5
	.byte	$66
	.byte	$A5
	.byte	$A5
	.byte	$A5
	.byte	$A5
	.byte	$A5
	.byte	$A5
	.byte	$B3
	.byte	$A5
	.byte	$A5
	.byte	$A5
	.byte	$A5
	.byte	$B3
	.byte	$A5
	.byte	$A5
	.byte	$A5
	.byte	$A5
	.byte	$A5
	.byte	$A5
	.byte	$66
	.byte	$A5
	.byte	$84
	.byte	$85
	.byte	$A5
	.byte	$80
	.byte	$81
	.byte	$92
	.byte	$75
	.byte	$A5
	.byte	$74
	.byte	$85
	.byte	$A5
	.byte	$78
	.byte	$67
	.byte	$68
	.byte	$67
	.byte	$67
	.byte	$77
	.byte	$A5
	.byte	$70
	.byte	$61
	.byte	$A5
	.byte	$A5
	.byte	$61
	.byte	$71
	.byte	$A5
	.byte	$78
	.byte	$67
	.byte	$68
	.byte	$67
	.byte	$67
	.byte	$77
	.byte	$A5
	.byte	$64
	.byte	$95
	.byte	$A5
	.byte	$74
	.byte	$91
	.byte	$82
	.byte	$85
	.byte	$A5
	.byte	$84
	.byte	$95
	.byte	$A5
	.byte	$A5
	.byte	$A5
	.byte	$A5
	.byte	$A5
	.byte	$A5
	.byte	$A5
	.byte	$A5
	.byte	$A5
	.byte	$A5
	.byte	$A5
	.byte	$A5
	.byte	$A5
	.byte	$A5
	.byte	$A5
	.byte	$A5
	.byte	$A5
	.byte	$A5
	.byte	$A5
	.byte	$A5
	.byte	$A5
	.byte	$A5
	.byte	$94
	.byte	$85
	.byte	$A5
	.byte	$84
	.byte	$91
	.byte	$92
	.byte	$95
	.byte	$A5
	.byte	$94
	.byte	$62
	.byte	$80
	.byte	$81
	.byte	$73
	.byte	$72
	.byte	$72
	.byte	$A5
	.byte	$78
	.byte	$67
	.byte	$67
	.byte	$77
	.byte	$A5
	.byte	$A5
	.byte	$78
	.byte	$67
	.byte	$67
	.byte	$77
	.byte	$A5
	.byte	$80
	.byte	$81
	.byte	$72
	.byte	$80
	.byte	$81
	.byte	$92
	.byte	$65
	.byte	$A5
	.byte	$94
	.byte	$91
	.byte	$92
	.byte	$65
	.byte	$A5
	.byte	$70
	.byte	$71
	.byte	$70
	.byte	$71
	.byte	$70
	.byte	$71
	.byte	$70
	.byte	$A5
	.byte	$A5
	.byte	$A5
	.byte	$A5
	.byte	$A5
	.byte	$A5
	.byte	$A5
	.byte	$A5
	.byte	$A5
	.byte	$A5
	.byte	$A5
	.byte	$A5
	.byte	$71
	.byte	$71
	.byte	$71
	.byte	$71
	.byte	$70
	.byte	$71
	.byte	$70
	.byte	$A5
	.byte	$64
	.byte	$62
	.byte	$63
	.byte	$75
	.byte	$A5
	.byte	$A5
	.byte	$A5
	.byte	$A5
	.byte	$A5
	.byte	$A5
	.byte	$A5
	.byte	$A5
	.byte	$A5
	.byte	$A5
	.byte	$A5
	.byte	$A5
	.byte	$A5
	.byte	$A5
	.byte	$A5
	.byte	$A5
	.byte	$A5
	.byte	$A5
	.byte	$A5
	.byte	$A5
	.byte	$A5
	.byte	$A5
	.byte	$A5
	.byte	$A5
	.byte	$A5
	.byte	$A5
	.byte	$A5
	.byte	$A5
	.byte	$74
	.byte	$62
	.byte	$82
	.byte	$85
	.byte	$00
	.byte	$00
	.byte	$61
	.byte	$60
	.byte	$61
	.byte	$60
	.byte	$A5
	.byte	$A5
	.byte	$60
	.byte	$61
	.byte	$60
	.byte	$61
	.byte	$60
	.byte	$A5
	.byte	$A5
	.byte	$61
	.byte	$61
	.byte	$60
	.byte	$60
	.byte	$61
	.byte	$A5
	.byte	$A5
	.byte	$60
	.byte	$61
	.byte	$60
	.byte	$60
	.byte	$00
	.byte	$00
	.byte	$84
	.byte	$91
	.byte	$82
	.byte	$95
	.byte	$00
	.byte	$00
	.byte	$A5
	.byte	$A5
	.byte	$A5
	.byte	$A5
	.byte	$A5
	.byte	$A5
	.byte	$A5
	.byte	$A5
	.byte	$A5
	.byte	$A5
	.byte	$A5
	.byte	$A5
	.byte	$A5
	.byte	$A5
	.byte	$A5
	.byte	$A5
	.byte	$A5
	.byte	$A5
	.byte	$A5
	.byte	$A5
	.byte	$A5
	.byte	$A5
	.byte	$A5
	.byte	$A5
	.byte	$00
	.byte	$00
	.byte	$94
	.byte	$91
	.byte	$92
	.byte	$90
	.byte	$80
	.byte	$81
	.byte	$80
	.byte	$80
	.byte	$81
	.byte	$80
	.byte	$72
	.byte	$73
	.byte	$80
	.byte	$81
	.byte	$80
	.byte	$72
	.byte	$73
	.byte	$80
	.byte	$81
	.byte	$80
	.byte	$80
	.byte	$81
	.byte	$80
	.byte	$81
	.byte	$72
	.byte	$73
	.byte	$80
	.byte	$81
	.byte	$80
	.byte	$81
	.byte	$80
	.byte	$81
	.byte	$90
	.byte	$91
	.byte	$90
	.byte	$91
	.byte	$90
	.byte	$91
	.byte	$92
	.byte	$90
	.byte	$91
	.byte	$63
	.byte	$62
	.byte	$91
	.byte	$91
	.byte	$91
	.byte	$90
	.byte	$91
	.byte	$91
	.byte	$90
	.byte	$91
	.byte	$92
	.byte	$90
	.byte	$91
	.byte	$90
	.byte	$91
	.byte	$90
	.byte	$91
	.byte	$62
	.byte	$91
	.byte	$90
	.byte	$92
	.byte	$82
	.byte	$83
	.byte	$90
	.byte	$91
	.byte	$AA
	.byte	$AA
	.byte	$AA
	.byte	$AA
	.byte	$AA
	.byte	$AA
	.byte	$AA
	.byte	$AA
	.byte	$22
	.byte	$20
	.byte	$AA
	.byte	$AA
	.byte	$AA
	.byte	$AA
	.byte	$80
	.byte	$88
	.byte	$22
	.byte	$22
	.byte	$2A
	.byte	$88
	.byte	$22
	.byte	$8A
	.byte	$88
	.byte	$88
	.byte	$32
	.byte	$00
	.byte	$A8
	.byte	$AA
	.byte	$AA
	.byte	$A2
	.byte	$00
	.byte	$F8
	.byte	$FF
	.byte	$3C
	.byte	$AF
	.byte	$A3
	.byte	$AC
	.byte	$AF
	.byte	$F3
	.byte	$FF
	.byte	$AA
	.byte	$A2
	.byte	$20
	.byte	$0A
	.byte	$0A
	.byte	$80
	.byte	$A8
	.byte	$AA
	.byte	$EA
	.byte	$AA
	.byte	$A2
	.byte	$A0
	.byte	$A0
	.byte	$A8
	.byte	$AA
	.byte	$BA
	.byte	$0A
	.byte	$0A
	.byte	$0A
	.byte	$0A
	.byte	$0A
	.byte	$0A
	.byte	$0A
	.byte	$0A
_settings:
	.byte	$00
	.byte	$00
	.byte	$00
	.byte	$00
	.byte	$00
	.byte	$00
	.byte	$00
	.byte	$00
	.byte	$00
	.byte	$00
	.byte	$00
	.byte	$00
	.byte	$00
	.byte	$00
	.byte	$00
	.byte	$00
	.byte	$00
	.byte	$00
	.byte	$00
	.byte	$00
	.byte	$00
	.byte	$00
	.byte	$00
	.byte	$00
	.byte	$00
	.byte	$00
	.byte	$00
	.byte	$00
	.byte	$00
	.byte	$00
	.byte	$00
	.byte	$00
	.byte	$00
	.byte	$C0
	.byte	$C1
	.byte	$C1
	.byte	$C2
	.byte	$C1
	.byte	$C1
	.byte	$E1
	.byte	$C1
	.byte	$C1
	.byte	$C5
	.byte	$E1
	.byte	$C1
	.byte	$C1
	.byte	$C1
	.byte	$C1
	.byte	$C1
	.byte	$C1
	.byte	$C1
	.byte	$C1
	.byte	$C2
	.byte	$C5
	.byte	$C1
	.byte	$C1
	.byte	$C1
	.byte	$F2
	.byte	$C1
	.byte	$C1
	.byte	$E2
	.byte	$C1
	.byte	$C4
	.byte	$00
	.byte	$00
	.byte	$F0
	.byte	$B6
	.byte	$B6
	.byte	$B6
	.byte	$B6
	.byte	$B6
	.byte	$B6
	.byte	$B6
	.byte	$B6
	.byte	$D0
	.byte	$B5
	.byte	$53
	.byte	$45
	.byte	$54
	.byte	$54
	.byte	$49
	.byte	$4E
	.byte	$47
	.byte	$53
	.byte	$B5
	.byte	$E0
	.byte	$B6
	.byte	$B6
	.byte	$B6
	.byte	$B6
	.byte	$B6
	.byte	$B6
	.byte	$B6
	.byte	$B6
	.byte	$F0
	.byte	$00
	.byte	$00
	.byte	$C3
	.byte	$B6
	.byte	$B6
	.byte	$B6
	.byte	$B6
	.byte	$B6
	.byte	$B6
	.byte	$B6
	.byte	$B6
	.byte	$D3
	.byte	$C1
	.byte	$C1
	.byte	$C1
	.byte	$C1
	.byte	$C1
	.byte	$C1
	.byte	$C1
	.byte	$C1
	.byte	$C1
	.byte	$C1
	.byte	$D4
	.byte	$B6
	.byte	$B6
	.byte	$B6
	.byte	$B6
	.byte	$B6
	.byte	$B6
	.byte	$B6
	.byte	$B6
	.byte	$D0
	.byte	$00
	.byte	$00
	.byte	$C3
	.byte	$B6
	.byte	$B6
	.byte	$B6
	.byte	$B6
	.byte	$B6
	.byte	$B6
	.byte	$B6
	.byte	$B6
	.byte	$B6
	.byte	$B6
	.byte	$B6
	.byte	$B6
	.byte	$B6
	.byte	$B6
	.byte	$B6
	.byte	$B6
	.byte	$B6
	.byte	$B6
	.byte	$B6
	.byte	$B6
	.byte	$B6
	.byte	$B6
	.byte	$B6
	.byte	$B6
	.byte	$B6
	.byte	$B6
	.byte	$B6
	.byte	$B6
	.byte	$F0
	.byte	$00
	.byte	$00
	.byte	$F0
	.byte	$B6
	.byte	$B6
	.byte	$B6
	.byte	$B6
	.byte	$B6
	.byte	$B6
	.byte	$B6
	.byte	$B6
	.byte	$B6
	.byte	$B6
	.byte	$B6
	.byte	$B6
	.byte	$B6
	.byte	$B6
	.byte	$B6
	.byte	$B6
	.byte	$B6
	.byte	$B6
	.byte	$B6
	.byte	$B6
	.byte	$B6
	.byte	$B6
	.byte	$B6
	.byte	$B6
	.byte	$B6
	.byte	$B6
	.byte	$B6
	.byte	$B6
	.byte	$F0
	.byte	$00
	.byte	$00
	.byte	$C3
	.byte	$B6
	.byte	$B6
	.byte	$B6
	.byte	$B6
	.byte	$B6
	.byte	$B6
	.byte	$B6
	.byte	$B6
	.byte	$B6
	.byte	$B6
	.byte	$B6
	.byte	$B6
	.byte	$B6
	.byte	$B6
	.byte	$B6
	.byte	$B6
	.byte	$B6
	.byte	$B6
	.byte	$B6
	.byte	$B6
	.byte	$B6
	.byte	$B6
	.byte	$B6
	.byte	$B6
	.byte	$B6
	.byte	$B6
	.byte	$B6
	.byte	$B6
	.byte	$C3
	.byte	$00
	.byte	$00
	.byte	$E0
	.byte	$B6
	.byte	$B6
	.byte	$B6
	.byte	$B6
	.byte	$B6
	.byte	$B6
	.byte	$B6
	.byte	$B6
	.byte	$B6
	.byte	$B6
	.byte	$B6
	.byte	$B6
	.byte	$B6
	.byte	$B6
	.byte	$B6
	.byte	$B6
	.byte	$B6
	.byte	$B6
	.byte	$B6
	.byte	$B6
	.byte	$B6
	.byte	$B6
	.byte	$B6
	.byte	$B6
	.byte	$B6
	.byte	$B6
	.byte	$B6
	.byte	$B6
	.byte	$D0
	.byte	$00
	.byte	$00
	.byte	$D0
	.byte	$B6
	.byte	$B6
	.byte	$B6
	.byte	$B6
	.byte	$B6
	.byte	$B6
	.byte	$B6
	.byte	$B6
	.byte	$B6
	.byte	$B6
	.byte	$B6
	.byte	$B6
	.byte	$B6
	.byte	$B6
	.byte	$B6
	.byte	$B6
	.byte	$B6
	.byte	$B6
	.byte	$B6
	.byte	$B6
	.byte	$B6
	.byte	$B6
	.byte	$B6
	.byte	$B6
	.byte	$B6
	.byte	$B6
	.byte	$B6
	.byte	$B6
	.byte	$C3
	.byte	$00
	.byte	$00
	.byte	$F0
	.byte	$B6
	.byte	$B6
	.byte	$B6
	.byte	$B6
	.byte	$B6
	.byte	$B6
	.byte	$B6
	.byte	$B6
	.byte	$B6
	.byte	$B6
	.byte	$B6
	.byte	$B6
	.byte	$B6
	.byte	$B6
	.byte	$B6
	.byte	$B6
	.byte	$B6
	.byte	$B6
	.byte	$B6
	.byte	$B6
	.byte	$B6
	.byte	$B6
	.byte	$B6
	.byte	$B6
	.byte	$B6
	.byte	$B6
	.byte	$B6
	.byte	$B6
	.byte	$E0
	.byte	$00
	.byte	$00
	.byte	$F0
	.byte	$B6
	.byte	$B6
	.byte	$B6
	.byte	$B6
	.byte	$B6
	.byte	$B6
	.byte	$B6
	.byte	$B6
	.byte	$B6
	.byte	$B6
	.byte	$B6
	.byte	$B6
	.byte	$B6
	.byte	$B6
	.byte	$B6
	.byte	$B6
	.byte	$B6
	.byte	$B6
	.byte	$B6
	.byte	$B6
	.byte	$B6
	.byte	$B6
	.byte	$B6
	.byte	$B6
	.byte	$B6
	.byte	$B6
	.byte	$B6
	.byte	$B6
	.byte	$C3
	.byte	$00
	.byte	$00
	.byte	$F0
	.byte	$B6
	.byte	$B6
	.byte	$B6
	.byte	$B6
	.byte	$B6
	.byte	$B6
	.byte	$B6
	.byte	$B6
	.byte	$B6
	.byte	$B6
	.byte	$B6
	.byte	$B6
	.byte	$B6
	.byte	$B6
	.byte	$B6
	.byte	$B6
	.byte	$B6
	.byte	$B6
	.byte	$B6
	.byte	$B6
	.byte	$B6
	.byte	$B6
	.byte	$B6
	.byte	$B6
	.byte	$B6
	.byte	$B6
	.byte	$B6
	.byte	$B6
	.byte	$F0
	.byte	$00
	.byte	$00
	.byte	$F0
	.byte	$B6
	.byte	$B6
	.byte	$B6
	.byte	$B6
	.byte	$B6
	.byte	$B6
	.byte	$B6
	.byte	$B6
	.byte	$B6
	.byte	$B6
	.byte	$B6
	.byte	$B6
	.byte	$B6
	.byte	$B6
	.byte	$B6
	.byte	$B6
	.byte	$B6
	.byte	$B6
	.byte	$B6
	.byte	$B6
	.byte	$B6
	.byte	$B6
	.byte	$B6
	.byte	$B6
	.byte	$B6
	.byte	$B6
	.byte	$B6
	.byte	$B6
	.byte	$F0
	.byte	$00
	.byte	$00
	.byte	$F0
	.byte	$B6
	.byte	$B6
	.byte	$B6
	.byte	$B6
	.byte	$B6
	.byte	$B6
	.byte	$B6
	.byte	$B6
	.byte	$B6
	.byte	$B6
	.byte	$B6
	.byte	$B6
	.byte	$B6
	.byte	$B6
	.byte	$B6
	.byte	$B6
	.byte	$B6
	.byte	$B6
	.byte	$B6
	.byte	$B6
	.byte	$B6
	.byte	$B6
	.byte	$B6
	.byte	$B6
	.byte	$B6
	.byte	$B6
	.byte	$B6
	.byte	$B6
	.byte	$F0
	.byte	$00
	.byte	$00
	.byte	$F0
	.byte	$B6
	.byte	$B6
	.byte	$B6
	.byte	$B6
	.byte	$B6
	.byte	$B6
	.byte	$B6
	.byte	$B6
	.byte	$B6
	.byte	$B6
	.byte	$B6
	.byte	$B6
	.byte	$B6
	.byte	$B6
	.byte	$B6
	.byte	$B6
	.byte	$B6
	.byte	$B6
	.byte	$B6
	.byte	$B6
	.byte	$B6
	.byte	$B6
	.byte	$B6
	.byte	$B6
	.byte	$B6
	.byte	$B6
	.byte	$B6
	.byte	$B6
	.byte	$F0
	.byte	$00
	.byte	$00
	.byte	$F0
	.byte	$B6
	.byte	$B6
	.byte	$B6
	.byte	$B6
	.byte	$B6
	.byte	$B6
	.byte	$B6
	.byte	$B6
	.byte	$B6
	.byte	$B6
	.byte	$B6
	.byte	$B6
	.byte	$B6
	.byte	$B6
	.byte	$B6
	.byte	$B6
	.byte	$B6
	.byte	$B6
	.byte	$B6
	.byte	$B6
	.byte	$B6
	.byte	$B6
	.byte	$B6
	.byte	$B6
	.byte	$B6
	.byte	$B6
	.byte	$B6
	.byte	$B6
	.byte	$F0
	.byte	$00
	.byte	$00
	.byte	$F0
	.byte	$B6
	.byte	$B6
	.byte	$B6
	.byte	$B6
	.byte	$B6
	.byte	$B6
	.byte	$B6
	.byte	$B6
	.byte	$B6
	.byte	$B6
	.byte	$B6
	.byte	$B6
	.byte	$B6
	.byte	$B6
	.byte	$B6
	.byte	$B6
	.byte	$B6
	.byte	$B6
	.byte	$B6
	.byte	$B6
	.byte	$B6
	.byte	$B6
	.byte	$B6
	.byte	$B6
	.byte	$B6
	.byte	$B6
	.byte	$B6
	.byte	$B6
	.byte	$E0
	.byte	$00
	.byte	$00
	.byte	$D0
	.byte	$B6
	.byte	$B6
	.byte	$B6
	.byte	$B6
	.byte	$B6
	.byte	$B6
	.byte	$B6
	.byte	$B6
	.byte	$B6
	.byte	$B6
	.byte	$B6
	.byte	$B6
	.byte	$B6
	.byte	$B6
	.byte	$B6
	.byte	$B6
	.byte	$B6
	.byte	$B6
	.byte	$B6
	.byte	$B6
	.byte	$B6
	.byte	$B6
	.byte	$B6
	.byte	$B6
	.byte	$B6
	.byte	$B6
	.byte	$B6
	.byte	$B6
	.byte	$F0
	.byte	$00
	.byte	$00
	.byte	$E0
	.byte	$B6
	.byte	$B6
	.byte	$B6
	.byte	$B6
	.byte	$B6
	.byte	$B6
	.byte	$B6
	.byte	$B6
	.byte	$B6
	.byte	$B6
	.byte	$B6
	.byte	$B6
	.byte	$B6
	.byte	$B6
	.byte	$B6
	.byte	$B6
	.byte	$B6
	.byte	$B6
	.byte	$B6
	.byte	$B6
	.byte	$B6
	.byte	$B6
	.byte	$B6
	.byte	$B6
	.byte	$B6
	.byte	$B6
	.byte	$B6
	.byte	$B6
	.byte	$F0
	.byte	$00
	.byte	$00
	.byte	$F0
	.byte	$B6
	.byte	$B6
	.byte	$B6
	.byte	$B6
	.byte	$B6
	.byte	$B6
	.byte	$B6
	.byte	$B6
	.byte	$B6
	.byte	$B6
	.byte	$B6
	.byte	$B6
	.byte	$B6
	.byte	$B6
	.byte	$B6
	.byte	$B6
	.byte	$B6
	.byte	$B6
	.byte	$B6
	.byte	$B6
	.byte	$B6
	.byte	$B6
	.byte	$B6
	.byte	$B6
	.byte	$B6
	.byte	$B6
	.byte	$B6
	.byte	$B6
	.byte	$F0
	.byte	$00
	.byte	$00
	.byte	$F0
	.byte	$B6
	.byte	$B6
	.byte	$B6
	.byte	$B6
	.byte	$B6
	.byte	$B6
	.byte	$B6
	.byte	$B6
	.byte	$B6
	.byte	$B6
	.byte	$B6
	.byte	$B6
	.byte	$B6
	.byte	$B6
	.byte	$B6
	.byte	$B6
	.byte	$B6
	.byte	$B6
	.byte	$B6
	.byte	$B6
	.byte	$B6
	.byte	$B6
	.byte	$B6
	.byte	$B6
	.byte	$B6
	.byte	$B6
	.byte	$B6
	.byte	$B6
	.byte	$D0
	.byte	$00
	.byte	$00
	.byte	$C3
	.byte	$B6
	.byte	$B6
	.byte	$B6
	.byte	$B6
	.byte	$B6
	.byte	$B6
	.byte	$B6
	.byte	$B6
	.byte	$B6
	.byte	$B6
	.byte	$B6
	.byte	$B6
	.byte	$B6
	.byte	$B6
	.byte	$B6
	.byte	$B6
	.byte	$B6
	.byte	$B6
	.byte	$B6
	.byte	$B6
	.byte	$B6
	.byte	$B6
	.byte	$B6
	.byte	$B6
	.byte	$B6
	.byte	$B6
	.byte	$B6
	.byte	$B6
	.byte	$E0
	.byte	$00
	.byte	$00
	.byte	$C3
	.byte	$B6
	.byte	$B6
	.byte	$B6
	.byte	$B6
	.byte	$B6
	.byte	$B6
	.byte	$B6
	.byte	$B6
	.byte	$B6
	.byte	$B6
	.byte	$B6
	.byte	$B6
	.byte	$B6
	.byte	$B6
	.byte	$B6
	.byte	$B6
	.byte	$B6
	.byte	$B6
	.byte	$B6
	.byte	$B6
	.byte	$B6
	.byte	$B6
	.byte	$B6
	.byte	$B6
	.byte	$B6
	.byte	$B6
	.byte	$B6
	.byte	$B6
	.byte	$F0
	.byte	$00
	.byte	$00
	.byte	$F0
	.byte	$B6
	.byte	$B6
	.byte	$B6
	.byte	$B6
	.byte	$B6
	.byte	$B6
	.byte	$B6
	.byte	$B6
	.byte	$B6
	.byte	$B6
	.byte	$B6
	.byte	$B6
	.byte	$B6
	.byte	$B6
	.byte	$B6
	.byte	$B6
	.byte	$B6
	.byte	$B6
	.byte	$B6
	.byte	$B6
	.byte	$B6
	.byte	$B6
	.byte	$B6
	.byte	$B6
	.byte	$B6
	.byte	$B6
	.byte	$B6
	.byte	$B6
	.byte	$F0
	.byte	$00
	.byte	$00
	.byte	$F0
	.byte	$B6
	.byte	$B6
	.byte	$B6
	.byte	$B6
	.byte	$B6
	.byte	$B6
	.byte	$B6
	.byte	$B6
	.byte	$B6
	.byte	$B6
	.byte	$B6
	.byte	$B6
	.byte	$B6
	.byte	$B6
	.byte	$B6
	.byte	$B6
	.byte	$B6
	.byte	$B6
	.byte	$B6
	.byte	$B6
	.byte	$B6
	.byte	$B6
	.byte	$B6
	.byte	$B6
	.byte	$B6
	.byte	$B6
	.byte	$B6
	.byte	$B6
	.byte	$C3
	.byte	$00
	.byte	$00
	.byte	$D0
	.byte	$B6
	.byte	$B6
	.byte	$B6
	.byte	$B6
	.byte	$B6
	.byte	$B6
	.byte	$B6
	.byte	$B6
	.byte	$B6
	.byte	$B6
	.byte	$B6
	.byte	$B6
	.byte	$B6
	.byte	$B6
	.byte	$B6
	.byte	$B6
	.byte	$B6
	.byte	$B6
	.byte	$B6
	.byte	$B6
	.byte	$B6
	.byte	$B6
	.byte	$B6
	.byte	$B6
	.byte	$B6
	.byte	$B6
	.byte	$B6
	.byte	$B6
	.byte	$F0
	.byte	$00
	.byte	$00
	.byte	$F0
	.byte	$B6
	.byte	$B6
	.byte	$B6
	.byte	$B6
	.byte	$B6
	.byte	$B6
	.byte	$B6
	.byte	$B6
	.byte	$B6
	.byte	$B6
	.byte	$B6
	.byte	$B6
	.byte	$B6
	.byte	$B6
	.byte	$B6
	.byte	$B6
	.byte	$B6
	.byte	$B6
	.byte	$B6
	.byte	$B6
	.byte	$B6
	.byte	$B6
	.byte	$B6
	.byte	$B6
	.byte	$B6
	.byte	$B6
	.byte	$B6
	.byte	$B6
	.byte	$C3
	.byte	$00
	.byte	$00
	.byte	$F0
	.byte	$B6
	.byte	$B6
	.byte	$B6
	.byte	$B6
	.byte	$B6
	.byte	$B6
	.byte	$B6
	.byte	$B6
	.byte	$B6
	.byte	$B6
	.byte	$B6
	.byte	$B6
	.byte	$B6
	.byte	$B6
	.byte	$B6
	.byte	$B6
	.byte	$B6
	.byte	$B6
	.byte	$B6
	.byte	$B6
	.byte	$B4
	.byte	$B6
	.byte	$B6
	.byte	$B6
	.byte	$B6
	.byte	$B6
	.byte	$B6
	.byte	$B6
	.byte	$F0
	.byte	$00
	.byte	$00
	.byte	$D3
	.byte	$A0
	.byte	$A1
	.byte	$C2
	.byte	$C1
	.byte	$F2
	.byte	$C1
	.byte	$C1
	.byte	$E1
	.byte	$E2
	.byte	$E1
	.byte	$E2
	.byte	$C1
	.byte	$C1
	.byte	$C1
	.byte	$C1
	.byte	$C1
	.byte	$C1
	.byte	$C1
	.byte	$C1
	.byte	$C1
	.byte	$D5
	.byte	$C1
	.byte	$A0
	.byte	$A1
	.byte	$C1
	.byte	$E1
	.byte	$E2
	.byte	$C1
	.byte	$D4
	.byte	$00
	.byte	$00
	.byte	$00
	.byte	$B0
	.byte	$B1
	.byte	$00
	.byte	$00
	.byte	$00
	.byte	$00
	.byte	$00
	.byte	$00
	.byte	$00
	.byte	$00
	.byte	$00
	.byte	$00
	.byte	$00
	.byte	$00
	.byte	$00
	.byte	$00
	.byte	$00
	.byte	$00
	.byte	$00
	.byte	$00
	.byte	$00
	.byte	$00
	.byte	$B0
	.byte	$B1
	.byte	$00
	.byte	$00
	.byte	$00
	.byte	$00
	.byte	$00
	.byte	$00
	.byte	$3A
	.byte	$0A
	.byte	$8A
	.byte	$AA
	.byte	$AA
	.byte	$29
	.byte	$0B
	.byte	$8A
	.byte	$13
	.byte	$00
	.byte	$00
	.byte	$00
	.byte	$00
	.byte	$00
	.byte	$00
	.byte	$88
	.byte	$22
	.byte	$00
	.byte	$00
	.byte	$00
	.byte	$00
	.byte	$00
	.byte	$00
	.byte	$8C
	.byte	$22
	.byte	$00
	.byte	$00
	.byte	$00
	.byte	$00
	.byte	$00
	.byte	$00
	.byte	$88
	.byte	$22
	.byte	$00
	.byte	$00
	.byte	$00
	.byte	$00
	.byte	$00
	.byte	$00
	.byte	$88
	.byte	$22
	.byte	$00
	.byte	$00
	.byte	$00
	.byte	$00
	.byte	$00
	.byte	$00
	.byte	$88
	.byte	$22
	.byte	$00
	.byte	$00
	.byte	$00
	.byte	$00
	.byte	$00
	.byte	$00
	.byte	$C8
	.byte	$0A
	.byte	$09
	.byte	$0A
	.byte	$0A
	.byte	$0A
	.byte	$06
	.byte	$0A
	.byte	$0A
_title:
	.byte	$BE
	.byte	$BF
	.byte	$8C
	.byte	$B6
	.byte	$B6
	.byte	$B6
	.byte	$A7
	.byte	$B6
	.byte	$B6
	.byte	$B6
	.byte	$B6
	.byte	$B6
	.byte	$B6
	.byte	$B6
	.byte	$B6
	.byte	$B6
	.byte	$BA
	.byte	$B6
	.byte	$B6
	.byte	$B6
	.byte	$B6
	.byte	$B6
	.byte	$B6
	.byte	$B6
	.byte	$B6
	.byte	$B6
	.byte	$B6
	.byte	$A9
	.byte	$A7
	.byte	$BE
	.byte	$CD
	.byte	$BF
	.byte	$CE
	.byte	$CF
	.byte	$B6
	.byte	$B6
	.byte	$B6
	.byte	$B6
	.byte	$B6
	.byte	$BA
	.byte	$B6
	.byte	$B6
	.byte	$B6
	.byte	$B8
	.byte	$B6
	.byte	$B6
	.byte	$B6
	.byte	$B6
	.byte	$B6
	.byte	$B6
	.byte	$B6
	.byte	$B8
	.byte	$B6
	.byte	$B6
	.byte	$B6
	.byte	$B6
	.byte	$B6
	.byte	$B8
	.byte	$B6
	.byte	$B6
	.byte	$B6
	.byte	$DE
	.byte	$BB
	.byte	$CF
	.byte	$DE
	.byte	$DF
	.byte	$B6
	.byte	$B6
	.byte	$B6
	.byte	$B6
	.byte	$B6
	.byte	$B6
	.byte	$B6
	.byte	$B6
	.byte	$BA
	.byte	$B6
	.byte	$B6
	.byte	$B6
	.byte	$B6
	.byte	$B6
	.byte	$B6
	.byte	$B6
	.byte	$B6
	.byte	$B6
	.byte	$B6
	.byte	$B6
	.byte	$B6
	.byte	$B6
	.byte	$B6
	.byte	$B6
	.byte	$B6
	.byte	$B6
	.byte	$B6
	.byte	$B6
	.byte	$DE
	.byte	$DF
	.byte	$BE
	.byte	$D7
	.byte	$B6
	.byte	$B6
	.byte	$B6
	.byte	$8D
	.byte	$B6
	.byte	$B6
	.byte	$9C
	.byte	$B6
	.byte	$DA
	.byte	$BF
	.byte	$BE
	.byte	$D7
	.byte	$B6
	.byte	$BE
	.byte	$D7
	.byte	$B6
	.byte	$9C
	.byte	$B6
	.byte	$A7
	.byte	$9C
	.byte	$A7
	.byte	$B6
	.byte	$BE
	.byte	$E7
	.byte	$BF
	.byte	$B6
	.byte	$B6
	.byte	$B6
	.byte	$B6
	.byte	$99
	.byte	$DE
	.byte	$D8
	.byte	$BA
	.byte	$B6
	.byte	$B6
	.byte	$A7
	.byte	$B6
	.byte	$B6
	.byte	$8D
	.byte	$B6
	.byte	$DE
	.byte	$D8
	.byte	$D9
	.byte	$DF
	.byte	$B6
	.byte	$DE
	.byte	$DB
	.byte	$D7
	.byte	$8D
	.byte	$B6
	.byte	$A7
	.byte	$B6
	.byte	$B6
	.byte	$B6
	.byte	$D9
	.byte	$DD
	.byte	$D8
	.byte	$B6
	.byte	$BA
	.byte	$B6
	.byte	$B6
	.byte	$B6
	.byte	$8F
	.byte	$B6
	.byte	$B6
	.byte	$B6
	.byte	$B6
	.byte	$A7
	.byte	$F8
	.byte	$F9
	.byte	$A7
	.byte	$B6
	.byte	$9C
	.byte	$B6
	.byte	$B6
	.byte	$8F
	.byte	$B6
	.byte	$8D
	.byte	$D9
	.byte	$DB
	.byte	$BF
	.byte	$B6
	.byte	$A7
	.byte	$9C
	.byte	$A7
	.byte	$B6
	.byte	$B6
	.byte	$EB
	.byte	$B6
	.byte	$B6
	.byte	$B6
	.byte	$B6
	.byte	$B6
	.byte	$B6
	.byte	$B6
	.byte	$B6
	.byte	$BA
	.byte	$B6
	.byte	$B6
	.byte	$9E
	.byte	$B6
	.byte	$B6
	.byte	$9D
	.byte	$B6
	.byte	$BE
	.byte	$D7
	.byte	$DA
	.byte	$BF
	.byte	$B6
	.byte	$A7
	.byte	$B6
	.byte	$D9
	.byte	$DF
	.byte	$B6
	.byte	$A7
	.byte	$B6
	.byte	$B6
	.byte	$B6
	.byte	$B6
	.byte	$FB
	.byte	$B6
	.byte	$B6
	.byte	$B6
	.byte	$B6
	.byte	$B8
	.byte	$B6
	.byte	$B6
	.byte	$B6
	.byte	$B6
	.byte	$B6
	.byte	$B6
	.byte	$A7
	.byte	$B6
	.byte	$B6
	.byte	$A7
	.byte	$B4
	.byte	$D9
	.byte	$DF
	.byte	$DE
	.byte	$D8
	.byte	$B6
	.byte	$8F
	.byte	$B6
	.byte	$B6
	.byte	$8E
	.byte	$B6
	.byte	$A7
	.byte	$A7
	.byte	$9F
	.byte	$B6
	.byte	$B6
	.byte	$8F
	.byte	$B6
	.byte	$B6
	.byte	$B6
	.byte	$B6
	.byte	$B6
	.byte	$B6
	.byte	$B6
	.byte	$AB
	.byte	$B6
	.byte	$B6
	.byte	$D2
	.byte	$E1
	.byte	$C1
	.byte	$C1
	.byte	$C1
	.byte	$D5
	.byte	$C1
	.byte	$E2
	.byte	$C1
	.byte	$E2
	.byte	$C1
	.byte	$C1
	.byte	$C1
	.byte	$E2
	.byte	$C1
	.byte	$E2
	.byte	$C1
	.byte	$C1
	.byte	$E1
	.byte	$C1
	.byte	$C1
	.byte	$E1
	.byte	$E2
	.byte	$D1
	.byte	$B6
	.byte	$B6
	.byte	$BA
	.byte	$B6
	.byte	$B6
	.byte	$B6
	.byte	$B6
	.byte	$B6
	.byte	$A4
	.byte	$A4
	.byte	$A4
	.byte	$A4
	.byte	$A4
	.byte	$A4
	.byte	$A4
	.byte	$A4
	.byte	$A4
	.byte	$A4
	.byte	$A4
	.byte	$A4
	.byte	$A4
	.byte	$A4
	.byte	$A4
	.byte	$A4
	.byte	$A4
	.byte	$A4
	.byte	$A4
	.byte	$A4
	.byte	$A4
	.byte	$A4
	.byte	$A4
	.byte	$A4
	.byte	$B6
	.byte	$B6
	.byte	$B6
	.byte	$B6
	.byte	$B6
	.byte	$B6
	.byte	$B6
	.byte	$B6
	.byte	$B9
	.byte	$B8
	.byte	$B6
	.byte	$B6
	.byte	$B9
	.byte	$B6
	.byte	$B9
	.byte	$B6
	.byte	$B6
	.byte	$B6
	.byte	$B6
	.byte	$B6
	.byte	$B6
	.byte	$B6
	.byte	$B6
	.byte	$B6
	.byte	$B6
	.byte	$B6
	.byte	$B6
	.byte	$B6
	.byte	$B6
	.byte	$B6
	.byte	$B6
	.byte	$B6
	.byte	$B7
	.byte	$B6
	.byte	$B6
	.byte	$B6
	.byte	$B6
	.byte	$B6
	.byte	$B6
	.byte	$B6
	.byte	$B6
	.byte	$B6
	.byte	$B6
	.byte	$B6
	.byte	$B6
	.byte	$B6
	.byte	$B6
	.byte	$B6
	.byte	$B6
	.byte	$B6
	.byte	$B6
	.byte	$B9
	.byte	$B6
	.byte	$B6
	.byte	$B6
	.byte	$B6
	.byte	$B6
	.byte	$B6
	.byte	$B6
	.byte	$B6
	.byte	$B6
	.byte	$B6
	.byte	$B6
	.byte	$B6
	.byte	$B6
	.byte	$B6
	.byte	$B6
	.byte	$B6
	.byte	$B6
	.byte	$B6
	.byte	$A7
	.byte	$B6
	.byte	$B6
	.byte	$B6
	.byte	$A7
	.byte	$B6
	.byte	$A7
	.byte	$F8
	.byte	$F9
	.byte	$A7
	.byte	$B6
	.byte	$A7
	.byte	$A7
	.byte	$A7
	.byte	$AB
	.byte	$A7
	.byte	$B6
	.byte	$DA
	.byte	$BF
	.byte	$A7
	.byte	$BE
	.byte	$D7
	.byte	$B6
	.byte	$A7
	.byte	$A7
	.byte	$A7
	.byte	$A7
	.byte	$A7
	.byte	$B6
	.byte	$B6
	.byte	$B6
	.byte	$B6
	.byte	$EB
	.byte	$B6
	.byte	$B7
	.byte	$B6
	.byte	$EB
	.byte	$B6
	.byte	$A7
	.byte	$B6
	.byte	$B6
	.byte	$B6
	.byte	$B6
	.byte	$B6
	.byte	$B6
	.byte	$EB
	.byte	$B6
	.byte	$B6
	.byte	$B6
	.byte	$DE
	.byte	$D8
	.byte	$B6
	.byte	$D9
	.byte	$DF
	.byte	$B6
	.byte	$B6
	.byte	$B6
	.byte	$A7
	.byte	$B6
	.byte	$B6
	.byte	$B6
	.byte	$B6
	.byte	$B6
	.byte	$B6
	.byte	$FB
	.byte	$B6
	.byte	$B6
	.byte	$B6
	.byte	$FB
	.byte	$B6
	.byte	$A7
	.byte	$B6
	.byte	$B6
	.byte	$B6
	.byte	$B6
	.byte	$B6
	.byte	$B6
	.byte	$FB
	.byte	$B6
	.byte	$B6
	.byte	$B6
	.byte	$BE
	.byte	$D7
	.byte	$B6
	.byte	$B6
	.byte	$B6
	.byte	$B6
	.byte	$B6
	.byte	$B6
	.byte	$EB
	.byte	$B6
	.byte	$B6
	.byte	$B6
	.byte	$B6
	.byte	$B6
	.byte	$B6
	.byte	$A8
	.byte	$A7
	.byte	$A7
	.byte	$A7
	.byte	$A9
	.byte	$B6
	.byte	$A7
	.byte	$A7
	.byte	$A7
	.byte	$B6
	.byte	$B9
	.byte	$B6
	.byte	$B6
	.byte	$A7
	.byte	$B6
	.byte	$B6
	.byte	$B6
	.byte	$D9
	.byte	$DF
	.byte	$A9
	.byte	$BE
	.byte	$D7
	.byte	$B6
	.byte	$B6
	.byte	$B6
	.byte	$FB
	.byte	$B6
	.byte	$B6
	.byte	$B6
	.byte	$B6
	.byte	$B6
	.byte	$B6
	.byte	$A7
	.byte	$B6
	.byte	$B6
	.byte	$B6
	.byte	$A7
	.byte	$B6
	.byte	$A7
	.byte	$B6
	.byte	$B6
	.byte	$B6
	.byte	$B6
	.byte	$B6
	.byte	$B6
	.byte	$99
	.byte	$B6
	.byte	$B6
	.byte	$B6
	.byte	$B6
	.byte	$B6
	.byte	$B6
	.byte	$D9
	.byte	$DF
	.byte	$B7
	.byte	$B6
	.byte	$B6
	.byte	$A7
	.byte	$B6
	.byte	$B7
	.byte	$B6
	.byte	$B6
	.byte	$B6
	.byte	$B6
	.byte	$EB
	.byte	$B6
	.byte	$B6
	.byte	$B6
	.byte	$EB
	.byte	$B6
	.byte	$EB
	.byte	$B6
	.byte	$B9
	.byte	$B6
	.byte	$B6
	.byte	$B6
	.byte	$B6
	.byte	$EB
	.byte	$B6
	.byte	$B6
	.byte	$B6
	.byte	$B6
	.byte	$B6
	.byte	$B6
	.byte	$B6
	.byte	$A7
	.byte	$B6
	.byte	$B6
	.byte	$B6
	.byte	$EB
	.byte	$B6
	.byte	$B6
	.byte	$B6
	.byte	$B6
	.byte	$B6
	.byte	$B6
	.byte	$FB
	.byte	$B6
	.byte	$B8
	.byte	$B6
	.byte	$FB
	.byte	$B6
	.byte	$FB
	.byte	$B6
	.byte	$B6
	.byte	$B6
	.byte	$B6
	.byte	$B6
	.byte	$B6
	.byte	$FB
	.byte	$B6
	.byte	$B6
	.byte	$B6
	.byte	$BE
	.byte	$D7
	.byte	$B6
	.byte	$DA
	.byte	$BF
	.byte	$B6
	.byte	$B6
	.byte	$B6
	.byte	$FB
	.byte	$B6
	.byte	$B6
	.byte	$B6
	.byte	$B6
	.byte	$B8
	.byte	$B6
	.byte	$A7
	.byte	$B6
	.byte	$B6
	.byte	$B6
	.byte	$A7
	.byte	$B6
	.byte	$A7
	.byte	$F8
	.byte	$F9
	.byte	$A7
	.byte	$B6
	.byte	$A7
	.byte	$A7
	.byte	$A7
	.byte	$A7
	.byte	$A7
	.byte	$B6
	.byte	$D9
	.byte	$DF
	.byte	$A7
	.byte	$DE
	.byte	$D8
	.byte	$B6
	.byte	$B4
	.byte	$B6
	.byte	$A7
	.byte	$B6
	.byte	$B6
	.byte	$B6
	.byte	$B6
	.byte	$A4
	.byte	$D2
	.byte	$E2
	.byte	$C1
	.byte	$C1
	.byte	$C1
	.byte	$E1
	.byte	$E2
	.byte	$C1
	.byte	$C1
	.byte	$E1
	.byte	$C1
	.byte	$C1
	.byte	$C1
	.byte	$C1
	.byte	$C1
	.byte	$E2
	.byte	$C1
	.byte	$C1
	.byte	$C1
	.byte	$E2
	.byte	$C1
	.byte	$C1
	.byte	$C1
	.byte	$C1
	.byte	$D5
	.byte	$C1
	.byte	$C1
	.byte	$C1
	.byte	$E1
	.byte	$D1
	.byte	$A4
	.byte	$A4
	.byte	$A4
	.byte	$A4
	.byte	$A4
	.byte	$A4
	.byte	$A4
	.byte	$A4
	.byte	$A4
	.byte	$A4
	.byte	$A4
	.byte	$A4
	.byte	$A4
	.byte	$A4
	.byte	$A4
	.byte	$A4
	.byte	$A4
	.byte	$A4
	.byte	$A4
	.byte	$A4
	.byte	$A4
	.byte	$A4
	.byte	$A4
	.byte	$A4
	.byte	$A4
	.byte	$A4
	.byte	$A4
	.byte	$A4
	.byte	$A4
	.byte	$A4
	.byte	$A4
	.byte	$A4
	.byte	$A4
	.byte	$B6
	.byte	$B6
	.byte	$B6
	.byte	$B6
	.byte	$B8
	.byte	$B8
	.byte	$B6
	.byte	$B8
	.byte	$B6
	.byte	$B6
	.byte	$B6
	.byte	$B6
	.byte	$B6
	.byte	$B6
	.byte	$B6
	.byte	$B6
	.byte	$B6
	.byte	$B6
	.byte	$B6
	.byte	$B6
	.byte	$B6
	.byte	$B6
	.byte	$B6
	.byte	$B6
	.byte	$B6
	.byte	$B6
	.byte	$AB
	.byte	$B6
	.byte	$B6
	.byte	$B6
	.byte	$B6
	.byte	$A7
	.byte	$B6
	.byte	$99
	.byte	$B6
	.byte	$B6
	.byte	$B6
	.byte	$B6
	.byte	$B6
	.byte	$B8
	.byte	$B6
	.byte	$B5
	.byte	$50
	.byte	$52
	.byte	$45
	.byte	$53
	.byte	$53
	.byte	$B6
	.byte	$B6
	.byte	$53
	.byte	$54
	.byte	$41
	.byte	$52
	.byte	$54
	.byte	$B5
	.byte	$B6
	.byte	$B6
	.byte	$B6
	.byte	$B6
	.byte	$B6
	.byte	$B6
	.byte	$B6
	.byte	$B6
	.byte	$B6
	.byte	$B6
	.byte	$B6
	.byte	$B6
	.byte	$A9
	.byte	$BE
	.byte	$D7
	.byte	$B6
	.byte	$B6
	.byte	$B6
	.byte	$B6
	.byte	$B6
	.byte	$B6
	.byte	$B6
	.byte	$B6
	.byte	$B6
	.byte	$B6
	.byte	$B6
	.byte	$B6
	.byte	$B6
	.byte	$B6
	.byte	$B6
	.byte	$B6
	.byte	$B6
	.byte	$B6
	.byte	$B6
	.byte	$B6
	.byte	$B6
	.byte	$B6
	.byte	$BE
	.byte	$BF
	.byte	$B6
	.byte	$B6
	.byte	$B6
	.byte	$B6
	.byte	$B6
	.byte	$B6
	.byte	$DE
	.byte	$DF
	.byte	$B6
	.byte	$3B
	.byte	$32
	.byte	$30
	.byte	$32
	.byte	$35
	.byte	$B6
	.byte	$42
	.byte	$52
	.byte	$49
	.byte	$41
	.byte	$4E
	.byte	$B6
	.byte	$3C
	.byte	$B6
	.byte	$41
	.byte	$4C
	.byte	$41
	.byte	$4E
	.byte	$B6
	.byte	$B6
	.byte	$B6
	.byte	$CE
	.byte	$CF
	.byte	$B6
	.byte	$B6
	.byte	$B6
	.byte	$B6
	.byte	$B6
	.byte	$B6
	.byte	$B6
	.byte	$B6
	.byte	$B6
	.byte	$B6
	.byte	$B6
	.byte	$B6
	.byte	$B6
	.byte	$B6
	.byte	$B6
	.byte	$B6
	.byte	$B6
	.byte	$B6
	.byte	$B7
	.byte	$B6
	.byte	$B6
	.byte	$B6
	.byte	$B6
	.byte	$B6
	.byte	$B6
	.byte	$B6
	.byte	$B6
	.byte	$B6
	.byte	$B8
	.byte	$B6
	.byte	$DE
	.byte	$DF
	.byte	$B6
	.byte	$B6
	.byte	$A7
	.byte	$B6
	.byte	$B6
	.byte	$B8
	.byte	$B6
	.byte	$B6
	.byte	$B6
	.byte	$B8
	.byte	$B6
	.byte	$B6
	.byte	$B6
	.byte	$B6
	.byte	$B6
	.byte	$B6
	.byte	$B6
	.byte	$B6
	.byte	$B6
	.byte	$B8
	.byte	$B6
	.byte	$B6
	.byte	$B6
	.byte	$B6
	.byte	$B6
	.byte	$B6
	.byte	$B6
	.byte	$B6
	.byte	$B6
	.byte	$B6
	.byte	$B6
	.byte	$B6
	.byte	$B6
	.byte	$B9
	.byte	$A7
	.byte	$BE
	.byte	$BF
	.byte	$B6
	.byte	$B6
	.byte	$B6
	.byte	$B8
	.byte	$B6
	.byte	$B6
	.byte	$B6
	.byte	$B6
	.byte	$B6
	.byte	$BE
	.byte	$BF
	.byte	$B6
	.byte	$B6
	.byte	$B6
	.byte	$B6
	.byte	$B8
	.byte	$B6
	.byte	$B6
	.byte	$A7
	.byte	$B6
	.byte	$B6
	.byte	$B9
	.byte	$B8
	.byte	$B6
	.byte	$B6
	.byte	$B6
	.byte	$B6
	.byte	$B9
	.byte	$BF
	.byte	$A7
	.byte	$CE
	.byte	$CF
	.byte	$A7
	.byte	$B6
	.byte	$B6
	.byte	$B6
	.byte	$B6
	.byte	$B6
	.byte	$B6
	.byte	$B6
	.byte	$AB
	.byte	$CE
	.byte	$CF
	.byte	$A7
	.byte	$B6
	.byte	$B6
	.byte	$B6
	.byte	$B6
	.byte	$B6
	.byte	$B6
	.byte	$B6
	.byte	$B6
	.byte	$B6
	.byte	$B6
	.byte	$B6
	.byte	$A7
	.byte	$B6
	.byte	$B6
	.byte	$A7
	.byte	$CE
	.byte	$CF
	.byte	$00
	.byte	$00
	.byte	$00
	.byte	$00
	.byte	$00
	.byte	$00
	.byte	$00
	.byte	$00
	.byte	$00
	.byte	$00
	.byte	$00
	.byte	$00
	.byte	$00
	.byte	$00
	.byte	$00
	.byte	$00
	.byte	$00
	.byte	$05
	.byte	$05
	.byte	$05
	.byte	$05
	.byte	$05
	.byte	$05
	.byte	$00
	.byte	$00
	.byte	$00
	.byte	$00
	.byte	$00
	.byte	$00
	.byte	$00
	.byte	$00
	.byte	$00
	.byte	$00
	.byte	$00
	.byte	$00
	.byte	$00
	.byte	$00
	.byte	$00
	.byte	$00
	.byte	$00
	.byte	$05
	.byte	$05
	.byte	$05
	.byte	$05
	.byte	$05
	.byte	$05
	.byte	$05
	.byte	$05
	.byte	$00
	.byte	$00
	.byte	$00
	.byte	$00
	.byte	$00
	.byte	$00
	.byte	$00
	.byte	$00
	.byte	$00
	.byte	$00
	.byte	$00
	.byte	$00
	.byte	$00
	.byte	$00
	.byte	$00
	.byte	$00
_COMBS_FLOWER_X:
	.byte	$10
	.byte	$E2
	.byte	$10
	.byte	$E2
_COMBS_FLOWER_Y:
	.byte	$20
	.byte	$20
	.byte	$D0
	.byte	$D0
_VINES_FLOWER_X:
	.byte	$10
	.byte	$E0
	.byte	$10
	.byte	$E0
_VINES_FLOWER_Y:
	.byte	$20
	.byte	$20
	.byte	$D0
	.byte	$D0
_OUTDOORS_FLOWER_X:
	.byte	$20
	.byte	$D0
	.byte	$10
	.byte	$E0
_OUTDOORS_FLOWER_Y:
	.byte	$70
	.byte	$70
	.byte	$D0
	.byte	$D0
_palette_combsnplants_bg:
	.byte	$0F
	.byte	$30
	.byte	$27
	.byte	$07
	.byte	$0F
	.byte	$35
	.byte	$26
	.byte	$07
	.byte	$0F
	.byte	$0F
	.byte	$30
	.byte	$30
	.byte	$0F
	.byte	$21
	.byte	$16
	.byte	$30
_palette_outdoors_bg:
	.byte	$0F
	.byte	$30
	.byte	$17
	.byte	$28
	.byte	$0F
	.byte	$35
	.byte	$26
	.byte	$07
	.byte	$0F
	.byte	$30
	.byte	$2A
	.byte	$1B
	.byte	$0F
	.byte	$30
	.byte	$21
	.byte	$11
_palette_vineswoflowers_bg:
	.byte	$0F
	.byte	$30
	.byte	$27
	.byte	$07
	.byte	$0F
	.byte	$30
	.byte	$2A
	.byte	$1B
	.byte	$0F
	.byte	$1A
	.byte	$30
	.byte	$38
	.byte	$0F
	.byte	$30
	.byte	$15
	.byte	$00
_palette_sp:
	.byte	$0F
	.byte	$16
	.byte	$30
	.byte	$38
	.byte	$0F
	.byte	$28
	.byte	$07
	.byte	$30
	.byte	$0F
	.byte	$2C
	.byte	$30
	.byte	$38
	.byte	$0F
	.byte	$10
	.byte	$38
	.byte	$30
_palette_title_bg:
	.byte	$0F
	.byte	$30
	.byte	$27
	.byte	$07
	.byte	$0F
	.byte	$07
	.byte	$2A
	.byte	$1B
	.byte	$0F
	.byte	$30
	.byte	$2A
	.byte	$1B
	.byte	$0F
	.byte	$30
	.byte	$21
	.byte	$11
_palette_options_bg:
	.byte	$0F
	.byte	$30
	.byte	$27
	.byte	$07
	.byte	$0F
	.byte	$24
	.byte	$2A
	.byte	$1B
	.byte	$0F
	.byte	$30
	.byte	$2A
	.byte	$1B
	.byte	$0F
	.byte	$27
	.byte	$2A
	.byte	$1B
_metatiles1:
	.byte	$02
	.byte	$02
	.byte	$02
	.byte	$02
	.byte	$03
	.byte	$04
	.byte	$04
	.byte	$04
	.byte	$04
	.byte	$01
	.byte	$09
	.byte	$09
	.byte	$09
	.byte	$09
	.byte	$02
	.byte	$05
	.byte	$06
	.byte	$08
	.byte	$07
	.byte	$01
	.byte	$05
	.byte	$06
	.byte	$08
	.byte	$07
	.byte	$00
_pellet_tiles:
	.byte	$C6
	.byte	$C7
	.byte	$C8
	.byte	$C9
	.byte	$CA
	.byte	$A5
_blank_tiles:
	.byte	$B6
	.byte	$B7
	.byte	$B8
	.byte	$B9
	.byte	$BA
	.byte	$00
	.byte	$69
	.byte	$6A
	.byte	$6B
L26C4:
	.byte	$20,$20,$20,$20,$20,$20,$20,$20,$20,$20,$20,$20,$20,$20,$20,$20
	.byte	$20,$20,$20,$20,$20,$20,$00
L275F:
	.byte	$45,$4E,$45,$4D,$59,$20,$41,$54,$45,$20,$54,$48,$45,$49,$52,$20
	.byte	$44,$55,$43,$4B,$00
L2642:
	.byte	$50,$52,$45,$53,$53,$20,$53,$45,$4C,$45,$43,$54,$20,$54,$4F,$20
	.byte	$4A,$4F,$49,$4E,$00
L2789:
	.byte	$43,$4F,$4C,$4C,$45,$43,$54,$45,$44,$20,$4D,$4F,$52,$45,$20,$48
	.byte	$4F,$4E,$45,$59,$00
L2711	:=	L2789+0
L2751:
	.byte	$45,$4E,$45,$4D,$59,$20,$41,$54,$45,$20,$54,$48,$45,$49,$52,$20
	.byte	$42,$45,$45,$00
L2743:
	.byte	$31,$30,$30,$20,$48,$4F,$4E,$45,$59,$20,$43,$4F,$4C,$4C,$45,$43
	.byte	$54,$45,$44,$00
L26EA:
	.byte	$46,$52,$49,$45,$4E,$44,$4C,$59,$20,$44,$55,$43,$4B,$20,$45,$41
	.byte	$54,$45,$4E,$00
L26D0:
	.byte	$43,$4F,$4C,$4C,$45,$43,$54,$45,$44,$20,$31,$30,$30,$20,$48,$4F
	.byte	$4E,$45,$59,$00
L26DD:
	.byte	$46,$52,$49,$45,$4E,$44,$4C,$59,$20,$42,$45,$45,$20,$45,$41,$54
	.byte	$45,$4E,$00
L2704:
	.byte	$42,$49,$47,$42,$45,$45,$20,$41,$54,$45,$20,$44,$55,$43,$4B,$21
	.byte	$00
L277B:
	.byte	$45,$4E,$45,$4D,$59,$20,$44,$55,$43,$4B,$20,$45,$41,$54,$45,$4E
	.byte	$00
L276D:
	.byte	$45,$4E,$45,$4D,$59,$20,$42,$45,$45,$20,$45,$41,$54,$45,$4E,$00
L26F7	:=	L276D+0
L27B0:
	.byte	$42,$4C,$55,$45,$20,$54,$45,$41,$4D,$20,$57,$49,$4E,$53,$00
L27A1:
	.byte	$52,$45,$44,$20,$54,$45,$41,$4D,$20,$57,$49,$4E,$53,$00
L284A:
	.byte	$50,$52,$45,$53,$53,$20,$53,$54,$41,$52,$54,$00
L271C:
	.byte	$44,$52,$41,$57,$20,$47,$41,$4D,$45,$21,$00
L2804:
	.byte	$52,$4F,$55,$4E,$44,$20,$32,$3A,$00
L27F3:
	.byte	$52,$4F,$55,$4E,$44,$20,$31,$3A,$00
L283B:
	.byte	$52,$4F,$55,$4E,$44,$20,$35,$3A,$00
L2815:
	.byte	$52,$4F,$55,$4E,$44,$20,$33,$3A,$00
L25B9:
	.byte	$52,$41,$4E,$44,$4F,$4D,$20,$20,$00
L25C6:
	.byte	$4F,$55,$54,$44,$4F,$4F,$52,$53,$00
L25D3:
	.byte	$43,$4F,$4D,$42,$53,$20,$20,$20,$00
L25E0:
	.byte	$56,$49,$4E,$45,$53,$20,$20,$20,$00
L2828:
	.byte	$52,$4F,$55,$4E,$44,$20,$34,$3A,$00
L2593:
	.byte	$53,$4C,$4F,$57,$20,$20,$20,$00
L25A0:
	.byte	$52,$45,$47,$55,$4C,$41,$52,$00
L25AD:
	.byte	$46,$41,$53,$54,$20,$20,$20,$00
L2638:
	.byte	$4D,$55,$53,$49,$43,$3A,$00
L2624:
	.byte	$53,$50,$45,$45,$44,$3A,$00
L2606	:=	L2789+15
L25F9:
	.byte	$4C,$41,$4B,$45,$20,$00
L25EC:
	.byte	$42,$45,$45,$20,$20,$00
L2736:
	.byte	$42,$4C,$55,$45,$00
L262E:
	.byte	$4D,$41,$50,$3A,$00
L2729:
	.byte	$52,$45,$44,$00

.segment	"BSS"

_tick_frequency:
	.res	1,$00
.segment	"ZEROPAGE"
_doublepad:
	.res	2,$00
_generic_pad:
	.res	1,$00
_turbo_p1:
	.res	1,$00
_turbo_p2:
	.res	1,$00
_turbo_p3:
	.res	1,$00
_turbo_p4:
	.res	1,$00
_prev_pad1:
	.res	1,$00
_prev_pad2:
	.res	1,$00
_prev_pad3:
	.res	1,$00
_prev_pad4:
	.res	1,$00
_pad1:
	.res	1,$00
_pad2:
	.res	1,$00
_pad3:
	.res	1,$00
_pad4:
	.res	1,$00
_pad1_new:
	.res	1,$00
_pad2_new:
	.res	1,$00
_pad3_new:
	.res	1,$00
_pad4_new:
	.res	1,$00
_game_mode:
	.res	1,$00
_winner:
	.res	1,$00
_game_frame_timer:
	.res	1,$00
_game_timer:
	.res	1,$00
_speed_option:
	.res	2,$00
_current_speed:
	.res	2,$00
_force_redraw:
	.res	1,$00
_use_turbo:
	.res	1,$00
_turbo_amount:
	.res	1,$00
_ducks_go_faster_over_time:
	.res	1,$00
_map_positions:
	.res	1,$00
_collision:
	.res	1,$00
_collision_L:
	.res	1,$00
_collision_R:
	.res	1,$00
_collision_U:
	.res	1,$00
_collision_D:
	.res	1,$00
_coordinates:
	.res	1,$00
_temp1:
	.res	1,$00
_temp2:
	.res	1,$00
_temp3:
	.res	1,$00
_temp4:
	.res	1,$00
_temp5:
	.res	2,$00
_temp6:
	.res	2,$00
_tempint:
	.res	2,$00
_eject_L:
	.res	1,$00
_eject_R:
	.res	1,$00
_eject_D:
	.res	1,$00
_eject_U:
	.res	1,$00
_address:
	.res	2,$00
_x:
	.res	1,$00
_y:
	.res	1,$00
_index:
	.res	1,$00
_map:
	.res	1,$00
_scroll_x:
	.res	2,$00
_scroll_y:
	.res	2,$00
_hero_velocity_x:
	.res	2,$00
_hero_velocity_y:
	.res	2,$00
_old_x:
	.res	2,$00
_old_y:
	.res	2,$00
_signed_temp:
	.res	1,$00
_signed_temp2:
	.res	1,$00
_temp:
	.res	1,$00
_temp_x:
	.res	1,$00
_temp_y:
	.res	1,$00
_temp_x2:
	.res	1,$00
_temp_y2:
	.res	1,$00
_largeindex:
	.res	2,$00
_song:
	.res	1,$00
_collision_box_size:
	.res	1,$00
_current_settings_choice:
	.res	1,$00
_settings_map:
	.res	1,$00
_settings_speed:
	.res	1,$00
_settings_song:
	.res	1,$00
_map_ptr:
	.res	2,$00
_bit_index:
	.res	1,$00
_bit_offset:
	.res	1,$00
_frame_counter:
	.res	1,$00
_ai_counter:
	.res	1,$00
_use_ai_player_1:
	.res	1,$00
_use_ai_player_2:
	.res	1,$00
_use_ai_player_3:
	.res	1,$00
_use_ai_player_4:
	.res	1,$00
_ai_timer_p1:
	.res	1,$00
_ai_timer_p2:
	.res	1,$00
_ai_timer_p3:
	.res	1,$00
_ai_timer_p4:
	.res	1,$00
_ai_dir_p1:
	.res	1,$00
_ai_dir_p2:
	.res	1,$00
_ai_dir_p3:
	.res	1,$00
_ai_dir_p4:
	.res	1,$00
_ai_timer_work:
	.res	1,$00
_ai_dir_work:
	.res	1,$00
_ai_collision_work:
	.res	1,$00
_ai_pad_work:
	.res	1,$00
_current_player:
	.res	1,$00
_team1_score:
	.res	1,$00
_team2_score:
	.res	1,$00
_temp_win_reason:
	.res	1,$00
_temp_win_team:
	.res	1,$00
_team1_wins:
	.res	1,$00
_team2_wins:
	.res	1,$00
_team1_win1:
	.res	1,$00
_team1_win2:
	.res	1,$00
_team1_win3:
	.res	1,$00
_team2_win1:
	.res	1,$00
_team2_win2:
	.res	1,$00
_team2_win3:
	.res	1,$00
_round_1_winner:
	.res	1,$00
_round_2_winner:
	.res	1,$00
_round_3_winner:
	.res	1,$00
_round_4_winner:
	.res	1,$00
_round_5_winner:
	.res	1,$00
_round_1:
	.res	1,$00
_round_2:
	.res	1,$00
_round_3:
	.res	1,$00
_round_4:
	.res	1,$00
_round_5:
	.res	1,$00
_temp_round:
	.res	1,$00
_temp_winner:
	.res	1,$00
_current_round:
	.res	1,$00
_win_reason:
	.res	1,$00
_powerup1:
	.res	1,$00
_powerup2:
	.res	1,$00
_powerup3:
	.res	1,$00
_powerup4:
	.res	1,$00
_bee1_bigbee_timer:
	.res	1,$00
_bee3_bigbee_timer:
	.res	1,$00
_sprite_rotation:
	.res	1,$00
_anim_frame_1:
	.res	1,$00
_anim_frame_2:
	.res	1,$00
_anim_frame_3:
	.res	1,$00
_anim_frame_4:
	.res	1,$00
.segment	"BSS"
_consumed_dots:
	.res	128,$00
_start_hold_timer:
	.res	1,$00
_start_held:
	.res	1,$00
_Generic:
	.res	4,$00
_quack2:
	.res	7,$00
_quack4:
	.res	7,$00
_quack2_cooldown:
	.res	1,$00
_quack4_cooldown:
	.res	1,$00
_stun_p1:
	.res	1,$00
_stun_p2:
	.res	1,$00
_stun_p3:
	.res	1,$00
_stun_p4:
	.res	1,$00
_GenericBoxGuy:
	.res	7,$00
_anim_tick_p1:
	.res	1,$00
_anim_tick_p2:
	.res	1,$00
_anim_tick_p3:
	.res	1,$00
_anim_tick_p4:
	.res	1,$00
_options_anim_tick:
	.res	1,$00

; ---------------------------------------------------------------
; void __near__ load_room (void)
; ---------------------------------------------------------------

.segment	"CODE"

.proc	_load_room: near

.segment	"CODE"

;
; ppu_off();
;
	jsr     _ppu_off
;
; vram_adr(NAMETABLE_A);
;
	ldx     #$20
	lda     #$00
	jsr     _vram_adr
;
; for (largeindex = 0; largeindex < 1024; ++largeindex)
;
	lda     #$00
	sta     _largeindex
	sta     _largeindex+1
L1922:	ldx     _largeindex+1
	cpx     #$04
	bcs     L1923
;
; if (game_mode == MODE_TITLE)
;
	lda     _game_mode
	bne     L2901
;
; vram_put(title[largeindex]);
;
	lda     #<(_title)
	sta     ptr1
	lda     #>(_title)
	clc
	adc     _largeindex+1
	sta     ptr1+1
	ldy     _largeindex
;
; else if (game_mode == MODE_OPTIONS)
;
	jmp     L2902
L2901:	lda     _game_mode
	cmp     #$01
	bne     L1931
;
; vram_put(settings[largeindex]);
;
	lda     #<(_settings)
	sta     ptr1
	lda     #>(_settings)
	clc
	adc     _largeindex+1
	sta     ptr1+1
	ldy     _largeindex
;
; else
;
	jmp     L2902
;
; vram_put(map_ptr[largeindex]);
;
L1931:	lda     _map_ptr
	clc
	adc     _largeindex
	sta     ptr1
	lda     _map_ptr+1
	adc     _largeindex+1
	sta     ptr1+1
	ldy     #$00
L2902:	lda     (ptr1),y
	jsr     _vram_put
;
; for (largeindex = 0; largeindex < 1024; ++largeindex)
;
	inc     _largeindex
	bne     L1922
	inc     _largeindex+1
	jmp     L1922
;
; ppu_on_all();
;
L1923:	jmp     _ppu_on_all

.endproc

; ---------------------------------------------------------------
; void __near__ draw_sprites (void)
; ---------------------------------------------------------------

.segment	"CODE"

.proc	_draw_sprites: near

.segment	"CODE"

;
; oam_clear();
;
	jsr     _oam_clear
;
; if (powerup1 == 1)
;
	lda     _powerup1
	cmp     #$01
	bne     L290B
;
; if (map == MAP_COMBS)
;
	lda     _map
	bne     L2909
;
; oam_meta_spr(COMBS_FLOWER_X[0], COMBS_FLOWER_Y[0], gamesprites_powerup_data);
;
	jsr     decsp2
	lda     _COMBS_FLOWER_X
	ldy     #$01
	sta     (sp),y
	lda     _COMBS_FLOWER_Y
;
; else if (map == MAP_VINES)
;
	jmp     L2927
L2909:	lda     _map
	cmp     #$02
	bne     L290A
;
; oam_meta_spr(VINES_FLOWER_X[0], VINES_FLOWER_Y[0], gamesprites_powerup_data);
;
	jsr     decsp2
	lda     _VINES_FLOWER_X
	ldy     #$01
	sta     (sp),y
	lda     _VINES_FLOWER_Y
;
; else if (map == MAP_OUTDOORS)
;
	jmp     L2927
L290A:	lda     _map
	cmp     #$01
	bne     L290B
;
; oam_meta_spr(OUTDOORS_FLOWER_X[0], OUTDOORS_FLOWER_Y[0], gamesprites_powerup_data);
;
	jsr     decsp2
	lda     _OUTDOORS_FLOWER_X
	ldy     #$01
	sta     (sp),y
	lda     _OUTDOORS_FLOWER_Y
L2927:	dey
	sta     (sp),y
	lda     #<(_gamesprites_powerup_data)
	ldx     #>(_gamesprites_powerup_data)
	jsr     _oam_meta_spr
;
; if (powerup2 == 1)
;
L290B:	lda     _powerup2
	cmp     #$01
	bne     L290E
;
; if (map == MAP_COMBS)
;
	lda     _map
	bne     L290C
;
; oam_meta_spr(COMBS_FLOWER_X[1], COMBS_FLOWER_Y[1], gamesprites_powerup_data);
;
	jsr     decsp2
	lda     _COMBS_FLOWER_X+1
	ldy     #$01
	sta     (sp),y
	lda     _COMBS_FLOWER_Y+1
;
; else if (map == MAP_VINES)
;
	jmp     L2928
L290C:	lda     _map
	cmp     #$02
	bne     L290D
;
; oam_meta_spr(VINES_FLOWER_X[1], VINES_FLOWER_Y[1], gamesprites_powerup_data);
;
	jsr     decsp2
	lda     _VINES_FLOWER_X+1
	ldy     #$01
	sta     (sp),y
	lda     _VINES_FLOWER_Y+1
;
; else if (map == MAP_OUTDOORS)
;
	jmp     L2928
L290D:	lda     _map
	cmp     #$01
	bne     L290E
;
; oam_meta_spr(OUTDOORS_FLOWER_X[1], OUTDOORS_FLOWER_Y[1], gamesprites_powerup_data);
;
	jsr     decsp2
	lda     _OUTDOORS_FLOWER_X+1
	ldy     #$01
	sta     (sp),y
	lda     _OUTDOORS_FLOWER_Y+1
L2928:	dey
	sta     (sp),y
	lda     #<(_gamesprites_powerup_data)
	ldx     #>(_gamesprites_powerup_data)
	jsr     _oam_meta_spr
;
; if (powerup3 == 1)
;
L290E:	lda     _powerup3
	cmp     #$01
	bne     L2911
;
; if (map == MAP_COMBS)
;
	lda     _map
	bne     L290F
;
; oam_meta_spr(COMBS_FLOWER_X[2], COMBS_FLOWER_Y[2], gamesprites_powerup_data);
;
	jsr     decsp2
	lda     _COMBS_FLOWER_X+2
	ldy     #$01
	sta     (sp),y
	lda     _COMBS_FLOWER_Y+2
;
; else if (map == MAP_VINES)
;
	jmp     L2929
L290F:	lda     _map
	cmp     #$02
	bne     L2910
;
; oam_meta_spr(VINES_FLOWER_X[2], VINES_FLOWER_Y[2], gamesprites_powerup_data);
;
	jsr     decsp2
	lda     _VINES_FLOWER_X+2
	ldy     #$01
	sta     (sp),y
	lda     _VINES_FLOWER_Y+2
;
; else if (map == MAP_OUTDOORS)
;
	jmp     L2929
L2910:	lda     _map
	cmp     #$01
	bne     L2911
;
; oam_meta_spr(OUTDOORS_FLOWER_X[2], OUTDOORS_FLOWER_Y[2], gamesprites_powerup_data);
;
	jsr     decsp2
	lda     _OUTDOORS_FLOWER_X+2
	ldy     #$01
	sta     (sp),y
	lda     _OUTDOORS_FLOWER_Y+2
L2929:	dey
	sta     (sp),y
	lda     #<(_gamesprites_powerup_data)
	ldx     #>(_gamesprites_powerup_data)
	jsr     _oam_meta_spr
;
; if (powerup4 == 1)
;
L2911:	lda     _powerup4
	cmp     #$01
	bne     L19A5
;
; if (map == MAP_COMBS)
;
	lda     _map
	bne     L2912
;
; oam_meta_spr(COMBS_FLOWER_X[3], COMBS_FLOWER_Y[3], gamesprites_powerup_data);
;
	jsr     decsp2
	lda     _COMBS_FLOWER_X+3
	ldy     #$01
	sta     (sp),y
	lda     _COMBS_FLOWER_Y+3
;
; else if (map == MAP_VINES)
;
	jmp     L292A
L2912:	lda     _map
	cmp     #$02
	bne     L2913
;
; oam_meta_spr(VINES_FLOWER_X[3], VINES_FLOWER_Y[3], gamesprites_powerup_data);
;
	jsr     decsp2
	lda     _VINES_FLOWER_X+3
	ldy     #$01
	sta     (sp),y
	lda     _VINES_FLOWER_Y+3
;
; else if (map == MAP_OUTDOORS)
;
	jmp     L292A
L2913:	lda     _map
	cmp     #$01
	bne     L19A5
;
; oam_meta_spr(OUTDOORS_FLOWER_X[3], OUTDOORS_FLOWER_Y[3], gamesprites_powerup_data);
;
	jsr     decsp2
	lda     _OUTDOORS_FLOWER_X+3
	ldy     #$01
	sta     (sp),y
	lda     _OUTDOORS_FLOWER_Y+3
L292A:	dey
	sta     (sp),y
	lda     #<(_gamesprites_powerup_data)
	ldx     #>(_gamesprites_powerup_data)
	jsr     _oam_meta_spr
;
; if (quack2.moving)
;
L19A5:	lda     _quack2+5
	jeq     L19C8
;
; temp_x = quack2.x >> 8;
;
	lda     _quack2+1
	sta     _temp_x
;
; temp_y = quack2.y >> 8;
;
	lda     _quack2+3
	sta     _temp_y
;
; if (quack2.direction == DIR_LEFT)
;
	lda     _quack2+4
	cmp     #$02
	bne     L2914
;
; oam_meta_spr(temp_x, temp_y, gamesprites_quackleft_data);
;
	jsr     decsp2
	lda     _temp_x
	ldy     #$01
	sta     (sp),y
	lda     _temp_y
	dey
	sta     (sp),y
	lda     #<(_gamesprites_quackleft_data)
	ldx     #>(_gamesprites_quackleft_data)
;
; else if (quack2.direction == DIR_RIGHT)
;
	jmp     L2907
L2914:	lda     _quack2+4
	cmp     #$03
	bne     L2915
;
; oam_meta_spr(temp_x, temp_y, gamesprites_quackright_data);
;
	jsr     decsp2
	lda     _temp_x
	ldy     #$01
	sta     (sp),y
	lda     _temp_y
	dey
	sta     (sp),y
	lda     #<(_gamesprites_quackright_data)
	ldx     #>(_gamesprites_quackright_data)
;
; else if (quack2.direction == DIR_DOWN)
;
	jmp     L2907
L2915:	lda     _quack2+4
	cmp     #$01
	bne     L2916
;
; oam_meta_spr(temp_x, temp_y, gamesprites_quackdown_data);
;
	jsr     decsp2
	lda     _temp_x
	ldy     #$01
	sta     (sp),y
	lda     _temp_y
	dey
	sta     (sp),y
	lda     #<(_gamesprites_quackdown_data)
	ldx     #>(_gamesprites_quackdown_data)
;
; else if (quack2.direction == DIR_UP)
;
	jmp     L2907
L2916:	lda     _quack2+4
	bne     L19C8
;
; oam_meta_spr(temp_x, temp_y, gamesprites_quackup_data);
;
	jsr     decsp2
	lda     _temp_x
	ldy     #$01
	sta     (sp),y
	lda     _temp_y
	dey
	sta     (sp),y
	lda     #<(_gamesprites_quackup_data)
	ldx     #>(_gamesprites_quackup_data)
L2907:	jsr     _oam_meta_spr
;
; if (quack4.moving)
;
L19C8:	lda     _quack4+5
	jeq     L291A
;
; temp_x = quack4.x >> 8;
;
	lda     _quack4+1
	sta     _temp_x
;
; temp_y = quack4.y >> 8;
;
	lda     _quack4+3
	sta     _temp_y
;
; if (quack4.direction == DIR_LEFT)
;
	lda     _quack4+4
	cmp     #$02
	bne     L2917
;
; oam_meta_spr(temp_x, temp_y, gamesprites_quackleft_data);
;
	jsr     decsp2
	lda     _temp_x
	ldy     #$01
	sta     (sp),y
	lda     _temp_y
	dey
	sta     (sp),y
	lda     #<(_gamesprites_quackleft_data)
	ldx     #>(_gamesprites_quackleft_data)
;
; else if (quack4.direction == DIR_RIGHT)
;
	jmp     L2908
L2917:	lda     _quack4+4
	cmp     #$03
	bne     L2918
;
; oam_meta_spr(temp_x, temp_y, gamesprites_quackright_data);
;
	jsr     decsp2
	lda     _temp_x
	ldy     #$01
	sta     (sp),y
	lda     _temp_y
	dey
	sta     (sp),y
	lda     #<(_gamesprites_quackright_data)
	ldx     #>(_gamesprites_quackright_data)
;
; else if (quack4.direction == DIR_DOWN)
;
	jmp     L2908
L2918:	lda     _quack4+4
	cmp     #$01
	bne     L2919
;
; oam_meta_spr(temp_x, temp_y, gamesprites_quackdown_data);
;
	jsr     decsp2
	lda     _temp_x
	ldy     #$01
	sta     (sp),y
	lda     _temp_y
	dey
	sta     (sp),y
	lda     #<(_gamesprites_quackdown_data)
	ldx     #>(_gamesprites_quackdown_data)
;
; else if (quack4.direction == DIR_UP)
;
	jmp     L2908
L2919:	lda     _quack4+4
	bne     L291A
;
; oam_meta_spr(temp_x, temp_y, gamesprites_quackup_data);
;
	jsr     decsp2
	lda     _temp_x
	ldy     #$01
	sta     (sp),y
	lda     _temp_y
	dey
	sta     (sp),y
	lda     #<(_gamesprites_quackup_data)
	ldx     #>(_gamesprites_quackup_data)
L2908:	jsr     _oam_meta_spr
;
; switch (sprite_rotation & 0x03)
;
L291A:	lda     _sprite_rotation
	and     #$03
;
; }
;
	beq     L19F3
	cmp     #$01
	beq     L19F9
	cmp     #$02
	beq     L19FF
	cmp     #$03
	beq     L1A05
	rts
;
; draw_player_1();
;
L19F3:	jsr     _draw_player_1
;
; draw_player_2();
;
	jsr     _draw_player_2
;
; draw_player_3();
;
	jsr     _draw_player_3
;
; draw_player_4();
;
	jmp     _draw_player_4
;
; draw_player_2();
;
L19F9:	jsr     _draw_player_2
;
; draw_player_1();
;
	jsr     _draw_player_1
;
; draw_player_4();
;
	jsr     _draw_player_4
;
; draw_player_3();
;
	jmp     _draw_player_3
;
; draw_player_3();
;
L19FF:	jsr     _draw_player_3
;
; draw_player_4();
;
	jsr     _draw_player_4
;
; draw_player_1();
;
	jsr     _draw_player_1
;
; draw_player_2();
;
	jmp     _draw_player_2
;
; draw_player_4();
;
L1A05:	jsr     _draw_player_4
;
; draw_player_3();
;
	jsr     _draw_player_3
;
; draw_player_2();
;
	jsr     _draw_player_2
;
; draw_player_1();
;
	jmp     _draw_player_1

.endproc

; ---------------------------------------------------------------
; void __near__ draw_player_1 (void)
; ---------------------------------------------------------------

.segment	"CODE"

.proc	_draw_player_1: near

.segment	"CODE"

;
; temp_x = BoxGuy1.x >> 8;
;
	lda     _BoxGuy1+1
	sta     _temp_x
;
; temp_y = BoxGuy1.y >> 8;
;
	lda     _BoxGuy1+3
	sta     _temp_y
;
; if (winner == THREEFOUR_WINNER)
;
	lda     _winner
	cmp     #$02
	bne     L292E
;
; if (BoxGuy1.direction == DIR_LEFT)
;
	lda     _BoxGuy1+4
	cmp     #$02
	bne     L292D
;
; if (bee1_bigbee_timer > 0)
;
	lda     _bee1_bigbee_timer
	beq     L1A19
;
; oam_meta_spr(temp_x, temp_y, gamesprites_bigbeeleft0_data);
;
	jsr     decsp2
	lda     _temp_x
	ldy     #$01
	sta     (sp),y
	lda     _temp_y
	dey
	sta     (sp),y
	lda     #<(_gamesprites_bigbeeleft0_data)
	ldx     #>(_gamesprites_bigbeeleft0_data)
;
; else
;
	jmp     _oam_meta_spr
;
; oam_meta_spr(temp_x, temp_y, gamesprites_smallbeeleft0_data);
;
L1A19:	jsr     decsp2
	lda     _temp_x
	ldy     #$01
	sta     (sp),y
	lda     _temp_y
	dey
	sta     (sp),y
	lda     #<(_gamesprites_smallbeeleft0_data)
	ldx     #>(_gamesprites_smallbeeleft0_data)
	jmp     _oam_meta_spr
;
; if (bee1_bigbee_timer > 0)
;
L292D:	lda     _bee1_bigbee_timer
	beq     L1A25
;
; oam_meta_spr(temp_x, temp_y, gamesprites_bigbeeright0_data);
;
	jsr     decsp2
	lda     _temp_x
	ldy     #$01
	sta     (sp),y
	lda     _temp_y
	dey
	sta     (sp),y
	lda     #<(_gamesprites_bigbeeright0_data)
	ldx     #>(_gamesprites_bigbeeright0_data)
	jmp     _oam_meta_spr
;
; oam_meta_spr(temp_x, temp_y, gamesprites_smallbeeright0_data);
;
L1A25:	jsr     decsp2
	lda     _temp_x
	ldy     #$01
	sta     (sp),y
	lda     _temp_y
	dey
	sta     (sp),y
	lda     #<(_gamesprites_smallbeeright0_data)
	ldx     #>(_gamesprites_smallbeeright0_data)
	jmp     _oam_meta_spr
;
; if (stun_p1 > 0 && (frame_counter & 0x01) == 0 && winner == UNDEFINED_WINNER)
;
L292E:	lda     _stun_p1
	beq     L2932
	lda     _frame_counter
	and     #$01
	bne     L2932
	lda     _winner
	bne     L2932
;
; return; // flash when stunned (only if game is still ongoing)
;
	rts
;
; if (++anim_tick_p1 >= 10)
;
L2932:	inc     _anim_tick_p1
	lda     _anim_tick_p1
	cmp     #$0A
	bcc     L2933
;
; anim_tick_p1 = 0;
;
	lda     #$00
	sta     _anim_tick_p1
;
; if (++anim_frame_1 >= 3)
;
	inc     _anim_frame_1
	lda     _anim_frame_1
	cmp     #$03
	bcc     L2933
;
; anim_frame_1 = 0;
;
	lda     #$00
	sta     _anim_frame_1
;
; if (bee1_bigbee_timer > 0)
;
L2933:	lda     _bee1_bigbee_timer
	jeq     L2939
;
; if (bee1_bigbee_timer < BIGBEE_FLICKER_START)
;
	cmp     #$04
	bcs     L2936
;
; if ((frame_counter & 0x03) < 2 && winner == UNDEFINED_WINNER)
;
	lda     _frame_counter
	and     #$03
	cmp     #$02
	bcs     L2936
	lda     _winner
	bne     L2936
;
; return; // Skip drawing this frame
;
	rts
;
; if (BoxGuy1.direction == DIR_LEFT)
;
L2936:	lda     _BoxGuy1+4
	cmp     #$02
	bne     L2937
;
; switch (anim_frame_1)
;
	lda     _anim_frame_1
;
; }
;
	beq     L1A4E
	cmp     #$01
	beq     L1A54
	cmp     #$02
	beq     L1A5A
	rts
;
; oam_meta_spr(temp_x, temp_y, gamesprites_bigbeeleft0_data);
;
L1A4E:	jsr     decsp2
	lda     _temp_x
	ldy     #$01
	sta     (sp),y
	lda     _temp_y
	dey
	sta     (sp),y
	lda     #<(_gamesprites_bigbeeleft0_data)
	ldx     #>(_gamesprites_bigbeeleft0_data)
	jmp     _oam_meta_spr
;
; oam_meta_spr(temp_x, temp_y, gamesprites_bigbeeleft1_data);
;
L1A54:	jsr     decsp2
	lda     _temp_x
	ldy     #$01
	sta     (sp),y
	lda     _temp_y
	dey
	sta     (sp),y
	lda     #<(_gamesprites_bigbeeleft1_data)
	ldx     #>(_gamesprites_bigbeeleft1_data)
	jmp     _oam_meta_spr
;
; oam_meta_spr(temp_x, temp_y, gamesprites_bigbeeleft2_data);
;
L1A5A:	jsr     decsp2
	lda     _temp_x
	ldy     #$01
	sta     (sp),y
	lda     _temp_y
	dey
	sta     (sp),y
	lda     #<(_gamesprites_bigbeeleft2_data)
	ldx     #>(_gamesprites_bigbeeleft2_data)
	jmp     _oam_meta_spr
;
; else if (BoxGuy1.direction == DIR_RIGHT)
;
L2937:	lda     _BoxGuy1+4
	cmp     #$03
	bne     L2938
;
; switch (anim_frame_1)
;
	lda     _anim_frame_1
;
; }
;
	beq     L1A66
	cmp     #$01
	beq     L1A6C
	cmp     #$02
	beq     L1A72
	rts
;
; oam_meta_spr(temp_x, temp_y, gamesprites_bigbeeright0_data);
;
L1A66:	jsr     decsp2
	lda     _temp_x
	ldy     #$01
	sta     (sp),y
	lda     _temp_y
	dey
	sta     (sp),y
	lda     #<(_gamesprites_bigbeeright0_data)
	ldx     #>(_gamesprites_bigbeeright0_data)
	jmp     _oam_meta_spr
;
; oam_meta_spr(temp_x, temp_y, gamesprites_bigbeeright1_data);
;
L1A6C:	jsr     decsp2
	lda     _temp_x
	ldy     #$01
	sta     (sp),y
	lda     _temp_y
	dey
	sta     (sp),y
	lda     #<(_gamesprites_bigbeeright1_data)
	ldx     #>(_gamesprites_bigbeeright1_data)
	jmp     _oam_meta_spr
;
; oam_meta_spr(temp_x, temp_y, gamesprites_bigbeeright2_data);
;
L1A72:	jsr     decsp2
	lda     _temp_x
	ldy     #$01
	sta     (sp),y
	lda     _temp_y
	dey
	sta     (sp),y
	lda     #<(_gamesprites_bigbeeright2_data)
	ldx     #>(_gamesprites_bigbeeright2_data)
	jmp     _oam_meta_spr
;
; switch (anim_frame_1)
;
L2938:	lda     _anim_frame_1
;
; }
;
	beq     L1A7C
	cmp     #$01
	beq     L1A82
	cmp     #$02
	beq     L1A88
	rts
;
; oam_meta_spr(temp_x, temp_y, gamesprites_bigbeeleft0_data);
;
L1A7C:	jsr     decsp2
	lda     _temp_x
	ldy     #$01
	sta     (sp),y
	lda     _temp_y
	dey
	sta     (sp),y
	lda     #<(_gamesprites_bigbeeleft0_data)
	ldx     #>(_gamesprites_bigbeeleft0_data)
	jmp     _oam_meta_spr
;
; oam_meta_spr(temp_x, temp_y, gamesprites_bigbeeleft1_data);
;
L1A82:	jsr     decsp2
	lda     _temp_x
	ldy     #$01
	sta     (sp),y
	lda     _temp_y
	dey
	sta     (sp),y
	lda     #<(_gamesprites_bigbeeleft1_data)
	ldx     #>(_gamesprites_bigbeeleft1_data)
	jmp     _oam_meta_spr
;
; oam_meta_spr(temp_x, temp_y, gamesprites_bigbeeleft2_data);
;
L1A88:	jsr     decsp2
	lda     _temp_x
	ldy     #$01
	sta     (sp),y
	lda     _temp_y
	dey
	sta     (sp),y
	lda     #<(_gamesprites_bigbeeleft2_data)
	ldx     #>(_gamesprites_bigbeeleft2_data)
	jmp     _oam_meta_spr
;
; if (BoxGuy1.direction == DIR_LEFT)
;
L2939:	lda     _BoxGuy1+4
	cmp     #$02
	bne     L293A
;
; switch (anim_frame_1)
;
	lda     _anim_frame_1
;
; }
;
	beq     L1A94
	cmp     #$01
	beq     L1A9A
	cmp     #$02
	beq     L1AA0
	rts
;
; oam_meta_spr(temp_x, temp_y, gamesprites_smallbeeleft0_data);
;
L1A94:	jsr     decsp2
	lda     _temp_x
	ldy     #$01
	sta     (sp),y
	lda     _temp_y
	dey
	sta     (sp),y
	lda     #<(_gamesprites_smallbeeleft0_data)
	ldx     #>(_gamesprites_smallbeeleft0_data)
	jmp     _oam_meta_spr
;
; oam_meta_spr(temp_x, temp_y, gamesprites_smallbeeleft1_data);
;
L1A9A:	jsr     decsp2
	lda     _temp_x
	ldy     #$01
	sta     (sp),y
	lda     _temp_y
	dey
	sta     (sp),y
	lda     #<(_gamesprites_smallbeeleft1_data)
	ldx     #>(_gamesprites_smallbeeleft1_data)
	jmp     _oam_meta_spr
;
; oam_meta_spr(temp_x, temp_y, gamesprites_smallbeeleft2_data);
;
L1AA0:	jsr     decsp2
	lda     _temp_x
	ldy     #$01
	sta     (sp),y
	lda     _temp_y
	dey
	sta     (sp),y
	lda     #<(_gamesprites_smallbeeleft2_data)
	ldx     #>(_gamesprites_smallbeeleft2_data)
	jmp     _oam_meta_spr
;
; else if (BoxGuy1.direction == DIR_RIGHT)
;
L293A:	lda     _BoxGuy1+4
	cmp     #$03
	bne     L293B
;
; switch (anim_frame_1)
;
	lda     _anim_frame_1
;
; }
;
	beq     L1AAC
	cmp     #$01
	beq     L1AB2
	cmp     #$02
	beq     L1AB8
	rts
;
; oam_meta_spr(temp_x, temp_y, gamesprites_smallbeeright0_data);
;
L1AAC:	jsr     decsp2
	lda     _temp_x
	ldy     #$01
	sta     (sp),y
	lda     _temp_y
	dey
	sta     (sp),y
	lda     #<(_gamesprites_smallbeeright0_data)
	ldx     #>(_gamesprites_smallbeeright0_data)
	jmp     _oam_meta_spr
;
; oam_meta_spr(temp_x, temp_y, gamesprites_smallbeeright1_data);
;
L1AB2:	jsr     decsp2
	lda     _temp_x
	ldy     #$01
	sta     (sp),y
	lda     _temp_y
	dey
	sta     (sp),y
	lda     #<(_gamesprites_smallbeeright1_data)
	ldx     #>(_gamesprites_smallbeeright1_data)
	jmp     _oam_meta_spr
;
; oam_meta_spr(temp_x, temp_y, gamesprites_smallbeeright2_data);
;
L1AB8:	jsr     decsp2
	lda     _temp_x
	ldy     #$01
	sta     (sp),y
	lda     _temp_y
	dey
	sta     (sp),y
	lda     #<(_gamesprites_smallbeeright2_data)
	ldx     #>(_gamesprites_smallbeeright2_data)
	jmp     _oam_meta_spr
;
; switch (anim_frame_1)
;
L293B:	lda     _anim_frame_1
;
; }
;
	beq     L1AC2
	cmp     #$01
	beq     L1AC8
	cmp     #$02
	beq     L1ACE
	rts
;
; oam_meta_spr(temp_x, temp_y, gamesprites_smallbeeleft0_data);
;
L1AC2:	jsr     decsp2
	lda     _temp_x
	ldy     #$01
	sta     (sp),y
	lda     _temp_y
	dey
	sta     (sp),y
	lda     #<(_gamesprites_smallbeeleft0_data)
	ldx     #>(_gamesprites_smallbeeleft0_data)
	jmp     _oam_meta_spr
;
; oam_meta_spr(temp_x, temp_y, gamesprites_smallbeeleft1_data);
;
L1AC8:	jsr     decsp2
	lda     _temp_x
	ldy     #$01
	sta     (sp),y
	lda     _temp_y
	dey
	sta     (sp),y
	lda     #<(_gamesprites_smallbeeleft1_data)
	ldx     #>(_gamesprites_smallbeeleft1_data)
	jmp     _oam_meta_spr
;
; oam_meta_spr(temp_x, temp_y, gamesprites_smallbeeleft2_data);
;
L1ACE:	jsr     decsp2
	lda     _temp_x
	ldy     #$01
	sta     (sp),y
	lda     _temp_y
	dey
	sta     (sp),y
	lda     #<(_gamesprites_smallbeeleft2_data)
	ldx     #>(_gamesprites_smallbeeleft2_data)
	jmp     _oam_meta_spr

.endproc

; ---------------------------------------------------------------
; void __near__ draw_player_2 (void)
; ---------------------------------------------------------------

.segment	"CODE"

.proc	_draw_player_2: near

.segment	"CODE"

;
; temp_x = BoxGuy2.x >> 8;
;
	lda     _BoxGuy2+1
	sta     _temp_x
;
; temp_y = BoxGuy2.y >> 8;
;
	lda     _BoxGuy2+3
	sta     _temp_y
;
; if (winner == THREEFOUR_WINNER)
;
	lda     _winner
	cmp     #$02
	bne     L293D
;
; if (BoxGuy2.direction == DIR_LEFT)
;
	lda     _BoxGuy2+4
	cmp     #$02
	bne     L1AE0
;
; oam_meta_spr(temp_x, temp_y, gamesprites_smallduckleft0_data);
;
	jsr     decsp2
	lda     _temp_x
	ldy     #$01
	sta     (sp),y
	lda     _temp_y
	dey
	sta     (sp),y
	lda     #<(_gamesprites_smallduckleft0_data)
	ldx     #>(_gamesprites_smallduckleft0_data)
	jmp     _oam_meta_spr
;
; oam_meta_spr(temp_x, temp_y, gamesprites_smallduckright0_data);
;
L1AE0:	jsr     decsp2
	lda     _temp_x
	ldy     #$01
	sta     (sp),y
	lda     _temp_y
	dey
	sta     (sp),y
	lda     #<(_gamesprites_smallduckright0_data)
	ldx     #>(_gamesprites_smallduckright0_data)
	jmp     _oam_meta_spr
;
; if (stun_p2 > 0 && (frame_counter & 0x01) == 0 && winner == UNDEFINED_WINNER)
;
L293D:	lda     _stun_p2
	beq     L1AEB
	lda     _frame_counter
	and     #$01
	bne     L1AEB
	lda     _winner
	bne     L1AEB
;
; return; // flash when stunned
;
	rts
;
; if (BoxGuy2.moving)
;
L1AEB:	lda     _BoxGuy2+5
	beq     L2941
;
; if (++anim_tick_p2 >= 10)
;
	inc     _anim_tick_p2
	lda     _anim_tick_p2
	cmp     #$0A
	bcc     L2941
;
; anim_tick_p2 = 0;
;
	lda     #$00
	sta     _anim_tick_p2
;
; if (++anim_frame_2 >= 3)
;
	inc     _anim_frame_2
	lda     _anim_frame_2
	cmp     #$03
	bcc     L2941
;
; anim_frame_2 = 0;
;
	lda     #$00
	sta     _anim_frame_2
;
; if (BoxGuy2.direction == DIR_LEFT)
;
L2941:	lda     _BoxGuy2+4
	cmp     #$02
	bne     L2942
;
; switch (anim_frame_2)
;
	lda     _anim_frame_2
;
; }
;
	beq     L1B01
	cmp     #$01
	beq     L1B07
	cmp     #$02
	beq     L1B0D
	rts
;
; oam_meta_spr(temp_x, temp_y, gamesprites_smallduckleft0_data);
;
L1B01:	jsr     decsp2
	lda     _temp_x
	ldy     #$01
	sta     (sp),y
	lda     _temp_y
	dey
	sta     (sp),y
	lda     #<(_gamesprites_smallduckleft0_data)
	ldx     #>(_gamesprites_smallduckleft0_data)
	jmp     _oam_meta_spr
;
; oam_meta_spr(temp_x, temp_y, gamesprites_smallduckleft1_data);
;
L1B07:	jsr     decsp2
	lda     _temp_x
	ldy     #$01
	sta     (sp),y
	lda     _temp_y
	dey
	sta     (sp),y
	lda     #<(_gamesprites_smallduckleft1_data)
	ldx     #>(_gamesprites_smallduckleft1_data)
	jmp     _oam_meta_spr
;
; oam_meta_spr(temp_x, temp_y, gamesprites_smallduckleft2_data);
;
L1B0D:	jsr     decsp2
	lda     _temp_x
	ldy     #$01
	sta     (sp),y
	lda     _temp_y
	dey
	sta     (sp),y
	lda     #<(_gamesprites_smallduckleft2_data)
	ldx     #>(_gamesprites_smallduckleft2_data)
	jmp     _oam_meta_spr
;
; else if (BoxGuy2.direction == DIR_RIGHT)
;
L2942:	lda     _BoxGuy2+4
	cmp     #$03
	bne     L2943
;
; switch (anim_frame_2)
;
	lda     _anim_frame_2
;
; }
;
	beq     L1B19
	cmp     #$01
	beq     L1B1F
	cmp     #$02
	beq     L1B25
	rts
;
; oam_meta_spr(temp_x, temp_y, gamesprites_smallduckright0_data);
;
L1B19:	jsr     decsp2
	lda     _temp_x
	ldy     #$01
	sta     (sp),y
	lda     _temp_y
	dey
	sta     (sp),y
	lda     #<(_gamesprites_smallduckright0_data)
	ldx     #>(_gamesprites_smallduckright0_data)
	jmp     _oam_meta_spr
;
; oam_meta_spr(temp_x, temp_y, gamesprites_smallduckright1_data);
;
L1B1F:	jsr     decsp2
	lda     _temp_x
	ldy     #$01
	sta     (sp),y
	lda     _temp_y
	dey
	sta     (sp),y
	lda     #<(_gamesprites_smallduckright1_data)
	ldx     #>(_gamesprites_smallduckright1_data)
	jmp     _oam_meta_spr
;
; oam_meta_spr(temp_x, temp_y, gamesprites_smallduckright2_data);
;
L1B25:	jsr     decsp2
	lda     _temp_x
	ldy     #$01
	sta     (sp),y
	lda     _temp_y
	dey
	sta     (sp),y
	lda     #<(_gamesprites_smallduckright2_data)
	ldx     #>(_gamesprites_smallduckright2_data)
	jmp     _oam_meta_spr
;
; switch (anim_frame_2)
;
L2943:	lda     _anim_frame_2
;
; }
;
	beq     L1B2F
	cmp     #$01
	beq     L1B35
	cmp     #$02
	beq     L1B3B
	rts
;
; oam_meta_spr(temp_x, temp_y, gamesprites_smallduckleft0_data);
;
L1B2F:	jsr     decsp2
	lda     _temp_x
	ldy     #$01
	sta     (sp),y
	lda     _temp_y
	dey
	sta     (sp),y
	lda     #<(_gamesprites_smallduckleft0_data)
	ldx     #>(_gamesprites_smallduckleft0_data)
	jmp     _oam_meta_spr
;
; oam_meta_spr(temp_x, temp_y, gamesprites_smallduckleft1_data);
;
L1B35:	jsr     decsp2
	lda     _temp_x
	ldy     #$01
	sta     (sp),y
	lda     _temp_y
	dey
	sta     (sp),y
	lda     #<(_gamesprites_smallduckleft1_data)
	ldx     #>(_gamesprites_smallduckleft1_data)
	jmp     _oam_meta_spr
;
; oam_meta_spr(temp_x, temp_y, gamesprites_smallduckleft2_data);
;
L1B3B:	jsr     decsp2
	lda     _temp_x
	ldy     #$01
	sta     (sp),y
	lda     _temp_y
	dey
	sta     (sp),y
	lda     #<(_gamesprites_smallduckleft2_data)
	ldx     #>(_gamesprites_smallduckleft2_data)
	jmp     _oam_meta_spr

.endproc

; ---------------------------------------------------------------
; void __near__ draw_player_3 (void)
; ---------------------------------------------------------------

.segment	"CODE"

.proc	_draw_player_3: near

.segment	"CODE"

;
; temp_x = BoxGuy3.x >> 8;
;
	lda     _BoxGuy3+1
	sta     _temp_x
;
; temp_y = BoxGuy3.y >> 8;
;
	lda     _BoxGuy3+3
	sta     _temp_y
;
; if (winner == ONETWO_WINNER)
;
	lda     _winner
	cmp     #$01
	bne     L2946
;
; if (BoxGuy3.direction == DIR_LEFT)
;
	lda     _BoxGuy3+4
	cmp     #$02
	bne     L2945
;
; if (bee3_bigbee_timer > 0)
;
	lda     _bee3_bigbee_timer
	beq     L1B4F
;
; oam_meta_spr(temp_x, temp_y, gamesprites_bigbee2left0_data);
;
	jsr     decsp2
	lda     _temp_x
	ldy     #$01
	sta     (sp),y
	lda     _temp_y
	dey
	sta     (sp),y
	lda     #<(_gamesprites_bigbee2left0_data)
	ldx     #>(_gamesprites_bigbee2left0_data)
;
; else
;
	jmp     _oam_meta_spr
;
; oam_meta_spr(temp_x, temp_y, gamesprites_smallbee2left0_data);
;
L1B4F:	jsr     decsp2
	lda     _temp_x
	ldy     #$01
	sta     (sp),y
	lda     _temp_y
	dey
	sta     (sp),y
	lda     #<(_gamesprites_smallbee2left0_data)
	ldx     #>(_gamesprites_smallbee2left0_data)
	jmp     _oam_meta_spr
;
; if (bee3_bigbee_timer > 0)
;
L2945:	lda     _bee3_bigbee_timer
	beq     L1B5B
;
; oam_meta_spr(temp_x, temp_y, gamesprites_bigbee2right0_data);
;
	jsr     decsp2
	lda     _temp_x
	ldy     #$01
	sta     (sp),y
	lda     _temp_y
	dey
	sta     (sp),y
	lda     #<(_gamesprites_bigbee2right0_data)
	ldx     #>(_gamesprites_bigbee2right0_data)
	jmp     _oam_meta_spr
;
; oam_meta_spr(temp_x, temp_y, gamesprites_smallbee2right0_data);
;
L1B5B:	jsr     decsp2
	lda     _temp_x
	ldy     #$01
	sta     (sp),y
	lda     _temp_y
	dey
	sta     (sp),y
	lda     #<(_gamesprites_smallbee2right0_data)
	ldx     #>(_gamesprites_smallbee2right0_data)
	jmp     _oam_meta_spr
;
; if (stun_p3 > 0 && (frame_counter & 0x01) == 0 && winner == UNDEFINED_WINNER)
;
L2946:	lda     _stun_p3
	beq     L294A
	lda     _frame_counter
	and     #$01
	bne     L294A
	lda     _winner
	bne     L294A
;
; return; // flash when stunned
;
	rts
;
; if (++anim_tick_p3 >= 10)
;
L294A:	inc     _anim_tick_p3
	lda     _anim_tick_p3
	cmp     #$0A
	bcc     L294B
;
; anim_tick_p3 = 0;
;
	lda     #$00
	sta     _anim_tick_p3
;
; if (++anim_frame_3 >= 3)
;
	inc     _anim_frame_3
	lda     _anim_frame_3
	cmp     #$03
	bcc     L294B
;
; anim_frame_3 = 0;
;
	lda     #$00
	sta     _anim_frame_3
;
; if (bee3_bigbee_timer > 0)
;
L294B:	lda     _bee3_bigbee_timer
	jeq     L2951
;
; if (bee3_bigbee_timer < BIGBEE_FLICKER_START)
;
	cmp     #$04
	bcs     L294E
;
; if ((frame_counter & 0x03) < 2 && winner == UNDEFINED_WINNER)
;
	lda     _frame_counter
	and     #$03
	cmp     #$02
	bcs     L294E
	lda     _winner
	bne     L294E
;
; return; // Skip drawing this frame
;
	rts
;
; if (BoxGuy3.direction == DIR_LEFT)
;
L294E:	lda     _BoxGuy3+4
	cmp     #$02
	bne     L294F
;
; switch (anim_frame_3)
;
	lda     _anim_frame_3
;
; }
;
	beq     L1B84
	cmp     #$01
	beq     L1B8A
	cmp     #$02
	beq     L1B90
	rts
;
; oam_meta_spr(temp_x, temp_y, gamesprites_bigbee2left0_data);
;
L1B84:	jsr     decsp2
	lda     _temp_x
	ldy     #$01
	sta     (sp),y
	lda     _temp_y
	dey
	sta     (sp),y
	lda     #<(_gamesprites_bigbee2left0_data)
	ldx     #>(_gamesprites_bigbee2left0_data)
	jmp     _oam_meta_spr
;
; oam_meta_spr(temp_x, temp_y, gamesprites_bigbee2left1_data);
;
L1B8A:	jsr     decsp2
	lda     _temp_x
	ldy     #$01
	sta     (sp),y
	lda     _temp_y
	dey
	sta     (sp),y
	lda     #<(_gamesprites_bigbee2left1_data)
	ldx     #>(_gamesprites_bigbee2left1_data)
	jmp     _oam_meta_spr
;
; oam_meta_spr(temp_x, temp_y, gamesprites_bigbee2left2_data);
;
L1B90:	jsr     decsp2
	lda     _temp_x
	ldy     #$01
	sta     (sp),y
	lda     _temp_y
	dey
	sta     (sp),y
	lda     #<(_gamesprites_bigbee2left2_data)
	ldx     #>(_gamesprites_bigbee2left2_data)
	jmp     _oam_meta_spr
;
; else if (BoxGuy3.direction == DIR_RIGHT)
;
L294F:	lda     _BoxGuy3+4
	cmp     #$03
	bne     L2950
;
; switch (anim_frame_3)
;
	lda     _anim_frame_3
;
; }
;
	beq     L1B9C
	cmp     #$01
	beq     L1BA2
	cmp     #$02
	beq     L1BA8
	rts
;
; oam_meta_spr(temp_x, temp_y, gamesprites_bigbee2right0_data);
;
L1B9C:	jsr     decsp2
	lda     _temp_x
	ldy     #$01
	sta     (sp),y
	lda     _temp_y
	dey
	sta     (sp),y
	lda     #<(_gamesprites_bigbee2right0_data)
	ldx     #>(_gamesprites_bigbee2right0_data)
	jmp     _oam_meta_spr
;
; oam_meta_spr(temp_x, temp_y, gamesprites_bigbee2right1_data);
;
L1BA2:	jsr     decsp2
	lda     _temp_x
	ldy     #$01
	sta     (sp),y
	lda     _temp_y
	dey
	sta     (sp),y
	lda     #<(_gamesprites_bigbee2right1_data)
	ldx     #>(_gamesprites_bigbee2right1_data)
	jmp     _oam_meta_spr
;
; oam_meta_spr(temp_x, temp_y, gamesprites_bigbee2right2_data);
;
L1BA8:	jsr     decsp2
	lda     _temp_x
	ldy     #$01
	sta     (sp),y
	lda     _temp_y
	dey
	sta     (sp),y
	lda     #<(_gamesprites_bigbee2right2_data)
	ldx     #>(_gamesprites_bigbee2right2_data)
	jmp     _oam_meta_spr
;
; switch (anim_frame_3)
;
L2950:	lda     _anim_frame_3
;
; }
;
	beq     L1BB2
	cmp     #$01
	beq     L1BB8
	cmp     #$02
	beq     L1BBE
	rts
;
; oam_meta_spr(temp_x, temp_y, gamesprites_bigbee2left0_data);
;
L1BB2:	jsr     decsp2
	lda     _temp_x
	ldy     #$01
	sta     (sp),y
	lda     _temp_y
	dey
	sta     (sp),y
	lda     #<(_gamesprites_bigbee2left0_data)
	ldx     #>(_gamesprites_bigbee2left0_data)
	jmp     _oam_meta_spr
;
; oam_meta_spr(temp_x, temp_y, gamesprites_bigbee2left1_data);
;
L1BB8:	jsr     decsp2
	lda     _temp_x
	ldy     #$01
	sta     (sp),y
	lda     _temp_y
	dey
	sta     (sp),y
	lda     #<(_gamesprites_bigbee2left1_data)
	ldx     #>(_gamesprites_bigbee2left1_data)
	jmp     _oam_meta_spr
;
; oam_meta_spr(temp_x, temp_y, gamesprites_bigbee2left2_data);
;
L1BBE:	jsr     decsp2
	lda     _temp_x
	ldy     #$01
	sta     (sp),y
	lda     _temp_y
	dey
	sta     (sp),y
	lda     #<(_gamesprites_bigbee2left2_data)
	ldx     #>(_gamesprites_bigbee2left2_data)
	jmp     _oam_meta_spr
;
; if (BoxGuy3.direction == DIR_LEFT)
;
L2951:	lda     _BoxGuy3+4
	cmp     #$02
	bne     L2952
;
; switch (anim_frame_3)
;
	lda     _anim_frame_3
;
; }
;
	beq     L1BCA
	cmp     #$01
	beq     L1BD0
	cmp     #$02
	beq     L1BD6
	rts
;
; oam_meta_spr(temp_x, temp_y, gamesprites_smallbee2left0_data);
;
L1BCA:	jsr     decsp2
	lda     _temp_x
	ldy     #$01
	sta     (sp),y
	lda     _temp_y
	dey
	sta     (sp),y
	lda     #<(_gamesprites_smallbee2left0_data)
	ldx     #>(_gamesprites_smallbee2left0_data)
	jmp     _oam_meta_spr
;
; oam_meta_spr(temp_x, temp_y, gamesprites_smallbee2left1_data);
;
L1BD0:	jsr     decsp2
	lda     _temp_x
	ldy     #$01
	sta     (sp),y
	lda     _temp_y
	dey
	sta     (sp),y
	lda     #<(_gamesprites_smallbee2left1_data)
	ldx     #>(_gamesprites_smallbee2left1_data)
	jmp     _oam_meta_spr
;
; oam_meta_spr(temp_x, temp_y, gamesprites_smallbee2left2_data);
;
L1BD6:	jsr     decsp2
	lda     _temp_x
	ldy     #$01
	sta     (sp),y
	lda     _temp_y
	dey
	sta     (sp),y
	lda     #<(_gamesprites_smallbee2left2_data)
	ldx     #>(_gamesprites_smallbee2left2_data)
	jmp     _oam_meta_spr
;
; else if (BoxGuy3.direction == DIR_RIGHT)
;
L2952:	lda     _BoxGuy3+4
	cmp     #$03
	bne     L2953
;
; switch (anim_frame_3)
;
	lda     _anim_frame_3
;
; }
;
	beq     L1BE2
	cmp     #$01
	beq     L1BE8
	cmp     #$02
	beq     L1BEE
	rts
;
; oam_meta_spr(temp_x, temp_y, gamesprites_smallbee2right0_data);
;
L1BE2:	jsr     decsp2
	lda     _temp_x
	ldy     #$01
	sta     (sp),y
	lda     _temp_y
	dey
	sta     (sp),y
	lda     #<(_gamesprites_smallbee2right0_data)
	ldx     #>(_gamesprites_smallbee2right0_data)
	jmp     _oam_meta_spr
;
; oam_meta_spr(temp_x, temp_y, gamesprites_smallbee2right1_data);
;
L1BE8:	jsr     decsp2
	lda     _temp_x
	ldy     #$01
	sta     (sp),y
	lda     _temp_y
	dey
	sta     (sp),y
	lda     #<(_gamesprites_smallbee2right1_data)
	ldx     #>(_gamesprites_smallbee2right1_data)
	jmp     _oam_meta_spr
;
; oam_meta_spr(temp_x, temp_y, gamesprites_smallbee2right2_data);
;
L1BEE:	jsr     decsp2
	lda     _temp_x
	ldy     #$01
	sta     (sp),y
	lda     _temp_y
	dey
	sta     (sp),y
	lda     #<(_gamesprites_smallbee2right2_data)
	ldx     #>(_gamesprites_smallbee2right2_data)
	jmp     _oam_meta_spr
;
; switch (anim_frame_3)
;
L2953:	lda     _anim_frame_3
;
; }
;
	beq     L1BF8
	cmp     #$01
	beq     L1BFE
	cmp     #$02
	beq     L1C04
	rts
;
; oam_meta_spr(temp_x, temp_y, gamesprites_smallbee2left0_data);
;
L1BF8:	jsr     decsp2
	lda     _temp_x
	ldy     #$01
	sta     (sp),y
	lda     _temp_y
	dey
	sta     (sp),y
	lda     #<(_gamesprites_smallbee2left0_data)
	ldx     #>(_gamesprites_smallbee2left0_data)
	jmp     _oam_meta_spr
;
; oam_meta_spr(temp_x, temp_y, gamesprites_smallbee2left1_data);
;
L1BFE:	jsr     decsp2
	lda     _temp_x
	ldy     #$01
	sta     (sp),y
	lda     _temp_y
	dey
	sta     (sp),y
	lda     #<(_gamesprites_smallbee2left1_data)
	ldx     #>(_gamesprites_smallbee2left1_data)
	jmp     _oam_meta_spr
;
; oam_meta_spr(temp_x, temp_y, gamesprites_smallbee2left2_data);
;
L1C04:	jsr     decsp2
	lda     _temp_x
	ldy     #$01
	sta     (sp),y
	lda     _temp_y
	dey
	sta     (sp),y
	lda     #<(_gamesprites_smallbee2left2_data)
	ldx     #>(_gamesprites_smallbee2left2_data)
	jmp     _oam_meta_spr

.endproc

; ---------------------------------------------------------------
; void __near__ draw_player_4 (void)
; ---------------------------------------------------------------

.segment	"CODE"

.proc	_draw_player_4: near

.segment	"CODE"

;
; temp_x = BoxGuy4.x >> 8;
;
	lda     _BoxGuy4+1
	sta     _temp_x
;
; temp_y = BoxGuy4.y >> 8;
;
	lda     _BoxGuy4+3
	sta     _temp_y
;
; if (winner == ONETWO_WINNER)
;
	lda     _winner
	cmp     #$01
	bne     L2955
;
; if (BoxGuy4.direction == DIR_LEFT)
;
	lda     _BoxGuy4+4
	cmp     #$02
	bne     L1C16
;
; oam_meta_spr(temp_x, temp_y, gamesprites_smallduck2left0_data);
;
	jsr     decsp2
	lda     _temp_x
	ldy     #$01
	sta     (sp),y
	lda     _temp_y
	dey
	sta     (sp),y
	lda     #<(_gamesprites_smallduck2left0_data)
	ldx     #>(_gamesprites_smallduck2left0_data)
	jmp     _oam_meta_spr
;
; oam_meta_spr(temp_x, temp_y, gamesprites_smallduck2right0_data);
;
L1C16:	jsr     decsp2
	lda     _temp_x
	ldy     #$01
	sta     (sp),y
	lda     _temp_y
	dey
	sta     (sp),y
	lda     #<(_gamesprites_smallduck2right0_data)
	ldx     #>(_gamesprites_smallduck2right0_data)
	jmp     _oam_meta_spr
;
; if (stun_p4 > 0 && (frame_counter & 0x01) == 0 && winner == UNDEFINED_WINNER)
;
L2955:	lda     _stun_p4
	beq     L1C21
	lda     _frame_counter
	and     #$01
	bne     L1C21
	lda     _winner
	bne     L1C21
;
; return; // flash when stunned
;
	rts
;
; if (BoxGuy4.moving)
;
L1C21:	lda     _BoxGuy4+5
	beq     L2959
;
; if (++anim_tick_p4 >= 10)
;
	inc     _anim_tick_p4
	lda     _anim_tick_p4
	cmp     #$0A
	bcc     L2959
;
; anim_tick_p4 = 0;
;
	lda     #$00
	sta     _anim_tick_p4
;
; if (++anim_frame_4 >= 3)
;
	inc     _anim_frame_4
	lda     _anim_frame_4
	cmp     #$03
	bcc     L2959
;
; anim_frame_4 = 0;
;
	lda     #$00
	sta     _anim_frame_4
;
; if (BoxGuy4.direction == DIR_LEFT)
;
L2959:	lda     _BoxGuy4+4
	cmp     #$02
	bne     L295A
;
; switch (anim_frame_4)
;
	lda     _anim_frame_4
;
; }
;
	beq     L1C37
	cmp     #$01
	beq     L1C3D
	cmp     #$02
	beq     L1C43
	rts
;
; oam_meta_spr(temp_x, temp_y, gamesprites_smallduck2left0_data);
;
L1C37:	jsr     decsp2
	lda     _temp_x
	ldy     #$01
	sta     (sp),y
	lda     _temp_y
	dey
	sta     (sp),y
	lda     #<(_gamesprites_smallduck2left0_data)
	ldx     #>(_gamesprites_smallduck2left0_data)
	jmp     _oam_meta_spr
;
; oam_meta_spr(temp_x, temp_y, gamesprites_smallduck2left1_data);
;
L1C3D:	jsr     decsp2
	lda     _temp_x
	ldy     #$01
	sta     (sp),y
	lda     _temp_y
	dey
	sta     (sp),y
	lda     #<(_gamesprites_smallduck2left1_data)
	ldx     #>(_gamesprites_smallduck2left1_data)
	jmp     _oam_meta_spr
;
; oam_meta_spr(temp_x, temp_y, gamesprites_smallduck2left2_data);
;
L1C43:	jsr     decsp2
	lda     _temp_x
	ldy     #$01
	sta     (sp),y
	lda     _temp_y
	dey
	sta     (sp),y
	lda     #<(_gamesprites_smallduck2left2_data)
	ldx     #>(_gamesprites_smallduck2left2_data)
	jmp     _oam_meta_spr
;
; else if (BoxGuy4.direction == DIR_RIGHT)
;
L295A:	lda     _BoxGuy4+4
	cmp     #$03
	bne     L295B
;
; switch (anim_frame_4)
;
	lda     _anim_frame_4
;
; }
;
	beq     L1C4F
	cmp     #$01
	beq     L1C55
	cmp     #$02
	beq     L1C5B
	rts
;
; oam_meta_spr(temp_x, temp_y, gamesprites_smallduck2right0_data);
;
L1C4F:	jsr     decsp2
	lda     _temp_x
	ldy     #$01
	sta     (sp),y
	lda     _temp_y
	dey
	sta     (sp),y
	lda     #<(_gamesprites_smallduck2right0_data)
	ldx     #>(_gamesprites_smallduck2right0_data)
	jmp     _oam_meta_spr
;
; oam_meta_spr(temp_x, temp_y, gamesprites_smallduck2right1_data);
;
L1C55:	jsr     decsp2
	lda     _temp_x
	ldy     #$01
	sta     (sp),y
	lda     _temp_y
	dey
	sta     (sp),y
	lda     #<(_gamesprites_smallduck2right1_data)
	ldx     #>(_gamesprites_smallduck2right1_data)
	jmp     _oam_meta_spr
;
; oam_meta_spr(temp_x, temp_y, gamesprites_smallduck2right2_data);
;
L1C5B:	jsr     decsp2
	lda     _temp_x
	ldy     #$01
	sta     (sp),y
	lda     _temp_y
	dey
	sta     (sp),y
	lda     #<(_gamesprites_smallduck2right2_data)
	ldx     #>(_gamesprites_smallduck2right2_data)
	jmp     _oam_meta_spr
;
; switch (anim_frame_4)
;
L295B:	lda     _anim_frame_4
;
; }
;
	beq     L1C65
	cmp     #$01
	beq     L1C6B
	cmp     #$02
	beq     L1C71
	rts
;
; oam_meta_spr(temp_x, temp_y, gamesprites_smallduck2left0_data);
;
L1C65:	jsr     decsp2
	lda     _temp_x
	ldy     #$01
	sta     (sp),y
	lda     _temp_y
	dey
	sta     (sp),y
	lda     #<(_gamesprites_smallduck2left0_data)
	ldx     #>(_gamesprites_smallduck2left0_data)
	jmp     _oam_meta_spr
;
; oam_meta_spr(temp_x, temp_y, gamesprites_smallduck2left1_data);
;
L1C6B:	jsr     decsp2
	lda     _temp_x
	ldy     #$01
	sta     (sp),y
	lda     _temp_y
	dey
	sta     (sp),y
	lda     #<(_gamesprites_smallduck2left1_data)
	ldx     #>(_gamesprites_smallduck2left1_data)
	jmp     _oam_meta_spr
;
; oam_meta_spr(temp_x, temp_y, gamesprites_smallduck2left2_data);
;
L1C71:	jsr     decsp2
	lda     _temp_x
	ldy     #$01
	sta     (sp),y
	lda     _temp_y
	dey
	sta     (sp),y
	lda     #<(_gamesprites_smallduck2left2_data)
	ldx     #>(_gamesprites_smallduck2left2_data)
	jmp     _oam_meta_spr

.endproc

; ---------------------------------------------------------------
; void __near__ movement (void)
; ---------------------------------------------------------------

.segment	"CODE"

.proc	_movement: near

.segment	"CODE"

;
; collision = 0;
;
	lda     #$00
	sta     _collision
;
; GenericBoxGuy.collision = 0;
;
	sta     _GenericBoxGuy+6
;
; if ((current_player == 1 && stun_p1 > 0) ||
;
	lda     _current_player
	cmp     #$01
	bne     L296D
	lda     _stun_p1
	bne     L297A
;
; (current_player == 2 && stun_p2 > 0) ||
;
L296D:	lda     _current_player
	cmp     #$02
	bne     L2970
	lda     _stun_p2
	bne     L297A
;
; (current_player == 3 && stun_p3 > 0) ||
;
L2970:	lda     _current_player
	cmp     #$03
	bne     L2973
	lda     _stun_p3
	bne     L297A
;
; (current_player == 4 && stun_p4 > 0))
;
L2973:	lda     _current_player
	cmp     #$04
	bne     L1E94
	lda     _stun_p4
	beq     L1E94
;
; switch (current_player)
;
L297A:	lda     _current_player
;
; }
;
	cmp     #$01
	beq     L1EA7
	cmp     #$02
	beq     L1EAB
	cmp     #$03
	beq     L1EAF
	cmp     #$04
	beq     L1EB3
	rts
;
; BoxGuy1 = GenericBoxGuy;
;
L1EA7:	lda     #<(_BoxGuy1)
	ldx     #>(_BoxGuy1)
	jsr     pushax
	lda     #<(_GenericBoxGuy)
	ldx     #>(_GenericBoxGuy)
	jsr     pushax
	ldx     #$00
	lda     #$07
	jmp     _memcpy
;
; BoxGuy2 = GenericBoxGuy;
;
L1EAB:	lda     #<(_BoxGuy2)
	ldx     #>(_BoxGuy2)
	jsr     pushax
	lda     #<(_GenericBoxGuy)
	ldx     #>(_GenericBoxGuy)
	jsr     pushax
	ldx     #$00
	lda     #$07
	jmp     _memcpy
;
; BoxGuy3 = GenericBoxGuy;
;
L1EAF:	lda     #<(_BoxGuy3)
	ldx     #>(_BoxGuy3)
	jsr     pushax
	lda     #<(_GenericBoxGuy)
	ldx     #>(_GenericBoxGuy)
	jsr     pushax
	ldx     #$00
	lda     #$07
	jmp     _memcpy
;
; BoxGuy4 = GenericBoxGuy;
;
L1EB3:	lda     #<(_BoxGuy4)
	ldx     #>(_BoxGuy4)
	jsr     pushax
	lda     #<(_GenericBoxGuy)
	ldx     #>(_GenericBoxGuy)
	jsr     pushax
	ldx     #$00
	lda     #$07
	jmp     _memcpy
;
; old_x = GenericBoxGuy.x;
;
L1E94:	lda     _GenericBoxGuy+1
	sta     _old_x+1
	lda     _GenericBoxGuy
	sta     _old_x
;
; if (generic_pad & PAD_B)
;
	lda     _generic_pad
	and     #$40
	jeq     L2987
;
; if (current_player == 2 && quack2.moving == 0 && quack2_cooldown == 0)
;
	lda     _current_player
	cmp     #$02
	jne     L2981
	lda     _quack2+5
	jne     L2981
	lda     _quack2_cooldown
	jne     L2981
;
; quack2.x = GenericBoxGuy.x;
;
	lda     _GenericBoxGuy+1
	sta     _quack2+1
	lda     _GenericBoxGuy
	sta     _quack2
;
; quack2.y = GenericBoxGuy.y;
;
	lda     _GenericBoxGuy+2+1
	sta     _quack2+2+1
	lda     _GenericBoxGuy+2
	sta     _quack2+2
;
; quack2.direction = GenericBoxGuy.direction;
;
	lda     _GenericBoxGuy+4
	sta     _quack2+4
;
; quack2_cooldown = QUACK_COOLDOWN;
;
	lda     #$05
	sta     _quack2_cooldown
;
; if (quack2.direction == DIR_LEFT)
;
	lda     _quack2+4
	cmp     #$02
	bne     L297D
;
; quack2.x -= 0x0800; // move it 1 block to the left;
;
	lda     _quack2
	sec
	sbc     #$00
	sta     _quack2
	lda     _quack2+1
	sbc     #$08
	sta     _quack2+1
;
; else if (quack2.direction == DIR_RIGHT)
;
	jmp     L2980
L297D:	lda     _quack2+4
	cmp     #$03
	bne     L297E
;
; quack2.x += 0x0800;
;
	lda     #$00
	clc
	adc     _quack2
	sta     _quack2
	lda     #$08
	adc     _quack2+1
	sta     _quack2+1
;
; else if (quack2.direction == DIR_UP)
;
	jmp     L2980
L297E:	lda     _quack2+4
	bne     L297F
;
; quack2.y -= 0x0800;
;
	lda     _quack2+2
	sec
	sbc     #$00
	sta     _quack2+2
	lda     _quack2+2+1
	sbc     #$08
;
; else if (quack2.direction == DIR_DOWN)
;
	jmp     L29BC
L297F:	lda     _quack2+4
	cmp     #$01
	bne     L2980
;
; quack2.y += 0x0800;
;
	lda     #$00
	clc
	adc     _quack2+2
	sta     _quack2+2
	lda     #$08
	adc     _quack2+2+1
L29BC:	sta     _quack2+2+1
;
; quack2.moving = 1;
;
L2980:	lda     #$01
	sta     _quack2+5
;
; if (current_player == 4 && quack4.moving == 0 && quack4_cooldown == 0)
;
L2981:	lda     _current_player
	cmp     #$04
	jne     L2987
	lda     _quack4+5
	jne     L2987
	lda     _quack4_cooldown
	jne     L2987
;
; quack4.x = GenericBoxGuy.x;
;
	lda     _GenericBoxGuy+1
	sta     _quack4+1
	lda     _GenericBoxGuy
	sta     _quack4
;
; quack4.y = GenericBoxGuy.y;
;
	lda     _GenericBoxGuy+2+1
	sta     _quack4+2+1
	lda     _GenericBoxGuy+2
	sta     _quack4+2
;
; quack4.direction = GenericBoxGuy.direction;
;
	lda     _GenericBoxGuy+4
	sta     _quack4+4
;
; quack4.moving = 1;
;
	lda     #$01
	sta     _quack4+5
;
; quack4_cooldown = QUACK_COOLDOWN;
;
	lda     #$05
	sta     _quack4_cooldown
;
; if (quack4.direction == DIR_LEFT)
;
	lda     _quack4+4
	cmp     #$02
	bne     L2984
;
; quack4.x -= 0x0800; // move it 1 block to the left;
;
	lda     _quack4
	sec
	sbc     #$00
	sta     _quack4
	lda     _quack4+1
	sbc     #$08
	sta     _quack4+1
;
; else if (quack4.direction == DIR_RIGHT)
;
	jmp     L2987
L2984:	lda     _quack4+4
	cmp     #$03
	bne     L2985
;
; quack4.x += 0x0800;
;
	lda     #$00
	clc
	adc     _quack4
	sta     _quack4
	lda     #$08
	adc     _quack4+1
	sta     _quack4+1
;
; else if (quack4.direction == DIR_UP)
;
	jmp     L2987
L2985:	lda     _quack4+4
	bne     L2986
;
; quack4.y -= 0x0800;
;
	lda     _quack4+2
	sec
	sbc     #$00
	sta     _quack4+2
	lda     _quack4+2+1
	sbc     #$08
;
; else if (quack4.direction == DIR_DOWN)
;
	jmp     L29BD
L2986:	lda     _quack4+4
	cmp     #$01
	bne     L2987
;
; quack4.y += 0x0800;
;
	lda     #$00
	clc
	adc     _quack4+2
	sta     _quack4+2
	lda     #$08
	adc     _quack4+2+1
L29BD:	sta     _quack4+2+1
;
; if (generic_pad & PAD_A)
;
L2987:	lda     _generic_pad
	and     #$80
	beq     L1F11
;
; if ((current_player == 1 && turbo_p1 > 0 && bee1_bigbee_timer == 0) ||
;
	lda     _current_player
	cmp     #$01
	bne     L298B
	lda     _turbo_p1
	beq     L298B
	lda     _bee1_bigbee_timer
	beq     L29C5
;
; (current_player == 2 && turbo_p2 > 0) ||
;
L298B:	lda     _current_player
	cmp     #$02
	bne     L298E
	lda     _turbo_p2
	bne     L29C5
;
; (current_player == 3 && turbo_p3 > 0 && bee3_bigbee_timer == 0) ||
;
L298E:	lda     _current_player
	cmp     #$03
	bne     L2992
	lda     _turbo_p3
	beq     L2992
	lda     _bee3_bigbee_timer
	beq     L29C5
;
; (current_player == 4 && turbo_p4 > 0))
;
L2992:	lda     _current_player
	cmp     #$04
	bne     L1F11
	lda     _turbo_p4
	beq     L1F11
L29C5:	lda     #$01
;
; use_turbo = 1;
;
	sta     _use_turbo
;
; switch (current_player)
;
	lda     _current_player
;
; }
;
	cmp     #$01
	beq     L299B
	cmp     #$02
	beq     L299C
	cmp     #$03
	beq     L299D
	cmp     #$04
	beq     L299E
	jmp     L1F11
;
; turbo_p1--;
;
L299B:	dec     _turbo_p1
;
; break;
;
	jmp     L1F11
;
; turbo_p2--;
;
L299C:	dec     _turbo_p2
;
; break;
;
	jmp     L1F11
;
; turbo_p3--;
;
L299D:	dec     _turbo_p3
;
; break;
;
	jmp     L1F11
;
; turbo_p4--;
;
L299E:	dec     _turbo_p4
;
; if (ducks_go_faster_over_time)
;
L1F11:	lda     _ducks_go_faster_over_time
	beq     L1F1E
;
; if (current_player == 2 || current_player == 4)
;
	lda     _current_player
	cmp     #$02
	beq     L299F
	cmp     #$04
	bne     L1F1E
;
; current_speed = speed_option;
;
L299F:	lda     _speed_option+1
	sta     _current_speed+1
	lda     _speed_option
	sta     _current_speed
;
; if (game_timer > 80)
;
	lda     _game_timer
	cmp     #$51
	bcc     L29A0
;
; current_speed -= DUCK_SPEED_LOW;
;
	lda     _current_speed
	sec
	sbc     #$14
	sta     _current_speed
	bcs     L1F3E
	dec     _current_speed+1
;
; else if (game_timer > 20)
;
	jmp     L1F3E
L29A0:	lda     _game_timer
	cmp     #$15
;
; else if (game_timer > 10)
;
	bcs     L1F1E
	cmp     #$0B
	bcc     L29A2
;
; current_speed += DUCK_SPEED_HIGH;
;
	lda     #$14
	clc
	adc     _current_speed
	sta     _current_speed
	bcc     L1F3E
	inc     _current_speed+1
;
; else if (game_timer > 0)
;
	jmp     L1F3E
L29A2:	lda     _game_timer
	beq     L1F3E
;
; current_speed += DUCK_SPEED_MAX;
;
	lda     #$28
	clc
	adc     _current_speed
	sta     _current_speed
	bcc     L1F3E
	inc     _current_speed+1
;
; else
;
	jmp     L1F3E
;
; current_speed = speed_option; // feature disabled, all normal speed
;
L1F1E:	lda     _speed_option+1
	sta     _current_speed+1
	lda     _speed_option
	sta     _current_speed
;
; if (bee1_bigbee_timer > 0 && current_player == 1)
;
L1F3E:	lda     _bee1_bigbee_timer
	beq     L29A7
	lda     _current_player
	cmp     #$01
	bne     L29A7
;
; current_speed += (current_speed >> 2); // big bee boost
;
	lda     _current_speed
	ldx     _current_speed+1
	jsr     asrax2
	clc
	adc     _current_speed
	sta     _current_speed
	txa
	adc     _current_speed+1
	sta     _current_speed+1
;
; if (bee3_bigbee_timer > 0 && current_player == 3)
;
L29A7:	lda     _bee3_bigbee_timer
	beq     L29AB
	lda     _current_player
	cmp     #$03
	bne     L29AB
;
; current_speed += (current_speed >> 2); // big bee boost
;
	lda     _current_speed
	ldx     _current_speed+1
	jsr     asrax2
	clc
	adc     _current_speed
	sta     _current_speed
	txa
	adc     _current_speed+1
	sta     _current_speed+1
;
; if (generic_pad & PAD_LEFT)
;
L29AB:	lda     _generic_pad
	and     #$02
	beq     L29AD
;
; hero_velocity_x = -current_speed;
;
	lda     _current_speed
	ldx     _current_speed+1
	jsr     negax
	sta     _hero_velocity_x
	stx     _hero_velocity_x+1
;
; if (use_turbo == 1)
;
	lda     _use_turbo
	cmp     #$01
	bne     L29AC
;
; hero_velocity_x -= SPEED_TURBO_BOOST; // add turbo boost
;
	lda     _hero_velocity_x
	sec
	sbc     #$60
	sta     _hero_velocity_x
	bcs     L1F57
	dec     _hero_velocity_x+1
;
; use_turbo = 0;            // reset turbo flag
;
L1F57:	lda     #$00
	sta     _use_turbo
;
; GenericBoxGuy.direction = DIR_LEFT;
;
L29AC:	lda     #$02
	sta     _GenericBoxGuy+4
;
; else if (generic_pad & PAD_RIGHT)
;
	jmp     L1F6A
L29AD:	lda     _generic_pad
	and     #$01
	beq     L29B0
;
; hero_velocity_x = current_speed;
;
	lda     _current_speed+1
	sta     _hero_velocity_x+1
	lda     _current_speed
	sta     _hero_velocity_x
;
; if (use_turbo == 1)
;
	lda     _use_turbo
	cmp     #$01
	bne     L29AE
;
; hero_velocity_x += SPEED_TURBO_BOOST; // add turbo boost
;
	lda     #$60
	clc
	adc     _hero_velocity_x
	sta     _hero_velocity_x
	bcc     L1F65
	inc     _hero_velocity_x+1
;
; use_turbo = 0;            // reset turbo flag
;
L1F65:	lda     #$00
	sta     _use_turbo
;
; GenericBoxGuy.direction = DIR_RIGHT;
;
L29AE:	lda     #$03
	sta     _GenericBoxGuy+4
;
; else
;
	jmp     L1F6A
;
; hero_velocity_x = 0;
;
L29B0:	sta     _hero_velocity_x
	sta     _hero_velocity_x+1
;
; GenericBoxGuy.x += hero_velocity_x;
;
L1F6A:	lda     _hero_velocity_x
	clc
	adc     _GenericBoxGuy
	sta     _GenericBoxGuy
	lda     _hero_velocity_x+1
	adc     _GenericBoxGuy+1
	sta     _GenericBoxGuy+1
;
; if (GenericBoxGuy.x > 0xf000)
;
	lda     _GenericBoxGuy
	cmp     #$01
	lda     _GenericBoxGuy+1
	sbc     #$F0
	bcc     L29B3
;
; if (old_x >= 0x8000)
;
	lda     _old_x
	cmp     #$00
	lda     _old_x+1
	sbc     #$80
	lda     #$00
	tax
	bcc     L29B2
;
; GenericBoxGuy.x = 0xf000; // max right
;
	ldx     #$F0
;
; GenericBoxGuy.x = 0x0000; // max left
;
L29B2:	sta     _GenericBoxGuy
	stx     _GenericBoxGuy+1
;
; Generic.x = GenericBoxGuy.x >> 8; // the collision routine needs an 8 bit value
;
L29B3:	lda     _GenericBoxGuy+1
	sta     _Generic
;
; Generic.y = GenericBoxGuy.y >> 8;
;
	lda     _GenericBoxGuy+3
	sta     _Generic+1
;
; Generic.width = HERO_WIDTH;
;
	lda     #$06
	sta     _Generic+2
;
; Generic.height = HERO_HEIGHT;
;
	sta     _Generic+3
;
; if (hero_velocity_x < 0)
;
	ldx     _hero_velocity_x+1
	cpx     #$80
	bcc     L1F80
;
; if (bg_coll_L())
;
	jsr     _bg_coll_L
;
; else if (hero_velocity_x > 0)
;
	jmp     L29D2
L1F80:	lda     _hero_velocity_x
	cmp     #$01
	lda     _hero_velocity_x+1
	sbc     #$00
	bvs     L1F8D
	eor     #$80
L1F8D:	bpl     L1F8E
;
; if (bg_coll_R())
;
	jsr     _bg_coll_R
L29D2:	tax
	beq     L1F8E
;
; GenericBoxGuy.x = old_x; // revert to old position
;
	lda     _old_x+1
	sta     _GenericBoxGuy+1
	lda     _old_x
	sta     _GenericBoxGuy
;
; collision = 1;
;
	lda     #$01
	sta     _collision
;
; GenericBoxGuy.collision = 1;
;
	sta     _GenericBoxGuy+6
;
; old_y = GenericBoxGuy.y;
;
L1F8E:	lda     _GenericBoxGuy+2+1
	sta     _old_y+1
	lda     _GenericBoxGuy+2
	sta     _old_y
;
; if (generic_pad & PAD_UP)
;
	lda     _generic_pad
	and     #$08
	beq     L29B5
;
; hero_velocity_y = -current_speed;
;
	lda     _current_speed
	ldx     _current_speed+1
	jsr     negax
	sta     _hero_velocity_y
	stx     _hero_velocity_y+1
;
; if (use_turbo == 1)
;
	lda     _use_turbo
	cmp     #$01
	bne     L29B4
;
; hero_velocity_y -= SPEED_TURBO_BOOST; // add turbo boost
;
	lda     _hero_velocity_y
	sec
	sbc     #$60
	sta     _hero_velocity_y
	bcs     L1FA0
	dec     _hero_velocity_y+1
;
; use_turbo = 0;            // reset turbo flag
;
L1FA0:	lda     #$00
	sta     _use_turbo
;
; GenericBoxGuy.direction = DIR_UP; // entually we'll set up and down but not now.
;
L29B4:	lda     #$00
	sta     _GenericBoxGuy+4
;
; else if (generic_pad & PAD_DOWN)
;
	jmp     L1FB3
L29B5:	lda     _generic_pad
	and     #$04
	beq     L29B8
;
; hero_velocity_y = current_speed;
;
	lda     _current_speed+1
	sta     _hero_velocity_y+1
	lda     _current_speed
	sta     _hero_velocity_y
;
; if (use_turbo == 1)
;
	lda     _use_turbo
	cmp     #$01
	bne     L29B6
;
; hero_velocity_y += SPEED_TURBO_BOOST; // add turbo boost
;
	lda     #$60
	clc
	adc     _hero_velocity_y
	sta     _hero_velocity_y
	bcc     L1FAE
	inc     _hero_velocity_y+1
;
; use_turbo = 0;            // reset turbo flag
;
L1FAE:	lda     #$00
	sta     _use_turbo
;
; GenericBoxGuy.direction = DIR_DOWN;
;
L29B6:	lda     #$01
	sta     _GenericBoxGuy+4
;
; else
;
	jmp     L1FB3
;
; hero_velocity_y = 0;
;
L29B8:	sta     _hero_velocity_y
	sta     _hero_velocity_y+1
;
; GenericBoxGuy.y += hero_velocity_y;
;
L1FB3:	lda     _hero_velocity_y
	clc
	adc     _GenericBoxGuy+2
	sta     _GenericBoxGuy+2
	lda     _hero_velocity_y+1
	adc     _GenericBoxGuy+2+1
	sta     _GenericBoxGuy+2+1
;
; if (GenericBoxGuy.y > 0xe000)
;
	lda     _GenericBoxGuy+2
	cmp     #$01
	lda     _GenericBoxGuy+2+1
	sbc     #$E0
	bcc     L29BB
;
; if (old_y >= 0x8000)
;
	lda     _old_y
	cmp     #$00
	lda     _old_y+1
	sbc     #$80
	lda     #$00
	tax
	bcc     L29BA
;
; GenericBoxGuy.y = 0xe000; // max down
;
	ldx     #$E0
;
; GenericBoxGuy.y = 0x0000; // max up
;
L29BA:	sta     _GenericBoxGuy+2
	stx     _GenericBoxGuy+2+1
;
; Generic.x = GenericBoxGuy.x >> 8; // the collision routine needs an 8 bit value
;
L29BB:	lda     _GenericBoxGuy+1
	sta     _Generic
;
; Generic.y = GenericBoxGuy.y >> 8;
;
	lda     _GenericBoxGuy+3
	sta     _Generic+1
;
; if (hero_velocity_y < 0)
;
	ldx     _hero_velocity_y+1
	cpx     #$80
	bcc     L1FC5
;
; if (bg_coll_U())
;
	jsr     _bg_coll_U
;
; else if (hero_velocity_y > 0)
;
	jmp     L29D3
L1FC5:	lda     _hero_velocity_y
	cmp     #$01
	lda     _hero_velocity_y+1
	sbc     #$00
	bvs     L1FD2
	eor     #$80
L1FD2:	bpl     L1FD3
;
; if (bg_coll_D())
;
	jsr     _bg_coll_D
L29D3:	tax
	beq     L1FD3
;
; GenericBoxGuy.y = old_y; // revert to old position
;
	lda     _old_y+1
	sta     _GenericBoxGuy+2+1
	lda     _old_y
	sta     _GenericBoxGuy+2
;
; collision = 1;
;
	lda     #$01
	sta     _collision
;
; GenericBoxGuy.collision = 1;
;
	sta     _GenericBoxGuy+6
;
; check_tile_and_collect();
;
L1FD3:	jsr     _check_tile_and_collect
;
; switch (current_player)
;
	lda     _current_player
;
; }
;
	cmp     #$01
	beq     L1FE0
	cmp     #$02
	beq     L1FE4
	cmp     #$03
	beq     L1FE8
	cmp     #$04
	beq     L1FEC
	rts
;
; BoxGuy1 = GenericBoxGuy;
;
L1FE0:	lda     #<(_BoxGuy1)
	ldx     #>(_BoxGuy1)
	jsr     pushax
	lda     #<(_GenericBoxGuy)
	ldx     #>(_GenericBoxGuy)
	jsr     pushax
	ldx     #$00
	lda     #$07
	jmp     _memcpy
;
; BoxGuy2 = GenericBoxGuy;
;
L1FE4:	lda     #<(_BoxGuy2)
	ldx     #>(_BoxGuy2)
	jsr     pushax
	lda     #<(_GenericBoxGuy)
	ldx     #>(_GenericBoxGuy)
	jsr     pushax
	ldx     #$00
	lda     #$07
	jmp     _memcpy
;
; BoxGuy3 = GenericBoxGuy;
;
L1FE8:	lda     #<(_BoxGuy3)
	ldx     #>(_BoxGuy3)
	jsr     pushax
	lda     #<(_GenericBoxGuy)
	ldx     #>(_GenericBoxGuy)
	jsr     pushax
	ldx     #$00
	lda     #$07
	jmp     _memcpy
;
; BoxGuy4 = GenericBoxGuy;
;
L1FEC:	lda     #<(_BoxGuy4)
	ldx     #>(_BoxGuy4)
	jsr     pushax
	lda     #<(_GenericBoxGuy)
	ldx     #>(_GenericBoxGuy)
	jsr     pushax
	ldx     #$00
	lda     #$07
	jmp     _memcpy

.endproc

; ---------------------------------------------------------------
; void __near__ check_tile_and_collect (void)
; ---------------------------------------------------------------

.segment	"CODE"

.proc	_check_tile_and_collect: near

.segment	"CODE"

;
; if (current_player != 1 && current_player != 3)
;
	ldx     #$00
	lda     _current_player
	cmp     #$01
	beq     L29D9
	cmp     #$03
	beq     L29D9
;
; return; // Chasers cannot collect dots
;
	rts
;
; temp_x = (Generic.x + 4) >> 3; // get this between 0-30
;
L29D9:	lda     _Generic
	clc
	adc     #$04
	bcc     L207A
	inx
L207A:	jsr     shrax3
	sta     _temp_x
;
; temp_y = (Generic.y + 2) >> 3; // get this between 0-32
;
	ldx     #$00
	lda     _Generic+1
	clc
	adc     #$02
	bcc     L207E
	inx
L207E:	jsr     shrax3
	sta     _temp_y
;
; largeindex = (temp_y << 5) + temp_x;
;
	ldx     #$00
	lda     _temp_y
	jsr     aslax4
	stx     tmp1
	asl     a
	rol     tmp1
	ldx     tmp1
	clc
	adc     _temp_x
	bcc     L29D4
	inx
L29D4:	sta     _largeindex
	stx     _largeindex+1
;
; temp = map_ptr[largeindex];
;
	lda     _map_ptr
	clc
	adc     _largeindex
	sta     ptr1
	lda     _map_ptr+1
	adc     _largeindex+1
	sta     ptr1+1
	ldy     #$00
	lda     (ptr1),y
	sta     _temp
;
; for (index = 0; index < sizeof(pellet_tiles); index++)
;
	sty     _index
L29DA:	lda     _index
	cmp     #$06
	bcc     L29DC
;
; }
;
	rts
;
; if (temp == pellet_tiles[index])
;
L29DC:	ldy     _index
	lda     _pellet_tiles,y
	cmp     _temp
	jne     L208E
;
; if (!is_dot_consumed(largeindex))
;
	lda     _largeindex
	ldx     _largeindex+1
	jsr     _is_dot_consumed
	tax
	beq     L29DD
;
; }
;
	rts
;
; mark_dot_consumed(largeindex);
;
L29DD:	lda     _largeindex
	ldx     _largeindex+1
	jsr     _mark_dot_consumed
;
; one_vram_buffer(0x00, NTADR_A(temp_x, temp_y)); // TODO: this is just a blank tile, not as fun as the updated backgrounds
;
	lda     #$00
	jsr     pusha
	tax
	lda     _temp_y
	jsr     aslax4
	stx     tmp1
	asl     a
	rol     tmp1
	sta     ptr1
	lda     _temp_x
	ora     ptr1
	pha
	lda     tmp1
	ora     #$20
	tax
	pla
	jsr     _one_vram_buffer
;
; if (current_player == 1)
;
	lda     _current_player
	cmp     #$01
	bne     L29DB
;
; sfx_play(SFX_TEAM1_DOT_COLLECT, 0);
;
	lda     #$00
	jsr     pusha
	jsr     _sfx_play
;
; team1_score++;
;
	inc     _team1_score
;
; if (team1_score >= 100)
;
	lda     _team1_score
	cmp     #$64
	bcc     L20B6
;
; sfx_play(SFX_TEAM1_WIN, 0);
;
	lda     #$02
	jsr     pusha
	lda     #$00
	jsr     _sfx_play
;
; winner = ONETWO_WINNER;
;
	lda     #$01
	sta     _winner
;
; win_reason = WIN_HONEY_COLLECTED;
;
	lda     #$20
	sta     _win_reason
;
; init_roundover();
;
	jmp     _init_roundover
;
; else if (current_player == 3)
;
L29DB:	lda     _current_player
	cmp     #$03
	bne     L2086
;
; sfx_play(SFX_TEAM2_DOT_COLLECT, 0);
;
	lda     #$01
	jsr     pusha
	lda     #$00
	jsr     _sfx_play
;
; team2_score++;
;
	inc     _team2_score
;
; if (team2_score >= 100)
;
	lda     _team2_score
	cmp     #$64
	bcc     L2086
;
; sfx_play(SFX_TEAM2_WIN, 0);
;
	lda     #$03
	jsr     pusha
	lda     #$00
	jsr     _sfx_play
;
; winner = THREEFOUR_WINNER;
;
	lda     #$02
	sta     _winner
;
; win_reason = WIN_HONEY_COLLECTED;
;
	lda     #$20
	sta     _win_reason
;
; init_roundover();
;
	jmp     _init_roundover
;
; break;
;
L20B6:	rts
;
; else if (temp == blank_tiles[index])
;
L208E:	ldy     _index
	lda     _blank_tiles,y
	cmp     _temp
;
; break;
;
	beq     L2086
;
; for (index = 0; index < sizeof(pellet_tiles); index++)
;
	inc     _index
	jmp     L29DA
;
; }
;
L2086:	rts

.endproc

; ---------------------------------------------------------------
; void __near__ draw_hud (void)
; ---------------------------------------------------------------

.segment	"CODE"

.proc	_draw_hud: near

.segment	"CODE"

;
; write_two_digits(team1_score, 6, 7, 1, &last_team1_score);
;
	jsr     decsp4
	lda     _team1_score
	ldy     #$03
	sta     (sp),y
	lda     #$06
	dey
	sta     (sp),y
	lda     #$07
	dey
	sta     (sp),y
	tya
	dey
	sta     (sp),y
	lda     #<(_last_team1_score)
	ldx     #>(_last_team1_score)
	jsr     _write_two_digits
;
; write_two_digits(game_timer, 15, 16, 1, &last_game_timer);
;
	jsr     decsp4
	lda     _game_timer
	ldy     #$03
	sta     (sp),y
	lda     #$0F
	dey
	sta     (sp),y
	lda     #$10
	dey
	sta     (sp),y
	tya
	dey
	sta     (sp),y
	lda     #<(_last_game_timer)
	ldx     #>(_last_game_timer)
	jsr     _write_two_digits
;
; write_two_digits(team2_score, 24, 25, 1, &last_team2_score);
;
	jsr     decsp4
	lda     _team2_score
	ldy     #$03
	sta     (sp),y
	lda     #$18
	dey
	sta     (sp),y
	lda     #$19
	dey
	sta     (sp),y
	tya
	dey
	sta     (sp),y
	lda     #<(_last_team2_score)
	ldx     #>(_last_team2_score)
	jmp     _write_two_digits

.endproc

; ---------------------------------------------------------------
; void __near__ read_controllers (void)
; ---------------------------------------------------------------

.segment	"CODE"

.proc	_read_controllers: near

.segment	"CODE"

;
; doublepad = pad_poll_4score_1_3();
;
	jsr     _pad_poll_4score_1_3
	sta     _doublepad
	stx     _doublepad+1
;
; pad1 = high_byte(doublepad); // the high byte is the first controller's input
;
	lda     _doublepad+1
	sta     _pad1
;
; pad3 = low_byte(doublepad);  // low byte is the third controller's input
;
	lda     _doublepad
	sta     _pad3
;
; doublepad = pad_poll_4score_2_4();
;
	jsr     _pad_poll_4score_2_4
	sta     _doublepad
	stx     _doublepad+1
;
; pad2 = high_byte(doublepad);
;
	lda     _doublepad+1
	sta     _pad2
;
; pad4 = low_byte(doublepad);
;
	lda     _doublepad
	sta     _pad4
;
; if (game_mode == MODE_GAME)
;
	lda     _game_mode
	cmp     #$02
	bne     L29DE
;
; if (use_ai_player_1)
;
	lda     _use_ai_player_1
	beq     L2183
;
; player1_ai();
;
	jsr     _player1_ai
;
; if (use_ai_player_2)
;
L2183:	lda     _use_ai_player_2
	beq     L2186
;
; player2_ai();
;
	jsr     _player2_ai
;
; if (use_ai_player_3)
;
L2186:	lda     _use_ai_player_3
	beq     L2189
;
; player3_ai();
;
	jsr     _player3_ai
;
; if (use_ai_player_4)
;
L2189:	lda     _use_ai_player_4
	beq     L29DE
;
; player4_ai();
;
	jsr     _player4_ai
;
; pad1_new = pad1 & (pad1 ^ prev_pad1);
;
L29DE:	lda     _prev_pad1
	eor     _pad1
	and     _pad1
	sta     _pad1_new
;
; pad2_new = pad2 & (pad2 ^ prev_pad2);
;
	lda     _prev_pad2
	eor     _pad2
	and     _pad2
	sta     _pad2_new
;
; pad3_new = pad3 & (pad3 ^ prev_pad3);
;
	lda     _prev_pad3
	eor     _pad3
	and     _pad3
	sta     _pad3_new
;
; pad4_new = pad4 & (pad4 ^ prev_pad4);
;
	lda     _prev_pad4
	eor     _pad4
	and     _pad4
	sta     _pad4_new
;
; prev_pad1 = pad1;
;
	lda     _pad1
	sta     _prev_pad1
;
; prev_pad2 = pad2;
;
	lda     _pad2
	sta     _prev_pad2
;
; prev_pad3 = pad3;
;
	lda     _pad3
	sta     _prev_pad3
;
; prev_pad4 = pad4;
;
	lda     _pad4
	sta     _prev_pad4
;
; }
;
	rts

.endproc

; ---------------------------------------------------------------
; void __near__ player1_ai (void)
; ---------------------------------------------------------------

.segment	"CODE"

.proc	_player1_ai: near

.segment	"CODE"

;
; ai_timer_work = ai_timer_p1;
;
	lda     _ai_timer_p1
	sta     _ai_timer_work
;
; ai_dir_work = ai_dir_p1;
;
	lda     _ai_dir_p1
	sta     _ai_dir_work
;
; ai_collision_work = BoxGuy1.collision;
;
	lda     _BoxGuy1+6
	sta     _ai_collision_work
;
; ai_update();
;
	jsr     _ai_update
;
; ai_timer_p1 = ai_timer_work;
;
	lda     _ai_timer_work
	sta     _ai_timer_p1
;
; ai_dir_p1 = ai_dir_work;
;
	lda     _ai_dir_work
	sta     _ai_dir_p1
;
; ai_dir_to_pad();
;
	jsr     _ai_dir_to_pad
;
; pad1 = ai_pad_work;
;
	lda     _ai_pad_work
	sta     _pad1
;
; }
;
	rts

.endproc

; ---------------------------------------------------------------
; void __near__ player2_ai (void)
; ---------------------------------------------------------------

.segment	"CODE"

.proc	_player2_ai: near

.segment	"CODE"

;
; ai_timer_work = ai_timer_p2;
;
	lda     _ai_timer_p2
	sta     _ai_timer_work
;
; ai_dir_work = ai_dir_p2;
;
	lda     _ai_dir_p2
	sta     _ai_dir_work
;
; ai_collision_work = BoxGuy2.collision;
;
	lda     _BoxGuy2+6
	sta     _ai_collision_work
;
; ai_update();
;
	jsr     _ai_update
;
; ai_timer_p2 = ai_timer_work;
;
	lda     _ai_timer_work
	sta     _ai_timer_p2
;
; ai_dir_p2 = ai_dir_work;
;
	lda     _ai_dir_work
	sta     _ai_dir_p2
;
; ai_dir_to_pad();
;
	jsr     _ai_dir_to_pad
;
; pad2 = ai_pad_work;
;
	lda     _ai_pad_work
	sta     _pad2
;
; }
;
	rts

.endproc

; ---------------------------------------------------------------
; void __near__ player3_ai (void)
; ---------------------------------------------------------------

.segment	"CODE"

.proc	_player3_ai: near

.segment	"CODE"

;
; ai_timer_work = ai_timer_p3;
;
	lda     _ai_timer_p3
	sta     _ai_timer_work
;
; ai_dir_work = ai_dir_p3;
;
	lda     _ai_dir_p3
	sta     _ai_dir_work
;
; ai_collision_work = BoxGuy3.collision;
;
	lda     _BoxGuy3+6
	sta     _ai_collision_work
;
; ai_update();
;
	jsr     _ai_update
;
; ai_timer_p3 = ai_timer_work;
;
	lda     _ai_timer_work
	sta     _ai_timer_p3
;
; ai_dir_p3 = ai_dir_work;
;
	lda     _ai_dir_work
	sta     _ai_dir_p3
;
; ai_dir_to_pad();
;
	jsr     _ai_dir_to_pad
;
; pad3 = ai_pad_work;
;
	lda     _ai_pad_work
	sta     _pad3
;
; }
;
	rts

.endproc

; ---------------------------------------------------------------
; void __near__ player4_ai (void)
; ---------------------------------------------------------------

.segment	"CODE"

.proc	_player4_ai: near

.segment	"CODE"

;
; ai_timer_work = ai_timer_p4;
;
	lda     _ai_timer_p4
	sta     _ai_timer_work
;
; ai_dir_work = ai_dir_p4;
;
	lda     _ai_dir_p4
	sta     _ai_dir_work
;
; ai_collision_work = BoxGuy4.collision;
;
	lda     _BoxGuy4+6
	sta     _ai_collision_work
;
; ai_update();
;
	jsr     _ai_update
;
; ai_timer_p4 = ai_timer_work;
;
	lda     _ai_timer_work
	sta     _ai_timer_p4
;
; ai_dir_p4 = ai_dir_work;
;
	lda     _ai_dir_work
	sta     _ai_dir_p4
;
; ai_dir_to_pad();
;
	jsr     _ai_dir_to_pad
;
; pad4 = ai_pad_work;
;
	lda     _ai_pad_work
	sta     _pad4
;
; }
;
	rts

.endproc

; ---------------------------------------------------------------
; void __near__ game_loop (void)
; ---------------------------------------------------------------

.segment	"CODE"

.proc	_game_loop: near

.segment	"CODE"

;
; ppu_wait_nmi();
;
	jsr     _ppu_wait_nmi
;
; game_counters();
;
	jsr     _game_counters
;
; read_controllers();
;
	jsr     _read_controllers
;
; quack_movement();
;
	jsr     _quack_movement
;
; current_player = 1;
;
	lda     #$01
	sta     _current_player
;
; GenericBoxGuy = BoxGuy1;
;
	lda     #<(_GenericBoxGuy)
	ldx     #>(_GenericBoxGuy)
	jsr     pushax
	lda     #<(_BoxGuy1)
	ldx     #>(_BoxGuy1)
	jsr     pushax
	ldx     #$00
	lda     #$07
	jsr     _memcpy
;
; generic_pad = pad1;
;
	lda     _pad1
	sta     _generic_pad
;
; movement(); // this assigns old_x and old_y
;
	jsr     _movement
;
; temp_x = GenericBoxGuy.x >> 8;
;
	lda     _GenericBoxGuy+1
	sta     _temp_x
;
; temp_y = GenericBoxGuy.y >> 8;
;
	lda     _GenericBoxGuy+3
	sta     _temp_y
;
; temp_x2 = BoxGuy3.x >> 8;
;
	lda     _BoxGuy3+1
	sta     _temp_x2
;
; temp_y2 = BoxGuy3.y >> 8;
;
	lda     _BoxGuy3+3
	sta     _temp_y2
;
; if (sprite_collision()) // 1 and 3, both seekers
;
	jsr     _sprite_collision
	tax
	beq     L29E1
;
; BoxGuy1.x = old_x;
;
	lda     _old_x+1
	sta     _BoxGuy1+1
	lda     _old_x
	sta     _BoxGuy1
;
; BoxGuy1.y = old_y;
;
	lda     _old_y+1
	sta     _BoxGuy1+2+1
	lda     _old_y
	sta     _BoxGuy1+2
;
; BoxGuy1.collision = 1;
;
	lda     #$01
	sta     _BoxGuy1+6
;
; BoxGuy3.collision = 1;
;
	sta     _BoxGuy3+6
;
; current_player = 2;
;
L29E1:	lda     #$02
	sta     _current_player
;
; GenericBoxGuy = BoxGuy2;
;
	lda     #<(_GenericBoxGuy)
	ldx     #>(_GenericBoxGuy)
	jsr     pushax
	lda     #<(_BoxGuy2)
	ldx     #>(_BoxGuy2)
	jsr     pushax
	ldx     #$00
	lda     #$07
	jsr     _memcpy
;
; generic_pad = pad2;
;
	lda     _pad2
	sta     _generic_pad
;
; movement();
;
	jsr     _movement
;
; if (!(pad2 & (PAD_LEFT | PAD_RIGHT | PAD_UP | PAD_DOWN)))
;
	lda     _pad2
	and     #$0F
;
; else
;
	beq     L29DF
;
; BoxGuy2.moving = 1;
;
	lda     #$01
L29DF:	sta     _BoxGuy2+5
;
; temp_x = GenericBoxGuy.x >> 8;
;
	lda     _GenericBoxGuy+1
	sta     _temp_x
;
; temp_y = GenericBoxGuy.y >> 8;
;
	lda     _GenericBoxGuy+3
	sta     _temp_y
;
; temp_x2 = BoxGuy4.x >> 8;
;
	lda     _BoxGuy4+1
	sta     _temp_x2
;
; temp_y2 = BoxGuy4.y >> 8;
;
	lda     _BoxGuy4+3
	sta     _temp_y2
;
; if (sprite_collision()) // player 2 blocks player 4 (chasers)
;
	jsr     _sprite_collision
	tax
	beq     L29E3
;
; BoxGuy2.x = old_x;
;
	lda     _old_x+1
	sta     _BoxGuy2+1
	lda     _old_x
	sta     _BoxGuy2
;
; BoxGuy2.y = old_y;
;
	lda     _old_y+1
	sta     _BoxGuy2+2+1
	lda     _old_y
	sta     _BoxGuy2+2
;
; BoxGuy2.collision = 1;
;
	lda     #$01
	sta     _BoxGuy2+6
;
; BoxGuy4.collision = 1;
;
	sta     _BoxGuy4+6
;
; current_player = 3;
;
L29E3:	lda     #$03
	sta     _current_player
;
; GenericBoxGuy = BoxGuy3;
;
	lda     #<(_GenericBoxGuy)
	ldx     #>(_GenericBoxGuy)
	jsr     pushax
	lda     #<(_BoxGuy3)
	ldx     #>(_BoxGuy3)
	jsr     pushax
	ldx     #$00
	lda     #$07
	jsr     _memcpy
;
; generic_pad = pad3;
;
	lda     _pad3
	sta     _generic_pad
;
; movement();
;
	jsr     _movement
;
; temp_x = BoxGuy1.x >> 8;
;
	lda     _BoxGuy1+1
	sta     _temp_x
;
; temp_y = BoxGuy1.y >> 8;
;
	lda     _BoxGuy1+3
	sta     _temp_y
;
; temp_x2 = GenericBoxGuy.x >> 8;
;
	lda     _GenericBoxGuy+1
	sta     _temp_x2
;
; temp_y2 = GenericBoxGuy.y >> 8;
;
	lda     _GenericBoxGuy+3
	sta     _temp_y2
;
; if (sprite_collision()) // 1 blocks 3 (seekers)
;
	jsr     _sprite_collision
	tax
	beq     L29E4
;
; BoxGuy3.x = old_x;
;
	lda     _old_x+1
	sta     _BoxGuy3+1
	lda     _old_x
	sta     _BoxGuy3
;
; BoxGuy3.y = old_y;
;
	lda     _old_y+1
	sta     _BoxGuy3+2+1
	lda     _old_y
	sta     _BoxGuy3+2
;
; BoxGuy3.collision = 1;
;
	lda     #$01
	sta     _BoxGuy3+6
;
; BoxGuy1.collision = 1;
;
	sta     _BoxGuy1+6
;
; current_player = 4;
;
L29E4:	lda     #$04
	sta     _current_player
;
; GenericBoxGuy = BoxGuy4;
;
	lda     #<(_GenericBoxGuy)
	ldx     #>(_GenericBoxGuy)
	jsr     pushax
	lda     #<(_BoxGuy4)
	ldx     #>(_BoxGuy4)
	jsr     pushax
	ldx     #$00
	lda     #$07
	jsr     _memcpy
;
; generic_pad = pad4;
;
	lda     _pad4
	sta     _generic_pad
;
; movement();
;
	jsr     _movement
;
; if (!(pad4 & (PAD_LEFT | PAD_RIGHT | PAD_UP | PAD_DOWN)))
;
	lda     _pad4
	and     #$0F
;
; else
;
	beq     L29E0
;
; BoxGuy4.moving = 1;
;
	lda     #$01
L29E0:	sta     _BoxGuy4+5
;
; temp_x = BoxGuy2.x >> 8;
;
	lda     _BoxGuy2+1
	sta     _temp_x
;
; temp_y = BoxGuy2.y >> 8;
;
	lda     _BoxGuy2+3
	sta     _temp_y
;
; temp_x2 = GenericBoxGuy.x >> 8;
;
	lda     _GenericBoxGuy+1
	sta     _temp_x2
;
; temp_y2 = GenericBoxGuy.y >> 8;
;
	lda     _GenericBoxGuy+3
	sta     _temp_y2
;
; if (sprite_collision()) // 2 blocks 4 (seekers)
;
	jsr     _sprite_collision
	tax
	beq     L29E6
;
; BoxGuy4.x = old_x;
;
	lda     _old_x+1
	sta     _BoxGuy4+1
	lda     _old_x
	sta     _BoxGuy4
;
; BoxGuy4.y = old_y;
;
	lda     _old_y+1
	sta     _BoxGuy4+2+1
	lda     _old_y
	sta     _BoxGuy4+2
;
; BoxGuy4.collision = 1;
;
	lda     #$01
	sta     _BoxGuy4+6
;
; BoxGuy2.collision = 1;
;
	sta     _BoxGuy2+6
;
; if (bee1_bigbee_timer == 0)
;
L29E6:	lda     _bee1_bigbee_timer
	bne     L29E7
;
; temp_x = BoxGuy1.x >> 8;
;
	lda     _BoxGuy1+1
	sta     _temp_x
;
; temp_y = BoxGuy1.y >> 8;
;
	lda     _BoxGuy1+3
	sta     _temp_y
;
; temp = 1; // which bee are we checking
;
	lda     #$01
	sta     _temp
;
; check_powerup();
;
	jsr     _check_powerup
;
; if (bee3_bigbee_timer == 0)
;
L29E7:	lda     _bee3_bigbee_timer
	bne     L29E8
;
; temp_x = BoxGuy3.x >> 8;
;
	lda     _BoxGuy3+1
	sta     _temp_x
;
; temp_y = BoxGuy3.y >> 8;
;
	lda     _BoxGuy3+3
	sta     _temp_y
;
; temp = 3;
;
	lda     #$03
	sta     _temp
;
; check_powerup();
;
	jsr     _check_powerup
;
; if (bee1_bigbee_timer > 0)
;
L29E8:	lda     _bee1_bigbee_timer
	beq     L29EA
;
; temp_x = BoxGuy1.x >> 8;
;
	lda     _BoxGuy1+1
	sta     _temp_x
;
; temp_y = BoxGuy1.y >> 8;
;
	lda     _BoxGuy1+3
	sta     _temp_y
;
; temp_x2 = BoxGuy2.x >> 8;
;
	lda     _BoxGuy2+1
	sta     _temp_x2
;
; temp_y2 = BoxGuy2.y >> 8;
;
	lda     _BoxGuy2+3
	sta     _temp_y2
;
; if (sprite_collision())
;
	jsr     _sprite_collision
	tax
	beq     L29E9
;
; sfx_play(SFX_TEAM2_WIN, 0);
;
	lda     #$03
	jsr     pusha
	lda     #$00
	jsr     _sfx_play
;
; winner = THREEFOUR_WINNER;
;
	lda     #$02
	sta     _winner
;
; win_reason = WIN_FRIENDLY_FIRE_DUCK_EATEN;
;
	lda     #$08
	sta     _win_reason
;
; init_roundover();
;
	jmp     _init_roundover
;
; temp_x2 = BoxGuy4.x >> 8;
;
L29E9:	lda     _BoxGuy4+1
	sta     _temp_x2
;
; temp_y2 = BoxGuy4.y >> 8;
;
	lda     _BoxGuy4+3
	sta     _temp_y2
;
; if (sprite_collision())
;
	jsr     _sprite_collision
	tax
	beq     L29EA
;
; sfx_play(SFX_TEAM1_WIN, 0);
;
	lda     #$02
	jsr     pusha
	lda     #$00
	jsr     _sfx_play
;
; winner = ONETWO_WINNER;
;
	lda     #$01
	sta     _winner
;
; win_reason = WIN_DUCK_EATEN;
;
	lda     #$02
	sta     _win_reason
;
; init_roundover();
;
	jmp     _init_roundover
;
; if (bee3_bigbee_timer > 0)
;
L29EA:	lda     _bee3_bigbee_timer
	beq     L29EC
;
; temp_x = BoxGuy3.x >> 8;
;
	lda     _BoxGuy3+1
	sta     _temp_x
;
; temp_y = BoxGuy3.y >> 8;
;
	lda     _BoxGuy3+3
	sta     _temp_y
;
; temp_x2 = BoxGuy4.x >> 8;
;
	lda     _BoxGuy4+1
	sta     _temp_x2
;
; temp_y2 = BoxGuy4.y >> 8;
;
	lda     _BoxGuy4+3
	sta     _temp_y2
;
; if (sprite_collision())
;
	jsr     _sprite_collision
	tax
	beq     L29EB
;
; sfx_play(SFX_TEAM1_WIN, 0);
;
	lda     #$02
	jsr     pusha
	lda     #$00
	jsr     _sfx_play
;
; winner = ONETWO_WINNER;
;
	lda     #$01
	sta     _winner
;
; win_reason = WIN_FRIENDLY_FIRE_DUCK_EATEN;
;
	lda     #$08
	sta     _win_reason
;
; init_roundover();
;
	jmp     _init_roundover
;
; temp_x2 = BoxGuy2.x >> 8;
;
L29EB:	lda     _BoxGuy2+1
	sta     _temp_x2
;
; temp_y2 = BoxGuy2.y >> 8;
;
	lda     _BoxGuy2+3
	sta     _temp_y2
;
; if (sprite_collision())
;
	jsr     _sprite_collision
	tax
	beq     L29EC
;
; sfx_play(SFX_TEAM2_WIN, 0);
;
	lda     #$03
	jsr     pusha
	lda     #$00
	jsr     _sfx_play
;
; winner = THREEFOUR_WINNER;
;
	lda     #$02
	sta     _winner
;
; win_reason = WIN_DUCK_EATEN;
;
	sta     _win_reason
;
; init_roundover();
;
	jmp     _init_roundover
;
; temp_x = BoxGuy1.x >> 8;
;
L29EC:	lda     _BoxGuy1+1
	sta     _temp_x
;
; temp_y = BoxGuy1.y >> 8;
;
	lda     _BoxGuy1+3
	sta     _temp_y
;
; temp_x2 = BoxGuy2.x >> 8;
;
	lda     _BoxGuy2+1
	sta     _temp_x2
;
; temp_y2 = BoxGuy2.y >> 8;
;
	lda     _BoxGuy2+3
	sta     _temp_y2
;
; if (sprite_collision())
;
	jsr     _sprite_collision
	tax
	beq     L29ED
;
; sfx_play(SFX_TEAM2_WIN, 0);
;
	lda     #$03
	jsr     pusha
	lda     #$00
	jsr     _sfx_play
;
; winner = THREEFOUR_WINNER;
;
	lda     #$02
	sta     _winner
;
; win_reason = WIN_FRIENDLY_FIRE_BEE_EATEN;
;
	lda     #$10
	sta     _win_reason
;
; init_roundover();
;
	jmp     _init_roundover
;
; temp_x = BoxGuy3.x >> 8;
;
L29ED:	lda     _BoxGuy3+1
	sta     _temp_x
;
; temp_y = BoxGuy3.y >> 8;
;
	lda     _BoxGuy3+3
	sta     _temp_y
;
; temp_x2 = BoxGuy4.x >> 8;
;
	lda     _BoxGuy4+1
	sta     _temp_x2
;
; temp_y2 = BoxGuy4.y >> 8;
;
	lda     _BoxGuy4+3
	sta     _temp_y2
;
; if (sprite_collision())
;
	jsr     _sprite_collision
	tax
	beq     L29EE
;
; sfx_play(SFX_TEAM1_WIN, 0);
;
	lda     #$02
	jsr     pusha
	lda     #$00
	jsr     _sfx_play
;
; winner = ONETWO_WINNER;
;
	lda     #$01
	sta     _winner
;
; win_reason = WIN_FRIENDLY_FIRE_BEE_EATEN;
;
	lda     #$10
	sta     _win_reason
;
; init_roundover();
;
	jmp     _init_roundover
;
; temp_x = BoxGuy1.x >> 8;
;
L29EE:	lda     _BoxGuy1+1
	sta     _temp_x
;
; temp_y = BoxGuy1.y >> 8;
;
	lda     _BoxGuy1+3
	sta     _temp_y
;
; temp_x2 = BoxGuy4.x >> 8;
;
	lda     _BoxGuy4+1
	sta     _temp_x2
;
; temp_y2 = BoxGuy4.y >> 8;
;
	lda     _BoxGuy4+3
	sta     _temp_y2
;
; if (sprite_collision())
;
	jsr     _sprite_collision
	tax
	beq     L29EF
;
; sfx_play(SFX_TEAM2_WIN, 0);
;
	lda     #$03
	jsr     pusha
	lda     #$00
	jsr     _sfx_play
;
; winner = THREEFOUR_WINNER;
;
	lda     #$02
	sta     _winner
;
; win_reason = WIN_BEE_EATEN;
;
	lda     #$04
	sta     _win_reason
;
; init_roundover();
;
	jmp     _init_roundover
;
; temp_x = BoxGuy2.x >> 8;
;
L29EF:	lda     _BoxGuy2+1
	sta     _temp_x
;
; temp_y = BoxGuy2.y >> 8;
;
	lda     _BoxGuy2+3
	sta     _temp_y
;
; temp_x2 = BoxGuy3.x >> 8;
;
	lda     _BoxGuy3+1
	sta     _temp_x2
;
; temp_y2 = BoxGuy3.y >> 8;
;
	lda     _BoxGuy3+3
	sta     _temp_y2
;
; if (sprite_collision())
;
	jsr     _sprite_collision
	tax
	beq     L22B2
;
; sfx_play(SFX_TEAM1_WIN, 0);
;
	lda     #$02
	jsr     pusha
	lda     #$00
	jsr     _sfx_play
;
; winner = ONETWO_WINNER;
;
	lda     #$01
	sta     _winner
;
; win_reason = WIN_BEE_EATEN;
;
	lda     #$04
	sta     _win_reason
;
; init_roundover();
;
	jmp     _init_roundover
;
; draw_sprites();
;
L22B2:	jsr     _draw_sprites
;
; update_hud();
;
	jsr     _update_hud
;
; draw_hud();
;
	jmp     _draw_hud

.endproc

; ---------------------------------------------------------------
; void __near__ title_loop (void)
; ---------------------------------------------------------------

.segment	"CODE"

.proc	_title_loop: near

.segment	"CODE"

;
; frame_counter++;
;
L22C0:	inc     _frame_counter
;
; ppu_wait_nmi();
;
	jsr     _ppu_wait_nmi
;
; read_controllers();
;
	jsr     _read_controllers
;
; if (pad1_new & PAD_UP)
;
	lda     _pad1_new
	and     #$08
	beq     L29F0
;
; if ((BoxGuy1.y >> 8) > 160)
;
	lda     _BoxGuy1+3
	cmp     #$A1
	bcc     L29F0
;
; BoxGuy1.y -= 0x0400; // Move up 4 pixels (0x0400 = 1024 sub-pixels)
;
	lda     _BoxGuy1+2
	sec
	sbc     #$00
	sta     _BoxGuy1+2
	lda     _BoxGuy1+2+1
	sbc     #$04
	sta     _BoxGuy1+2+1
;
; if (pad2_new & PAD_UP)
;
L29F0:	lda     _pad2_new
	and     #$08
	beq     L29F1
;
; if ((BoxGuy2.y >> 8) > 160)
;
	lda     _BoxGuy2+3
	cmp     #$A1
	bcc     L29F1
;
; BoxGuy2.y -= 0x0400;
;
	lda     _BoxGuy2+2
	sec
	sbc     #$00
	sta     _BoxGuy2+2
	lda     _BoxGuy2+2+1
	sbc     #$04
	sta     _BoxGuy2+2+1
;
; if (pad3_new & PAD_UP)
;
L29F1:	lda     _pad3_new
	and     #$08
	beq     L29F2
;
; if ((BoxGuy3.y >> 8) > 160)
;
	lda     _BoxGuy3+3
	cmp     #$A1
	bcc     L29F2
;
; BoxGuy3.y -= 0x0400;
;
	lda     _BoxGuy3+2
	sec
	sbc     #$00
	sta     _BoxGuy3+2
	lda     _BoxGuy3+2+1
	sbc     #$04
	sta     _BoxGuy3+2+1
;
; if (pad4_new & PAD_UP)
;
L29F2:	lda     _pad4_new
	and     #$08
	beq     L29F3
;
; if ((BoxGuy4.y >> 8) > 160)
;
	lda     _BoxGuy4+3
	cmp     #$A1
	bcc     L29F3
;
; BoxGuy4.y -= 0x0400;
;
	lda     _BoxGuy4+2
	sec
	sbc     #$00
	sta     _BoxGuy4+2
	lda     _BoxGuy4+2+1
	sbc     #$04
	sta     _BoxGuy4+2+1
;
; if (pad1_new & PAD_START || pad2_new & PAD_START || pad3_new & PAD_START || pad4_new & PAD_START)
;
L29F3:	lda     _pad1_new
	and     #$10
	bne     L29F4
	lda     _pad2_new
	and     #$10
	bne     L29F4
	lda     _pad3_new
	and     #$10
	bne     L29F4
	lda     _pad4_new
	and     #$10
	jeq     L22C0
;
; init_options_loop();
;
L29F4:	jmp     _init_options_loop

.endproc

; ---------------------------------------------------------------
; void __near__ options_loop (void)
; ---------------------------------------------------------------

.segment	"CODE"

.proc	_options_loop: near

.segment	"CODE"

;
; ppu_wait_nmi();
;
L22E8:	jsr     _ppu_wait_nmi
;
; frame_counter++;
;
	inc     _frame_counter
;
; oam_clear();
;
	jsr     _oam_clear
;
; if (++options_anim_tick >= 10)
;
	inc     _options_anim_tick
	lda     _options_anim_tick
	cmp     #$0A
	bcc     L29FA
;
; options_anim_tick = 0;
;
	lda     #$00
	sta     _options_anim_tick
;
; if (++anim_frame_1 >= 3)
;
	inc     _anim_frame_1
	lda     _anim_frame_1
	cmp     #$03
	bcc     L22F3
;
; anim_frame_1 = 0;
;
	lda     #$00
	sta     _anim_frame_1
;
; if (!use_ai_player_2)
;
L22F3:	lda     _use_ai_player_2
	bne     L22F9
;
; if (++anim_frame_2 >= 3)
;
	inc     _anim_frame_2
	lda     _anim_frame_2
	cmp     #$03
	bcc     L22F9
;
; anim_frame_2 = 0;
;
	lda     #$00
	sta     _anim_frame_2
;
; if (!use_ai_player_3)
;
L22F9:	lda     _use_ai_player_3
	bne     L22FF
;
; if (++anim_frame_3 >= 3)
;
	inc     _anim_frame_3
	lda     _anim_frame_3
	cmp     #$03
	bcc     L22FF
;
; anim_frame_3 = 0;
;
	lda     #$00
	sta     _anim_frame_3
;
; if (!use_ai_player_4)
;
L22FF:	lda     _use_ai_player_4
	bne     L29FA
;
; if (++anim_frame_4 >= 3)
;
	inc     _anim_frame_4
	lda     _anim_frame_4
	cmp     #$03
	bcc     L29FA
;
; anim_frame_4 = 0;
;
	lda     #$00
	sta     _anim_frame_4
;
; switch (anim_frame_1)
;
L29FA:	lda     _anim_frame_1
;
; }
;
	beq     L230D
	cmp     #$01
	beq     L2313
	cmp     #$02
	beq     L2319
	jmp     L230B
;
; oam_meta_spr(temp_x, temp_y, gamesprites_smallbeeright0_data);
;
L230D:	jsr     decsp2
	lda     _temp_x
	ldy     #$01
	sta     (sp),y
	lda     _temp_y
	dey
	sta     (sp),y
	lda     #<(_gamesprites_smallbeeright0_data)
	ldx     #>(_gamesprites_smallbeeright0_data)
;
; break;
;
	jmp     L29F5
;
; oam_meta_spr(temp_x, temp_y, gamesprites_smallbeeright1_data);
;
L2313:	jsr     decsp2
	lda     _temp_x
	ldy     #$01
	sta     (sp),y
	lda     _temp_y
	dey
	sta     (sp),y
	lda     #<(_gamesprites_smallbeeright1_data)
	ldx     #>(_gamesprites_smallbeeright1_data)
;
; break;
;
	jmp     L29F5
;
; oam_meta_spr(temp_x, temp_y, gamesprites_smallbeeright2_data);
;
L2319:	jsr     decsp2
	lda     _temp_x
	ldy     #$01
	sta     (sp),y
	lda     _temp_y
	dey
	sta     (sp),y
	lda     #<(_gamesprites_smallbeeright2_data)
	ldx     #>(_gamesprites_smallbeeright2_data)
L29F5:	jsr     _oam_meta_spr
;
; if (use_ai_player_1)
;
L230B:	lda     _use_ai_player_1
	beq     L231E
;
; oam_meta_spr(64, 200, gamesprites_smallbeeright0_data);
;
	jsr     decsp2
	lda     #$40
	ldy     #$01
	sta     (sp),y
	lda     #$C8
	dey
	sta     (sp),y
	lda     #<(_gamesprites_smallbeeright0_data)
	ldx     #>(_gamesprites_smallbeeright0_data)
;
; else
;
	jmp     L29F6
;
; switch (anim_frame_1)
;
L231E:	lda     _anim_frame_1
;
; }
;
	beq     L2329
	cmp     #$01
	beq     L232F
	cmp     #$02
	beq     L2335
	jmp     L2327
;
; oam_meta_spr(64, 200, gamesprites_smallbeeright0_data);
;
L2329:	jsr     decsp2
	lda     #$40
	ldy     #$01
	sta     (sp),y
	lda     #$C8
	dey
	sta     (sp),y
	lda     #<(_gamesprites_smallbeeright0_data)
	ldx     #>(_gamesprites_smallbeeright0_data)
;
; break;
;
	jmp     L29F6
;
; oam_meta_spr(64, 200, gamesprites_smallbeeright1_data);
;
L232F:	jsr     decsp2
	lda     #$40
	ldy     #$01
	sta     (sp),y
	lda     #$C8
	dey
	sta     (sp),y
	lda     #<(_gamesprites_smallbeeright1_data)
	ldx     #>(_gamesprites_smallbeeright1_data)
;
; break;
;
	jmp     L29F6
;
; oam_meta_spr(64, 200, gamesprites_smallbeeright2_data);
;
L2335:	jsr     decsp2
	lda     #$40
	ldy     #$01
	sta     (sp),y
	lda     #$C8
	dey
	sta     (sp),y
	lda     #<(_gamesprites_smallbeeright2_data)
	ldx     #>(_gamesprites_smallbeeright2_data)
L29F6:	jsr     _oam_meta_spr
;
; if (use_ai_player_2)
;
L2327:	lda     _use_ai_player_2
	beq     L233A
;
; oam_meta_spr(104, 200, gamesprites_smallduckright0_data);
;
	jsr     decsp2
	lda     #$68
	ldy     #$01
	sta     (sp),y
	lda     #$C8
	dey
	sta     (sp),y
	lda     #<(_gamesprites_smallduckright0_data)
	ldx     #>(_gamesprites_smallduckright0_data)
;
; else
;
	jmp     L29F7
;
; switch (anim_frame_2)
;
L233A:	lda     _anim_frame_2
;
; }
;
	beq     L2345
	cmp     #$01
	beq     L234B
	cmp     #$02
	beq     L2351
	jmp     L2343
;
; oam_meta_spr(104, 200, gamesprites_smallduckright0_data);
;
L2345:	jsr     decsp2
	lda     #$68
	ldy     #$01
	sta     (sp),y
	lda     #$C8
	dey
	sta     (sp),y
	lda     #<(_gamesprites_smallduckright0_data)
	ldx     #>(_gamesprites_smallduckright0_data)
;
; break;
;
	jmp     L29F7
;
; oam_meta_spr(104, 200, gamesprites_smallduckright1_data);
;
L234B:	jsr     decsp2
	lda     #$68
	ldy     #$01
	sta     (sp),y
	lda     #$C8
	dey
	sta     (sp),y
	lda     #<(_gamesprites_smallduckright1_data)
	ldx     #>(_gamesprites_smallduckright1_data)
;
; break;
;
	jmp     L29F7
;
; oam_meta_spr(104, 200, gamesprites_smallduckright2_data);
;
L2351:	jsr     decsp2
	lda     #$68
	ldy     #$01
	sta     (sp),y
	lda     #$C8
	dey
	sta     (sp),y
	lda     #<(_gamesprites_smallduckright2_data)
	ldx     #>(_gamesprites_smallduckright2_data)
L29F7:	jsr     _oam_meta_spr
;
; if (use_ai_player_3)
;
L2343:	lda     _use_ai_player_3
	beq     L2356
;
; oam_meta_spr(144, 200, gamesprites_smallbee2right0_data);
;
	jsr     decsp2
	lda     #$90
	ldy     #$01
	sta     (sp),y
	lda     #$C8
	dey
	sta     (sp),y
	lda     #<(_gamesprites_smallbee2right0_data)
	ldx     #>(_gamesprites_smallbee2right0_data)
;
; else
;
	jmp     L29F8
;
; switch (anim_frame_3)
;
L2356:	lda     _anim_frame_3
;
; }
;
	beq     L2361
	cmp     #$01
	beq     L2367
	cmp     #$02
	beq     L236D
	jmp     L235F
;
; oam_meta_spr(144, 200, gamesprites_smallbee2right0_data);
;
L2361:	jsr     decsp2
	lda     #$90
	ldy     #$01
	sta     (sp),y
	lda     #$C8
	dey
	sta     (sp),y
	lda     #<(_gamesprites_smallbee2right0_data)
	ldx     #>(_gamesprites_smallbee2right0_data)
;
; break;
;
	jmp     L29F8
;
; oam_meta_spr(144, 200, gamesprites_smallbee2right1_data);
;
L2367:	jsr     decsp2
	lda     #$90
	ldy     #$01
	sta     (sp),y
	lda     #$C8
	dey
	sta     (sp),y
	lda     #<(_gamesprites_smallbee2right1_data)
	ldx     #>(_gamesprites_smallbee2right1_data)
;
; break;
;
	jmp     L29F8
;
; oam_meta_spr(144, 200, gamesprites_smallbee2right2_data);
;
L236D:	jsr     decsp2
	lda     #$90
	ldy     #$01
	sta     (sp),y
	lda     #$C8
	dey
	sta     (sp),y
	lda     #<(_gamesprites_smallbee2right2_data)
	ldx     #>(_gamesprites_smallbee2right2_data)
L29F8:	jsr     _oam_meta_spr
;
; if (use_ai_player_4)
;
L235F:	lda     _use_ai_player_4
	beq     L2372
;
; oam_meta_spr(184, 200, gamesprites_smallduck2right0_data);
;
	jsr     decsp2
	lda     #$B8
	ldy     #$01
	sta     (sp),y
	lda     #$C8
	dey
	sta     (sp),y
	lda     #<(_gamesprites_smallduck2right0_data)
	ldx     #>(_gamesprites_smallduck2right0_data)
;
; else
;
	jmp     L29F9
;
; switch (anim_frame_4)
;
L2372:	lda     _anim_frame_4
;
; }
;
	beq     L237D
	cmp     #$01
	beq     L2383
	cmp     #$02
	beq     L2389
	jmp     L237B
;
; oam_meta_spr(184, 200, gamesprites_smallduck2right0_data);
;
L237D:	jsr     decsp2
	lda     #$B8
	ldy     #$01
	sta     (sp),y
	lda     #$C8
	dey
	sta     (sp),y
	lda     #<(_gamesprites_smallduck2right0_data)
	ldx     #>(_gamesprites_smallduck2right0_data)
;
; break;
;
	jmp     L29F9
;
; oam_meta_spr(184, 200, gamesprites_smallduck2right1_data);
;
L2383:	jsr     decsp2
	lda     #$B8
	ldy     #$01
	sta     (sp),y
	lda     #$C8
	dey
	sta     (sp),y
	lda     #<(_gamesprites_smallduck2right1_data)
	ldx     #>(_gamesprites_smallduck2right1_data)
;
; break;
;
	jmp     L29F9
;
; oam_meta_spr(184, 200, gamesprites_smallduck2right2_data);
;
L2389:	jsr     decsp2
	lda     #$B8
	ldy     #$01
	sta     (sp),y
	lda     #$C8
	dey
	sta     (sp),y
	lda     #<(_gamesprites_smallduck2right2_data)
	ldx     #>(_gamesprites_smallduck2right2_data)
L29F9:	jsr     _oam_meta_spr
;
; read_controllers();
;
L237B:	jsr     _read_controllers
;
; if (pad1_new & PAD_SELECT)
;
	lda     _pad1_new
	and     #$20
	beq     L29FB
;
; use_ai_player_1 ^= 1;
;
	lda     _use_ai_player_1
	eor     #$01
	sta     _use_ai_player_1
;
; if (pad2_new & PAD_SELECT)
;
L29FB:	lda     _pad2_new
	and     #$20
	beq     L29FC
;
; use_ai_player_2 ^= 1;
;
	lda     _use_ai_player_2
	eor     #$01
	sta     _use_ai_player_2
;
; if (use_ai_player_2)
;
	lda     _use_ai_player_2
	beq     L29FC
;
; anim_frame_2 = 0;
;
	lda     #$00
	sta     _anim_frame_2
;
; if (pad3_new & PAD_SELECT)
;
L29FC:	lda     _pad3_new
	and     #$20
	beq     L29FD
;
; use_ai_player_3 ^= 1;
;
	lda     _use_ai_player_3
	eor     #$01
	sta     _use_ai_player_3
;
; if (use_ai_player_3)
;
	lda     _use_ai_player_3
	beq     L29FD
;
; anim_frame_3 = 0;
;
	lda     #$00
	sta     _anim_frame_3
;
; if (pad4_new & PAD_SELECT)
;
L29FD:	lda     _pad4_new
	and     #$20
	beq     L29FE
;
; use_ai_player_4 ^= 1;
;
	lda     _use_ai_player_4
	eor     #$01
	sta     _use_ai_player_4
;
; if (use_ai_player_4)
;
	lda     _use_ai_player_4
	beq     L29FE
;
; anim_frame_4 = 0;
;
	lda     #$00
	sta     _anim_frame_4
;
; if (pad1_new & PAD_DOWN)
;
L29FE:	lda     _pad1_new
	and     #$04
	beq     L29FF
;
; if (current_settings_choice < SETTING_SONG)
;
	lda     _current_settings_choice
	cmp     #$02
	bcs     L29FF
;
; current_settings_choice++;
;
	inc     _current_settings_choice
;
; update_options_screen();
;
	jsr     _update_options_screen
;
; if (pad1_new & PAD_UP)
;
L29FF:	lda     _pad1_new
	and     #$08
	beq     L2A00
;
; if (current_settings_choice > 0)
;
	lda     _current_settings_choice
	beq     L2A00
;
; current_settings_choice--;
;
	dec     _current_settings_choice
;
; update_options_screen();
;
	jsr     _update_options_screen
;
; if (pad1_new & PAD_RIGHT)
;
L2A00:	lda     _pad1_new
	and     #$01
	beq     L2A03
;
; if (current_settings_choice == SETTING_MAP)
;
	lda     _current_settings_choice
	cmp     #$01
	bne     L2A01
;
; if (settings_map < MAP_RANDOM)
;
	lda     _settings_map
	cmp     #$03
	bcs     L2A01
;
; settings_map++;
;
	inc     _settings_map
;
; if (current_settings_choice == SETTING_SPEED)
;
L2A01:	lda     _current_settings_choice
	bne     L2A02
;
; if (settings_speed < GAME_FAST)
;
	lda     _settings_speed
	cmp     #$02
	bcs     L2A02
;
; settings_speed++;
;
	inc     _settings_speed
;
; if (current_settings_choice == SETTING_SONG)
;
L2A02:	lda     _current_settings_choice
	cmp     #$02
	bne     L23C5
;
; if (settings_song < SONG_HONEY)
;
	lda     _settings_song
	cmp     #$02
	bcs     L23C5
;
; settings_song++;
;
	inc     _settings_song
;
; update_options_screen();
;
L23C5:	jsr     _update_options_screen
;
; if (pad1_new & PAD_LEFT)
;
L2A03:	lda     _pad1_new
	and     #$02
	beq     L2A06
;
; if (current_settings_choice == SETTING_MAP)
;
	lda     _current_settings_choice
	cmp     #$01
	bne     L2A04
;
; if (settings_map > 0)
;
	lda     _settings_map
	beq     L2A04
;
; settings_map--;
;
	dec     _settings_map
;
; if (current_settings_choice == SETTING_SPEED)
;
L2A04:	lda     _current_settings_choice
	bne     L2A05
;
; if (settings_speed > 0)
;
	lda     _settings_speed
	beq     L2A05
;
; settings_speed--;
;
	dec     _settings_speed
;
; if (current_settings_choice == SETTING_SONG)
;
L2A05:	lda     _current_settings_choice
	cmp     #$02
	bne     L23D7
;
; if (settings_song > 0)
;
	lda     _settings_song
	beq     L23D7
;
; settings_song--;
;
	dec     _settings_song
;
; update_options_screen();
;
L23D7:	jsr     _update_options_screen
;
; if (pad1_new & PAD_START || pad2_new & PAD_START || pad3_new & PAD_START || pad4_new & PAD_START)
;
L2A06:	lda     _pad1_new
	and     #$10
	bne     L2A07
	lda     _pad2_new
	and     #$10
	bne     L2A07
	lda     _pad3_new
	and     #$10
	bne     L2A07
	lda     _pad4_new
	and     #$10
	jeq     L22E8
;
; sfx_play(SFX_START, 0);
;
L2A07:	lda     #$08
	jsr     pusha
	lda     #$00
	jsr     _sfx_play
;
; init_game_loop();
;
	jsr     _init_game_loop
;
; prev_pad1 = pad1;
;
	lda     _pad1
	sta     _prev_pad1
;
; prev_pad2 = pad2;
;
	lda     _pad2
	sta     _prev_pad2
;
; prev_pad3 = pad3;
;
	lda     _pad3
	sta     _prev_pad3
;
; prev_pad4 = pad4;
;
	lda     _pad4
	sta     _prev_pad4
;
; }
;
	rts

.endproc

; ---------------------------------------------------------------
; void __near__ gameover_loop (void)
; ---------------------------------------------------------------

.segment	"CODE"

.proc	_gameover_loop: near

.segment	"CODE"

;
; frame_counter++;
;
L23EB:	inc     _frame_counter
;
; oam_clear();
;
	jsr     _oam_clear
;
; if (winner == ONETWO_WINNER)
;
	lda     _winner
	cmp     #$01
	bne     L2A08
;
; draw_player_1();
;
	jsr     _draw_player_1
;
; draw_player_2();
;
	jsr     _draw_player_2
;
; else if (winner == THREEFOUR_WINNER)
;
	jmp     L23F6
L2A08:	lda     _winner
	cmp     #$02
	bne     L23F6
;
; draw_player_3();
;
	jsr     _draw_player_3
;
; draw_player_4();
;
	jsr     _draw_player_4
;
; ppu_wait_nmi();
;
L23F6:	jsr     _ppu_wait_nmi
;
; read_controllers();
;
	jsr     _read_controllers
;
; if (pad1_new & PAD_START || pad2_new & PAD_START || pad3_new & PAD_START || pad4_new & PAD_START)
;
	lda     _pad1_new
	and     #$10
	bne     L2A09
	lda     _pad2_new
	and     #$10
	bne     L2A09
	lda     _pad3_new
	and     #$10
	bne     L2A09
	lda     _pad4_new
	and     #$10
	beq     L23EB
;
; init_title_loop();
;
L2A09:	jmp     _init_title_loop

.endproc

; ---------------------------------------------------------------
; void __near__ init_game_loop (void)
; ---------------------------------------------------------------

.segment	"CODE"

.proc	_init_game_loop: near

.segment	"CODE"

;
; clear_background();
;
	jsr     _clear_background
;
; game_mode = MODE_GAME;
;
	lda     #$02
	sta     _game_mode
;
; team1_wins = 0;
;
	lda     #$00
	sta     _team1_wins
;
; team2_wins = 0;
;
	sta     _team2_wins
;
; current_round = 1;
;
	lda     #$01
	sta     _current_round
;
; round_1 = 0;
;
	lda     #$00
	sta     _round_1
;
; round_2 = 0;
;
	sta     _round_2
;
; round_3 = 0;
;
	sta     _round_3
;
; round_4 = 0;
;
	sta     _round_4
;
; round_5 = 0;
;
	sta     _round_5
;
; round_1_winner = 0;
;
	sta     _round_1_winner
;
; round_2_winner = 0;
;
	sta     _round_2_winner
;
; round_3_winner = 0;
;
	sta     _round_3_winner
;
; round_4_winner = 0;
;
	sta     _round_4_winner
;
; round_5_winner = 0;
;
	sta     _round_5_winner
;
; team1_win1 = 0xFF;
;
	lda     #$FF
	sta     _team1_win1
;
; team1_win2 = 0xFF;
;
	sta     _team1_win2
;
; team1_win3 = 0xFF;
;
	sta     _team1_win3
;
; team2_win1 = 0xFF;
;
	sta     _team2_win1
;
; team2_win2 = 0xFF;
;
	sta     _team2_win2
;
; team2_win3 = 0xFF;
;
	sta     _team2_win3
;
; tick_frequency = TIMER_TICK_FREQUENCY;
;
	lda     #$18
	sta     _tick_frequency
;
; if (settings_speed == GAME_SLOW)
;
	lda     _settings_speed
	bne     L2A0D
;
; tick_frequency += 8;
;
	lda     #$08
	clc
	adc     _tick_frequency
;
; else if (settings_speed == GAME_FAST)
;
	jmp     L2A0A
L2A0D:	lda     _settings_speed
	cmp     #$02
	bne     L2A0E
;
; tick_frequency -= 12;
;
	lda     _tick_frequency
	sec
	sbc     #$0C
L2A0A:	sta     _tick_frequency
;
; if (settings_map == MAP_COMBS)
;
L2A0E:	lda     _settings_map
	bne     L2A0F
;
; map_ptr = combs;
;
	lda     #>(_combs)
	sta     _map_ptr+1
	lda     #<(_combs)
	sta     _map_ptr
;
; map = MAP_COMBS;
;
	lda     #$00
;
; else if (settings_map == MAP_VINES)
;
	jmp     L2A0B
L2A0F:	lda     _settings_map
	cmp     #$02
	bne     L2A10
;
; map_ptr = vines;
;
	lda     #>(_vines)
	sta     _map_ptr+1
	lda     #<(_vines)
	sta     _map_ptr
;
; map = MAP_VINES;
;
	lda     #$02
;
; else if (settings_map == MAP_OUTDOORS)
;
	jmp     L2A0B
L2A10:	lda     _settings_map
	cmp     #$01
	bne     L2A11
;
; map_ptr = outdoors;
;
	lda     #>(_outdoors)
	sta     _map_ptr+1
	lda     #<(_outdoors)
	sta     _map_ptr
;
; map = MAP_OUTDOORS;
;
	lda     #$01
L2A0B:	sta     _map
;
; if (settings_speed == GAME_SLOW)
;
L2A11:	lda     _settings_speed
	bne     L2A12
;
; speed_option = SPEED_SLOW;
;
	tax
	lda     #$80
;
; else if (settings_speed == GAME_REGULAR)
;
	jmp     L2A14
L2A12:	lda     _settings_speed
	cmp     #$01
	bne     L2A13
;
; speed_option = SPEED_REGULAR;
;
	ldx     #$00
	lda     #$C0
;
; else if (settings_speed == GAME_FAST)
;
	jmp     L2A14
L2A13:	lda     _settings_speed
	cmp     #$02
	bne     L2543
;
; speed_option = SPEED_FAST;
;
	ldx     #$01
	lda     #$00
L2A14:	sta     _speed_option
	stx     _speed_option+1
;
; load_bg_palette();
;
L2543:	jsr     _load_bg_palette
;
; pal_spr(palette_sp);
;
	lda     #<(_palette_sp)
	ldx     #>(_palette_sp)
	jsr     _pal_spr
;
; start_round();
;
	jmp     _start_round

.endproc

; ---------------------------------------------------------------
; void __near__ init_options_loop (void)
; ---------------------------------------------------------------

.segment	"CODE"

.proc	_init_options_loop: near

.segment	"CODE"

;
; prev_pad1 = 0;
;
	lda     #$00
	sta     _prev_pad1
;
; prev_pad2 = 0;
;
	sta     _prev_pad2
;
; prev_pad3 = 0;
;
	sta     _prev_pad3
;
; prev_pad4 = 0;
;
	sta     _prev_pad4
;
; clear_background();
;
	jsr     _clear_background
;
; game_mode = MODE_OPTIONS;
;
	lda     #$01
	sta     _game_mode
;
; ppu_off(); // screen off
;
	jsr     _ppu_off
;
; load_room(); // loads the options screen
;
	jsr     _load_room
;
; pal_bg(palette_options_bg);
;
	lda     #<(_palette_options_bg)
	ldx     #>(_palette_options_bg)
	jsr     _pal_bg
;
; pal_spr(palette_sp);
;
	lda     #<(_palette_sp)
	ldx     #>(_palette_sp)
	jsr     _pal_spr
;
; options_anim_tick = 0;
;
	lda     #$00
	sta     _options_anim_tick
;
; multi_vram_buffer_horz("SPEED:", 6, NTADR_A(8, 10));
;
	jsr     decsp3
	lda     #<(L2624)
	ldy     #$01
	sta     (sp),y
	iny
	lda     #>(L2624)
	sta     (sp),y
	lda     #$06
	ldy     #$00
	sta     (sp),y
	ldx     #$21
	lda     #$48
	jsr     _multi_vram_buffer_horz
;
; multi_vram_buffer_horz("MAP:", 4, NTADR_A(8, 14));
;
	jsr     decsp3
	lda     #<(L262E)
	ldy     #$01
	sta     (sp),y
	iny
	lda     #>(L262E)
	sta     (sp),y
	lda     #$04
	ldy     #$00
	sta     (sp),y
	ldx     #$21
	lda     #$C8
	jsr     _multi_vram_buffer_horz
;
; multi_vram_buffer_horz("MUSIC:", 6, NTADR_A(8, 18));
;
	jsr     decsp3
	lda     #<(L2638)
	ldy     #$01
	sta     (sp),y
	iny
	lda     #>(L2638)
	sta     (sp),y
	lda     #$06
	ldy     #$00
	sta     (sp),y
	ldx     #$22
	lda     #$48
	jsr     _multi_vram_buffer_horz
;
; multi_vram_buffer_horz("PRESS SELECT TO JOIN", 20, NTADR_A(6, 22));
;
	jsr     decsp3
	lda     #<(L2642)
	ldy     #$01
	sta     (sp),y
	iny
	lda     #>(L2642)
	sta     (sp),y
	lda     #$14
	ldy     #$00
	sta     (sp),y
	ldx     #$22
	lda     #$C6
	jsr     _multi_vram_buffer_horz
;
; update_options_screen();
;
	jsr     _update_options_screen
;
; start_hold_timer = 0;
;
	lda     #$00
	sta     _start_hold_timer
;
; start_held = 0;
;
	sta     _start_held
;
; ppu_on_all(); // turn on screen
;
	jmp     _ppu_on_all

.endproc

; ---------------------------------------------------------------
; void __near__ init_gameover_loop (void)
; ---------------------------------------------------------------

.segment	"CODE"

.proc	_init_gameover_loop: near

.segment	"CODE"

;
; oam_clear();
;
	jsr     _oam_clear
;
; clear_background();
;
	jsr     _clear_background
;
; music_stop();
;
	jsr     _music_stop
;
; game_mode = MODE_GAMEOVER;
;
	lda     #$03
	sta     _game_mode
;
; ppu_off(); // screen off
;
	jsr     _ppu_off
;
; clear_vram_buffer();
;
	jsr     _clear_vram_buffer
;
; pal_spr(palette_sp);
;
	lda     #<(_palette_sp)
	ldx     #>(_palette_sp)
	jsr     _pal_spr
;
; if (team1_wins >= 3)
;
	lda     _team1_wins
	cmp     #$03
	bcc     L2A16
;
; multi_vram_buffer_horz("RED TEAM WINS", 13, NTADR_A(9, 4));
;
	jsr     decsp3
	lda     #<(L27A1)
	ldy     #$01
	sta     (sp),y
	iny
	lda     #>(L27A1)
	sta     (sp),y
	lda     #$0D
	ldy     #$00
	sta     (sp),y
	ldx     #$20
	lda     #$89
	jsr     _multi_vram_buffer_horz
;
; winner = ONETWO_WINNER;
;
	lda     #$01
;
; else if (team2_wins >= 3)
;
	jmp     L2A15
L2A16:	lda     _team2_wins
	cmp     #$03
	lda     #$00
	bcc     L2A18
;
; multi_vram_buffer_horz("BLUE TEAM WINS", 14, NTADR_A(9, 4));
;
	jsr     decsp3
	lda     #<(L27B0)
	ldy     #$01
	sta     (sp),y
	iny
	lda     #>(L27B0)
	sta     (sp),y
	lda     #$0E
	ldy     #$00
	sta     (sp),y
	ldx     #$20
	lda     #$89
	jsr     _multi_vram_buffer_horz
;
; winner = THREEFOUR_WINNER;
;
	lda     #$02
L2A15:	sta     _winner
;
; bee1_bigbee_timer = 0;
;
	lda     #$00
L2A18:	sta     _bee1_bigbee_timer
;
; bee3_bigbee_timer = 0;
;
	sta     _bee3_bigbee_timer
;
; if (winner == ONETWO_WINNER)
;
	lda     _winner
	cmp     #$01
	bne     L2A19
;
; BoxGuy1.x = 0x6E00;
;
	ldx     #$6E
	lda     #$00
	sta     _BoxGuy1
	stx     _BoxGuy1+1
;
; BoxGuy1.y = 0x1200;
;
	ldx     #$12
	sta     _BoxGuy1+2
	stx     _BoxGuy1+2+1
;
; BoxGuy1.direction = DIR_RIGHT;
;
	lda     #$03
	sta     _BoxGuy1+4
;
; BoxGuy2.x = 0x8100;
;
	ldx     #$81
	lda     #$00
	sta     _BoxGuy2
	stx     _BoxGuy2+1
;
; BoxGuy2.y = 0x1200;
;
	ldx     #$12
	sta     _BoxGuy2+2
	stx     _BoxGuy2+2+1
;
; BoxGuy2.direction = DIR_LEFT;
;
	lda     #$02
	sta     _BoxGuy2+4
;
; BoxGuy2.moving = 1;
;
	lda     #$01
	sta     _BoxGuy2+5
;
; BoxGuy3.y = 0xF000;
;
	ldx     #$F0
	lda     #$00
	sta     _BoxGuy3+2
	stx     _BoxGuy3+2+1
;
; BoxGuy4.y = 0xF000;
;
	sta     _BoxGuy4+2
	stx     _BoxGuy4+2+1
;
; BoxGuy3.moving = 0;
;
	sta     _BoxGuy3+5
;
; BoxGuy4.moving = 0;
;
	sta     _BoxGuy4+5
;
; else if (winner == THREEFOUR_WINNER)
;
	jmp     L2A1A
L2A19:	lda     _winner
	cmp     #$02
	bne     L2A1A
;
; BoxGuy3.x = 0x6E00;
;
	ldx     #$6E
	lda     #$00
	sta     _BoxGuy3
	stx     _BoxGuy3+1
;
; BoxGuy3.y = 0x1200;
;
	ldx     #$12
	sta     _BoxGuy3+2
	stx     _BoxGuy3+2+1
;
; BoxGuy3.direction = DIR_RIGHT;
;
	lda     #$03
	sta     _BoxGuy3+4
;
; BoxGuy4.x = 0x8100;
;
	ldx     #$81
	lda     #$00
	sta     _BoxGuy4
	stx     _BoxGuy4+1
;
; BoxGuy4.y = 0x1200;
;
	ldx     #$12
	sta     _BoxGuy4+2
	stx     _BoxGuy4+2+1
;
; BoxGuy4.direction = DIR_LEFT;
;
	lda     #$02
	sta     _BoxGuy4+4
;
; BoxGuy4.moving = 1;
;
	lda     #$01
	sta     _BoxGuy4+5
;
; BoxGuy1.y = 0xF000;
;
	ldx     #$F0
	lda     #$00
	sta     _BoxGuy1+2
	stx     _BoxGuy1+2+1
;
; BoxGuy2.y = 0xF000;
;
	sta     _BoxGuy2+2
	stx     _BoxGuy2+2+1
;
; BoxGuy1.moving = 0;
;
	sta     _BoxGuy1+5
;
; BoxGuy2.moving = 0;
;
	sta     _BoxGuy2+5
;
; temp_y = 8;
;
L2A1A:	lda     #$08
	sta     _temp_y
;
; multi_vram_buffer_horz("ROUND 1:", 9, NTADR_A(6, temp_y));
;
	jsr     decsp3
	lda     #<(L27F3)
	ldy     #$01
	sta     (sp),y
	iny
	lda     #>(L27F3)
	sta     (sp),y
	lda     #$09
	ldy     #$00
	sta     (sp),y
	ldx     #$00
	lda     _temp_y
	jsr     aslax4
	stx     tmp1
	asl     a
	rol     tmp1
	ora     #$06
	pha
	lda     tmp1
	ora     #$20
	tax
	pla
	jsr     _multi_vram_buffer_horz
;
; temp_winner = round_1_winner;
;
	lda     _round_1_winner
	sta     _temp_winner
;
; temp_round = round_1;
;
	lda     _round_1
	sta     _temp_round
;
; display_round_summary();
;
	jsr     _display_round_summary
;
; temp_y = 11;
;
	lda     #$0B
	sta     _temp_y
;
; multi_vram_buffer_horz("ROUND 2:", 9, NTADR_A(6, temp_y));
;
	jsr     decsp3
	lda     #<(L2804)
	ldy     #$01
	sta     (sp),y
	iny
	lda     #>(L2804)
	sta     (sp),y
	lda     #$09
	ldy     #$00
	sta     (sp),y
	ldx     #$00
	lda     _temp_y
	jsr     aslax4
	stx     tmp1
	asl     a
	rol     tmp1
	ora     #$06
	pha
	lda     tmp1
	ora     #$20
	tax
	pla
	jsr     _multi_vram_buffer_horz
;
; temp_winner = round_2_winner;
;
	lda     _round_2_winner
	sta     _temp_winner
;
; temp_round = round_2;
;
	lda     _round_2
	sta     _temp_round
;
; display_round_summary();
;
	jsr     _display_round_summary
;
; temp_y = 14;
;
	lda     #$0E
	sta     _temp_y
;
; multi_vram_buffer_horz("ROUND 3:", 9, NTADR_A(6, temp_y));
;
	jsr     decsp3
	lda     #<(L2815)
	ldy     #$01
	sta     (sp),y
	iny
	lda     #>(L2815)
	sta     (sp),y
	lda     #$09
	ldy     #$00
	sta     (sp),y
	ldx     #$00
	lda     _temp_y
	jsr     aslax4
	stx     tmp1
	asl     a
	rol     tmp1
	ora     #$06
	pha
	lda     tmp1
	ora     #$20
	tax
	pla
	jsr     _multi_vram_buffer_horz
;
; temp_winner = round_3_winner;
;
	lda     _round_3_winner
	sta     _temp_winner
;
; temp_round = round_3;
;
	lda     _round_3
	sta     _temp_round
;
; display_round_summary();
;
	jsr     _display_round_summary
;
; if (round_4 != 0)
;
	lda     _round_4
	beq     L2A1B
;
; temp_y = 17;
;
	lda     #$11
	sta     _temp_y
;
; multi_vram_buffer_horz("ROUND 4:", 9, NTADR_A(6, temp_y));
;
	jsr     decsp3
	lda     #<(L2828)
	ldy     #$01
	sta     (sp),y
	iny
	lda     #>(L2828)
	sta     (sp),y
	lda     #$09
	ldy     #$00
	sta     (sp),y
	ldx     #$00
	lda     _temp_y
	jsr     aslax4
	stx     tmp1
	asl     a
	rol     tmp1
	ora     #$06
	pha
	lda     tmp1
	ora     #$20
	tax
	pla
	jsr     _multi_vram_buffer_horz
;
; temp_winner = round_4_winner;
;
	lda     _round_4_winner
	sta     _temp_winner
;
; temp_round = round_4;
;
	lda     _round_4
	sta     _temp_round
;
; display_round_summary();
;
	jsr     _display_round_summary
;
; if (round_5 != 0)
;
L2A1B:	lda     _round_5
	beq     L2836
;
; temp_y = 20;
;
	lda     #$14
	sta     _temp_y
;
; multi_vram_buffer_horz("ROUND 5:", 9, NTADR_A(6, temp_y));
;
	jsr     decsp3
	lda     #<(L283B)
	ldy     #$01
	sta     (sp),y
	iny
	lda     #>(L283B)
	sta     (sp),y
	lda     #$09
	ldy     #$00
	sta     (sp),y
	ldx     #$00
	lda     _temp_y
	jsr     aslax4
	stx     tmp1
	asl     a
	rol     tmp1
	ora     #$06
	pha
	lda     tmp1
	ora     #$20
	tax
	pla
	jsr     _multi_vram_buffer_horz
;
; temp_winner = round_5_winner;
;
	lda     _round_5_winner
	sta     _temp_winner
;
; temp_round = round_5;
;
	lda     _round_5
	sta     _temp_round
;
; display_round_summary();
;
	jsr     _display_round_summary
;
; multi_vram_buffer_horz("PRESS START", 11, NTADR_A(10, 24));
;
L2836:	jsr     decsp3
	lda     #<(L284A)
	ldy     #$01
	sta     (sp),y
	iny
	lda     #>(L284A)
	sta     (sp),y
	lda     #$0B
	ldy     #$00
	sta     (sp),y
	ldx     #$23
	lda     #$0A
	jsr     _multi_vram_buffer_horz
;
; ppu_on_all(); // turn on screen
;
	jsr     _ppu_on_all
;
; delay(10);
;
	lda     #$0A
	jmp     _delay

.endproc

; ---------------------------------------------------------------
; void __near__ init_title_loop (void)
; ---------------------------------------------------------------

.segment	"CODE"

.proc	_init_title_loop: near

.segment	"CODE"

;
; oam_clear();
;
	jsr     _oam_clear
;
; delay(30);
;
	lda     #$1E
	jsr     _delay
;
; game_mode = MODE_TITLE;
;
	lda     #$00
	sta     _game_mode
;
; ppu_off(); // screen off
;
	jsr     _ppu_off
;
; pal_bg(palette_title_bg);
;
	lda     #<(_palette_title_bg)
	ldx     #>(_palette_title_bg)
	jsr     _pal_bg
;
; pal_spr(palette_sp);
;
	lda     #<(_palette_sp)
	ldx     #>(_palette_sp)
	jsr     _pal_spr
;
; load_room(); // loads the title screen;
;
	jsr     _load_room
;
; BoxGuy1.x = 0x2800; // x = 40 (0x28)
;
	ldx     #$28
	lda     #$00
	sta     _BoxGuy1
	stx     _BoxGuy1+1
;
; BoxGuy1.y = 0xC800; // y = 200 (0xC8)
;
	ldx     #$C8
	sta     _BoxGuy1+2
	stx     _BoxGuy1+2+1
;
; BoxGuy1.direction = DIR_NONE;
;
	lda     #$04
	sta     _BoxGuy1+4
;
; BoxGuy2.x = 0x7800; // x = 120 (0x78)
;
	ldx     #$78
	lda     #$00
	sta     _BoxGuy2
	stx     _BoxGuy2+1
;
; BoxGuy2.y = 0xC800; // y = 200 (0xC8)
;
	ldx     #$C8
	sta     _BoxGuy2+2
	stx     _BoxGuy2+2+1
;
; BoxGuy2.direction = DIR_NONE;
;
	lda     #$04
	sta     _BoxGuy2+4
;
; BoxGuy3.x = 0xC800; // x = 200 (0xC8)
;
	lda     #$00
	sta     _BoxGuy3
	stx     _BoxGuy3+1
;
; BoxGuy3.y = 0xC800; // y = 200 (0xC8)
;
	sta     _BoxGuy3+2
	stx     _BoxGuy3+2+1
;
; BoxGuy3.direction = DIR_NONE;
;
	lda     #$04
	sta     _BoxGuy3+4
;
; BoxGuy4.x = 0x1801; // x = 280 (0x118)
;
	ldx     #$18
	lda     #$01
	sta     _BoxGuy4
	stx     _BoxGuy4+1
;
; BoxGuy4.y = 0xC800; // y = 200 (0xC8)
;
	ldx     #$C8
	lda     #$00
	sta     _BoxGuy4+2
	stx     _BoxGuy4+2+1
;
; BoxGuy4.direction = DIR_NONE;
;
	lda     #$04
	sta     _BoxGuy4+4
;
; ppu_on_all(); // turn on screen
;
	jmp     _ppu_on_all

.endproc

; ---------------------------------------------------------------
; void __near__ init_system (void)
; ---------------------------------------------------------------

.segment	"CODE"

.proc	_init_system: near

.segment	"CODE"

;
; ppu_off();
;
	jsr     _ppu_off
;
; clear_vram_buffer();
;
	jsr     _clear_vram_buffer
;
; set_vram_buffer();
;
	jsr     _set_vram_buffer
;
; bank_spr(1);
;
	lda     #$01
	jsr     _bank_spr
;
; set_scroll_y(0xff); // shift the bg down one pixel
;
	ldx     #$00
	lda     #$FF
	jsr     _set_scroll_y
;
; settings_speed = GAME_REGULAR;
;
	lda     #$01
	sta     _settings_speed
;
; settings_map = MAP_RANDOM;
;
	lda     #$03
	sta     _settings_map
;
; settings_song = SONG_BEE;
;
	lda     #$00
	sta     _settings_song
;
; speed_option = SPEED_REGULAR;
;
	tax
	lda     #$C0
	sta     _speed_option
	stx     _speed_option+1
;
; turbo_amount = TURBO_MEDIUM;
;
	lda     #$80
	sta     _turbo_amount
;
; ducks_go_faster_over_time = 1;
;
	lda     #$01
	sta     _ducks_go_faster_over_time
;
; collision_box_size = 6; // quacks and players are 6x6
;
	lda     #$06
	sta     _collision_box_size
;
; sprite_rotation = 0;
;
	txa
	sta     _sprite_rotation
;
; anim_frame_1 = 0;
;
	sta     _anim_frame_1
;
; anim_frame_2 = 0;
;
	sta     _anim_frame_2
;
; anim_frame_3 = 0;
;
	sta     _anim_frame_3
;
; anim_frame_4 = 0;
;
	sta     _anim_frame_4
;
; prev_pad1 = 0;
;
	sta     _prev_pad1
;
; prev_pad2 = 0;
;
	sta     _prev_pad2
;
; prev_pad3 = 0;
;
	sta     _prev_pad3
;
; prev_pad4 = 0;
;
	sta     _prev_pad4
;
; use_ai_player_1 = 1;
;
	lda     #$01
	sta     _use_ai_player_1
;
; use_ai_player_2 = 1;
;
	sta     _use_ai_player_2
;
; use_ai_player_3 = 1;
;
	sta     _use_ai_player_3
;
; use_ai_player_4 = 1;
;
	sta     _use_ai_player_4
;
; ai_timer_p1 = 0;
;
	txa
	sta     _ai_timer_p1
;
; ai_timer_p2 = 0;
;
	sta     _ai_timer_p2
;
; ai_timer_p3 = 0;
;
	sta     _ai_timer_p3
;
; ai_timer_p4 = 0;
;
	sta     _ai_timer_p4
;
; ai_dir_p1 = DIR_UP;
;
	sta     _ai_dir_p1
;
; ai_dir_p2 = DIR_UP;
;
	sta     _ai_dir_p2
;
; ai_dir_p3 = DIR_UP;
;
	sta     _ai_dir_p3
;
; ai_dir_p4 = DIR_UP;
;
	sta     _ai_dir_p4
;
; bee1_bigbee_timer = 0;
;
	sta     _bee1_bigbee_timer
;
; bee3_bigbee_timer = 0;
;
	sta     _bee3_bigbee_timer
;
; ppu_on_all(); // turn on screenxw
;
	jmp     _ppu_on_all

.endproc

; ---------------------------------------------------------------
; void __near__ clear_background (void)
; ---------------------------------------------------------------

.segment	"CODE"

.proc	_clear_background: near

.segment	"CODE"

;
; ppu_off(); // screen off
;
	jsr     _ppu_off
;
; vram_adr(NAMETABLE_A);
;
	ldx     #$20
	lda     #$00
	jsr     _vram_adr
;
; for (tempint = 0; tempint < 1024; ++tempint)
;
	lda     #$00
	sta     _tempint
	sta     _tempint+1
L289F:	ldx     _tempint+1
	cpx     #$04
	bcs     L28A0
;
; vram_put(0x00);
;
	lda     #$00
	jsr     _vram_put
;
; for (tempint = 0; tempint < 1024; ++tempint)
;
	inc     _tempint
	bne     L289F
	inc     _tempint+1
	jmp     L289F
;
; ppu_on_all(); // turn on screen
;
L28A0:	jmp     _ppu_on_all

.endproc

; ---------------------------------------------------------------
; void __near__ update_hud (void)
; ---------------------------------------------------------------

.segment	"CODE"

.proc	_update_hud: near

.segment	"CODE"

;
; temp_x = 102;
;
	lda     #$66
	sta     _temp_x
;
; temp_y = 8;
;
	lda     #$08
	sta     _temp_y
;
; if (team1_win1 != 0xFF)
;
	lda     _team1_win1
	cmp     #$FF
	beq     L1CC1
;
; temp_win_team = 1;
;
	lda     #$01
	sta     _temp_win_team
;
; temp_win_reason = team1_win1;
;
	lda     _team1_win1
	sta     _temp_win_reason
;
; draw_win_round_sprite();
;
	jsr     _draw_win_round_sprite
;
; else
;
	jmp     L1CC8
;
; oam_meta_spr(temp_x, temp_y, gamesprites_win_unwon);
;
L1CC1:	jsr     decsp2
	lda     _temp_x
	ldy     #$01
	sta     (sp),y
	lda     _temp_y
	dey
	sta     (sp),y
	lda     #<(_gamesprites_win_unwon)
	ldx     #>(_gamesprites_win_unwon)
	jsr     _oam_meta_spr
;
; temp_x = 92;
;
L1CC8:	lda     #$5C
	sta     _temp_x
;
; temp_y = 8;
;
	lda     #$08
	sta     _temp_y
;
; if (team1_win2 != 0xFF)
;
	lda     _team1_win2
	cmp     #$FF
	beq     L1CD1
;
; temp_win_team = 1;
;
	lda     #$01
	sta     _temp_win_team
;
; temp_win_reason = team1_win2;
;
	lda     _team1_win2
	sta     _temp_win_reason
;
; draw_win_round_sprite();
;
	jsr     _draw_win_round_sprite
;
; else
;
	jmp     L1CD8
;
; oam_meta_spr(temp_x, temp_y, gamesprites_win_unwon);
;
L1CD1:	jsr     decsp2
	lda     _temp_x
	ldy     #$01
	sta     (sp),y
	lda     _temp_y
	dey
	sta     (sp),y
	lda     #<(_gamesprites_win_unwon)
	ldx     #>(_gamesprites_win_unwon)
	jsr     _oam_meta_spr
;
; temp_x = 82;
;
L1CD8:	lda     #$52
	sta     _temp_x
;
; temp_y = 8;
;
	lda     #$08
	sta     _temp_y
;
; if (team1_win3 != 0xFF)
;
	lda     _team1_win3
	cmp     #$FF
	beq     L1CE1
;
; temp_win_team = 1;
;
	lda     #$01
	sta     _temp_win_team
;
; temp_win_reason = team1_win3;
;
	lda     _team1_win3
	sta     _temp_win_reason
;
; draw_win_round_sprite();
;
	jsr     _draw_win_round_sprite
;
; else
;
	jmp     L1CE8
;
; oam_meta_spr(temp_x, temp_y, gamesprites_win_unwon);
;
L1CE1:	jsr     decsp2
	lda     _temp_x
	ldy     #$01
	sta     (sp),y
	lda     _temp_y
	dey
	sta     (sp),y
	lda     #<(_gamesprites_win_unwon)
	ldx     #>(_gamesprites_win_unwon)
	jsr     _oam_meta_spr
;
; temp_x = 146;
;
L1CE8:	lda     #$92
	sta     _temp_x
;
; temp_y = 8;
;
	lda     #$08
	sta     _temp_y
;
; if (team2_win1 != 0xFF)
;
	lda     _team2_win1
	cmp     #$FF
	beq     L1CF1
;
; temp_win_team = 2;
;
	lda     #$02
	sta     _temp_win_team
;
; temp_win_reason = team2_win1;
;
	lda     _team2_win1
	sta     _temp_win_reason
;
; draw_win_round_sprite();
;
	jsr     _draw_win_round_sprite
;
; else
;
	jmp     L1CF8
;
; oam_meta_spr(temp_x, temp_y, gamesprites_win_unwon);
;
L1CF1:	jsr     decsp2
	lda     _temp_x
	ldy     #$01
	sta     (sp),y
	lda     _temp_y
	dey
	sta     (sp),y
	lda     #<(_gamesprites_win_unwon)
	ldx     #>(_gamesprites_win_unwon)
	jsr     _oam_meta_spr
;
; temp_x = 156;
;
L1CF8:	lda     #$9C
	sta     _temp_x
;
; temp_y = 8;
;
	lda     #$08
	sta     _temp_y
;
; if (team2_win2 != 0xFF)
;
	lda     _team2_win2
	cmp     #$FF
	beq     L1D01
;
; temp_win_team = 2;
;
	lda     #$02
	sta     _temp_win_team
;
; temp_win_reason = team2_win2;
;
	lda     _team2_win2
	sta     _temp_win_reason
;
; draw_win_round_sprite();
;
	jsr     _draw_win_round_sprite
;
; else
;
	jmp     L1D08
;
; oam_meta_spr(temp_x, temp_y, gamesprites_win_unwon);
;
L1D01:	jsr     decsp2
	lda     _temp_x
	ldy     #$01
	sta     (sp),y
	lda     _temp_y
	dey
	sta     (sp),y
	lda     #<(_gamesprites_win_unwon)
	ldx     #>(_gamesprites_win_unwon)
	jsr     _oam_meta_spr
;
; temp_x = 166;
;
L1D08:	lda     #$A6
	sta     _temp_x
;
; temp_y = 8;
;
	lda     #$08
	sta     _temp_y
;
; if (team2_win3 != 0xFF)
;
	lda     _team2_win3
	cmp     #$FF
	beq     L1D11
;
; temp_win_team = 2;
;
	lda     #$02
	sta     _temp_win_team
;
; temp_win_reason = team2_win3;
;
	lda     _team2_win3
	sta     _temp_win_reason
;
; draw_win_round_sprite();
;
	jmp     _draw_win_round_sprite
;
; oam_meta_spr(temp_x, temp_y, gamesprites_win_unwon);
;
L1D11:	jsr     decsp2
	lda     _temp_x
	ldy     #$01
	sta     (sp),y
	lda     _temp_y
	dey
	sta     (sp),y
	lda     #<(_gamesprites_win_unwon)
	ldx     #>(_gamesprites_win_unwon)
	jmp     _oam_meta_spr

.endproc

; ---------------------------------------------------------------
; void __near__ init_roundover (void)
; ---------------------------------------------------------------

.segment	"CODE"

.proc	_init_roundover: near

.segment	"CODE"

;
; game_mode = MODE_ROUNDOVER;
;
	lda     #$04
	sta     _game_mode
;
; music_stop();
;
	jsr     _music_stop
;
; if (winner == ONETWO_WINNER)
;
	lda     _winner
	cmp     #$01
	bne     L2A1D
;
; team1_wins++;
;
	inc     _team1_wins
;
; else if (winner == THREEFOUR_WINNER)
;
	jmp     L2A1E
L2A1D:	lda     _winner
	cmp     #$02
	bne     L2A1E
;
; team2_wins++;
;
	inc     _team2_wins
;
; if (current_round == 1)
;
L2A1E:	lda     _current_round
	cmp     #$01
	bne     L2A20
;
; round_1 = win_reason;
;
	lda     _win_reason
	sta     _round_1
;
; if (winner == ONETWO_WINNER)
;
	lda     _winner
	cmp     #$01
	bne     L2A1F
;
; round_1_winner = TEAM1_WIN;
;
	lda     #$80
	sta     _round_1_winner
;
; else if (winner == THREEFOUR_WINNER)
;
	jmp     L2A28
L2A1F:	lda     _winner
	cmp     #$02
	jne     L2A28
;
; round_1_winner = TEAM2_WIN;
;
	lda     #$40
	sta     _round_1_winner
;
; else if (current_round == 2)
;
	jmp     L2A28
L2A20:	lda     _current_round
	cmp     #$02
	bne     L2A22
;
; round_2 = win_reason;
;
	lda     _win_reason
	sta     _round_2
;
; if (winner == ONETWO_WINNER)
;
	lda     _winner
	cmp     #$01
	bne     L2A21
;
; round_2_winner = TEAM1_WIN;
;
	lda     #$80
	sta     _round_2_winner
;
; else if (winner == THREEFOUR_WINNER)
;
	jmp     L2A28
L2A21:	lda     _winner
	cmp     #$02
	jne     L2A28
;
; round_2_winner = TEAM2_WIN;
;
	lda     #$40
	sta     _round_2_winner
;
; else if (current_round == 3)
;
	jmp     L2A28
L2A22:	lda     _current_round
	cmp     #$03
	bne     L2A24
;
; round_3 = win_reason;
;
	lda     _win_reason
	sta     _round_3
;
; if (winner == ONETWO_WINNER)
;
	lda     _winner
	cmp     #$01
	bne     L2A23
;
; round_3_winner = TEAM1_WIN;
;
	lda     #$80
	sta     _round_3_winner
;
; else if (winner == THREEFOUR_WINNER)
;
	jmp     L2A28
L2A23:	lda     _winner
	cmp     #$02
	bne     L2A28
;
; round_3_winner = TEAM2_WIN;
;
	lda     #$40
	sta     _round_3_winner
;
; else if (current_round == 4)
;
	jmp     L2A28
L2A24:	lda     _current_round
	cmp     #$04
	bne     L2A26
;
; round_4 = win_reason;
;
	lda     _win_reason
	sta     _round_4
;
; if (winner == ONETWO_WINNER)
;
	lda     _winner
	cmp     #$01
	bne     L2A25
;
; round_4_winner = TEAM1_WIN;
;
	lda     #$80
	sta     _round_4_winner
;
; else if (winner == THREEFOUR_WINNER)
;
	jmp     L2A28
L2A25:	lda     _winner
	cmp     #$02
	bne     L2A28
;
; round_4_winner = TEAM2_WIN;
;
	lda     #$40
	sta     _round_4_winner
;
; else if (current_round == 5)
;
	jmp     L2A28
L2A26:	lda     _current_round
	cmp     #$05
	bne     L2A28
;
; round_5 = win_reason;
;
	lda     _win_reason
	sta     _round_5
;
; if (winner == ONETWO_WINNER)
;
	lda     _winner
	cmp     #$01
	bne     L2A27
;
; round_5_winner = TEAM1_WIN;
;
	lda     #$80
;
; else if (winner == THREEFOUR_WINNER)
;
	jmp     L2A1C
L2A27:	lda     _winner
	cmp     #$02
	bne     L2A28
;
; round_5_winner = TEAM2_WIN;
;
	lda     #$40
L2A1C:	sta     _round_5_winner
;
; if (winner == ONETWO_WINNER)
;
L2A28:	lda     _winner
	cmp     #$01
	bne     L2A2B
;
; if (team1_wins == 1)
;
	lda     _team1_wins
	cmp     #$01
	bne     L2A29
;
; team1_win1 = win_reason;
;
	lda     _win_reason
	sta     _team1_win1
;
; else if (team1_wins == 2)
;
	jmp     L2A2E
L2A29:	lda     _team1_wins
	cmp     #$02
	bne     L2A2A
;
; team1_win2 = win_reason;
;
	lda     _win_reason
	sta     _team1_win2
;
; else if (team1_wins == 3)
;
	jmp     L2A2E
L2A2A:	lda     _team1_wins
	cmp     #$03
	bne     L2A2E
;
; team1_win3 = win_reason;
;
	lda     _win_reason
	sta     _team1_win3
;
; else if (winner == THREEFOUR_WINNER)
;
	jmp     L2A2E
L2A2B:	lda     _winner
	cmp     #$02
	bne     L2A2E
;
; if (team2_wins == 1)
;
	lda     _team2_wins
	cmp     #$01
	bne     L2A2C
;
; team2_win1 = win_reason;
;
	lda     _win_reason
	sta     _team2_win1
;
; else if (team2_wins == 2)
;
	jmp     L2A2E
L2A2C:	lda     _team2_wins
	cmp     #$02
	bne     L2A2D
;
; team2_win2 = win_reason;
;
	lda     _win_reason
	sta     _team2_win2
;
; else if (team2_wins == 3)
;
	jmp     L2A2E
L2A2D:	lda     _team2_wins
	cmp     #$03
	bne     L2A2E
;
; team2_win3 = win_reason;
;
	lda     _win_reason
	sta     _team2_win3
;
; current_round++;
;
L2A2E:	inc     _current_round
;
; multi_vram_buffer_horz("                      ", 22, NTADR_A(5, 3));
;
	jsr     decsp3
	lda     #<(L26C4)
	ldy     #$01
	sta     (sp),y
	iny
	lda     #>(L26C4)
	sta     (sp),y
	lda     #$16
	ldy     #$00
	sta     (sp),y
	ldx     #$20
	lda     #$65
	jsr     _multi_vram_buffer_horz
;
; if (win_reason == WIN_HONEY_COLLECTED)
;
	lda     _win_reason
	cmp     #$20
	bne     L2A2F
;
; multi_vram_buffer_horz("COLLECTED 100 HONEY", 19, NTADR_A(6, 3));
;
	jsr     decsp3
	lda     #<(L26D0)
	ldy     #$01
	sta     (sp),y
	iny
	lda     #>(L26D0)
	sta     (sp),y
	lda     #$13
	ldy     #$00
	sta     (sp),y
	ldx     #$20
	lda     #$66
	jmp     _multi_vram_buffer_horz
;
; else if (win_reason == WIN_FRIENDLY_FIRE_BEE_EATEN)
;
L2A2F:	lda     _win_reason
	cmp     #$10
	bne     L2A30
;
; multi_vram_buffer_horz("FRIENDLY BEE EATEN", 18, NTADR_A(7, 3));
;
	jsr     decsp3
	lda     #<(L26DD)
	ldy     #$01
	sta     (sp),y
	iny
	lda     #>(L26DD)
	sta     (sp),y
	lda     #$12
	ldy     #$00
	sta     (sp),y
	ldx     #$20
	lda     #$67
	jmp     _multi_vram_buffer_horz
;
; else if (win_reason == WIN_FRIENDLY_FIRE_DUCK_EATEN)
;
L2A30:	lda     _win_reason
	cmp     #$08
	bne     L2A31
;
; multi_vram_buffer_horz("FRIENDLY DUCK EATEN", 19, NTADR_A(6, 3));
;
	jsr     decsp3
	lda     #<(L26EA)
	ldy     #$01
	sta     (sp),y
	iny
	lda     #>(L26EA)
	sta     (sp),y
	lda     #$13
	ldy     #$00
	sta     (sp),y
	ldx     #$20
	lda     #$66
	jmp     _multi_vram_buffer_horz
;
; else if (win_reason == WIN_BEE_EATEN)
;
L2A31:	lda     _win_reason
	cmp     #$04
	bne     L2A32
;
; multi_vram_buffer_horz("ENEMY BEE EATEN", 15, NTADR_A(8, 3));
;
	jsr     decsp3
	lda     #<(L26F7)
	ldy     #$01
	sta     (sp),y
	iny
	lda     #>(L26F7)
	sta     (sp),y
	lda     #$0F
	ldy     #$00
	sta     (sp),y
	ldx     #$20
	lda     #$68
	jmp     _multi_vram_buffer_horz
;
; else if (win_reason == WIN_DUCK_EATEN)
;
L2A32:	lda     _win_reason
	cmp     #$02
	bne     L2A33
;
; multi_vram_buffer_horz("BIGBEE ATE DUCK!", 16, NTADR_A(8, 3));
;
	jsr     decsp3
	lda     #<(L2704)
	ldy     #$01
	sta     (sp),y
	iny
	lda     #>(L2704)
	sta     (sp),y
	lda     #$10
	ldy     #$00
	sta     (sp),y
	ldx     #$20
	lda     #$68
	jmp     _multi_vram_buffer_horz
;
; else if (win_reason == WIN_MOST_HONEY_COLLECTED)
;
L2A33:	lda     _win_reason
	cmp     #$01
	bne     L270E
;
; multi_vram_buffer_horz("COLLECTED MORE HONEY", 20, NTADR_A(6, 3));
;
	jsr     decsp3
	lda     #<(L2711)
	ldy     #$01
	sta     (sp),y
	iny
	lda     #>(L2711)
	sta     (sp),y
	lda     #$14
	ldy     #$00
	sta     (sp),y
	ldx     #$20
	lda     #$66
	jmp     _multi_vram_buffer_horz
;
; multi_vram_buffer_horz("DRAW GAME!", 10, NTADR_A(11, 3));
;
L270E:	jsr     decsp3
	lda     #<(L271C)
	ldy     #$01
	sta     (sp),y
	iny
	lda     #>(L271C)
	sta     (sp),y
	lda     #$0A
	ldy     #$00
	sta     (sp),y
	ldx     #$20
	lda     #$6B
	jmp     _multi_vram_buffer_horz

.endproc

; ---------------------------------------------------------------
; void __near__ start_round (void)
; ---------------------------------------------------------------

.segment	"CODE"

.proc	_start_round: near

.segment	"CODE"

;
; if (settings_map == MAP_RANDOM)
;
	lda     _settings_map
	cmp     #$03
	bne     L2401
;
; if (frame_counter % 3 == 0)
;
	lda     _frame_counter
	jsr     pusha0
	lda     #$03
	jsr     tosumoda0
	cpx     #$00
	bne     L2A41
	cmp     #$00
	bne     L2A41
;
; map_ptr = combs;
;
	lda     #>(_combs)
	sta     _map_ptr+1
	lda     #<(_combs)
	sta     _map_ptr
;
; map = MAP_COMBS;
;
	txa
;
; else if (frame_counter % 3 == 1)
;
	jmp     L2A34
L2A41:	lda     _frame_counter
	jsr     pusha0
	lda     #$03
	jsr     tosumoda0
	cpx     #$00
	bne     L240B
	cmp     #$01
	bne     L240B
;
; map_ptr = vines;
;
	lda     #>(_vines)
	sta     _map_ptr+1
	lda     #<(_vines)
	sta     _map_ptr
;
; map = MAP_VINES;
;
	lda     #$02
;
; else
;
	jmp     L2A34
;
; map_ptr = outdoors;
;
L240B:	lda     #>(_outdoors)
	sta     _map_ptr+1
	lda     #<(_outdoors)
	sta     _map_ptr
;
; map = MAP_OUTDOORS;
;
	lda     #$01
L2A34:	sta     _map
;
; load_bg_palette();
;
	jsr     _load_bg_palette
;
; load_room();
;
L2401:	jsr     _load_room
;
; for (index = 0; index < 128; index++)
;
	lda     #$00
	sta     _index
L2A37:	lda     _index
	cmp     #$80
	bcs     L2A38
;
; consumed_dots[index] = 0;
;
	ldy     _index
	lda     #$00
	sta     _consumed_dots,y
;
; for (index = 0; index < 128; index++)
;
	inc     _index
	jmp     L2A37
;
; if (map == MAP_COMBS)
;
L2A38:	lda     _map
	bne     L2A39
;
; BoxGuy1.x = 0x3800;
;
	ldx     #$38
	sta     _BoxGuy1
	stx     _BoxGuy1+1
;
; BoxGuy1.y = 0xA800;
;
	ldx     #$A8
	sta     _BoxGuy1+2
	stx     _BoxGuy1+2+1
;
; BoxGuy2.x = 0x5000;
;
	ldx     #$50
	sta     _BoxGuy2
	stx     _BoxGuy2+1
;
; BoxGuy2.y = 0x2800;
;
	ldx     #$28
	sta     _BoxGuy2+2
	stx     _BoxGuy2+2+1
;
; BoxGuy3.x = 0xC000;
;
	ldx     #$C0
	sta     _BoxGuy3
	stx     _BoxGuy3+1
;
; BoxGuy3.y = 0xA800;
;
	ldx     #$A8
	sta     _BoxGuy3+2
	stx     _BoxGuy3+2+1
;
; BoxGuy4.x = 0xA000;
;
	ldx     #$A0
	sta     _BoxGuy4
	stx     _BoxGuy4+1
;
; BoxGuy4.y = 0x2800;
;
	ldx     #$28
;
; else if (map == MAP_VINES)
;
	jmp     L2A40
L2A39:	lda     _map
	cmp     #$02
	bne     L2A3A
;
; BoxGuy1.x = 0x6000;
;
	ldx     #$60
	lda     #$00
	sta     _BoxGuy1
	stx     _BoxGuy1+1
;
; BoxGuy1.y = 0xA000;
;
	ldx     #$A0
	sta     _BoxGuy1+2
	stx     _BoxGuy1+2+1
;
; BoxGuy2.x = 0x4800;
;
	ldx     #$48
	sta     _BoxGuy2
	stx     _BoxGuy2+1
;
; BoxGuy2.y = 0x4800;
;
	sta     _BoxGuy2+2
	stx     _BoxGuy2+2+1
;
; BoxGuy3.x = 0x9800;
;
	ldx     #$98
	sta     _BoxGuy3
	stx     _BoxGuy3+1
;
; BoxGuy3.y = 0xA000;
;
	ldx     #$A0
	sta     _BoxGuy3+2
	stx     _BoxGuy3+2+1
;
; BoxGuy4.x = 0xB000;
;
	ldx     #$B0
	sta     _BoxGuy4
	stx     _BoxGuy4+1
;
; BoxGuy4.y = 0x4800;
;
	ldx     #$48
;
; else if (map == MAP_OUTDOORS)
;
	jmp     L2A40
L2A3A:	lda     _map
	cmp     #$01
	bne     L2A3B
;
; BoxGuy1.x = 0x2800;
;
	ldx     #$28
	lda     #$00
	sta     _BoxGuy1
	stx     _BoxGuy1+1
;
; BoxGuy1.y = 0x2000;
;
	ldx     #$20
	sta     _BoxGuy1+2
	stx     _BoxGuy1+2+1
;
; BoxGuy2.x = 0x2800;
;
	ldx     #$28
	sta     _BoxGuy2
	stx     _BoxGuy2+1
;
; BoxGuy2.y = 0xd800;
;
	ldx     #$D8
	sta     _BoxGuy2+2
	stx     _BoxGuy2+2+1
;
; BoxGuy3.x = 0xD800;
;
	sta     _BoxGuy3
	stx     _BoxGuy3+1
;
; BoxGuy3.y = 0x2000;
;
	ldx     #$20
	sta     _BoxGuy3+2
	stx     _BoxGuy3+2+1
;
; BoxGuy4.x = 0xD800;
;
	ldx     #$D8
	sta     _BoxGuy4
	stx     _BoxGuy4+1
;
; BoxGuy4.y = 0xD800;
;
L2A40:	sta     _BoxGuy4+2
	stx     _BoxGuy4+2+1
;
; team1_score = 0;
;
L2A3B:	lda     #$00
	sta     _team1_score
;
; team2_score = 0;
;
	sta     _team2_score
;
; powerup1 = 1;
;
	lda     #$01
	sta     _powerup1
;
; powerup2 = 1;
;
	sta     _powerup2
;
; powerup3 = 1;
;
	sta     _powerup3
;
; powerup4 = 1;
;
	sta     _powerup4
;
; game_timer = GAME_LENGTH;
;
	lda     #$63
	sta     _game_timer
;
; win_reason = WIN_HONEY_COLLECTED; // default
;
	lda     #$20
	sta     _win_reason
;
; winner = UNDEFINED_WINNER;
;
	lda     #$00
	sta     _winner
;
; turbo_p1 = turbo_amount;
;
	lda     _turbo_amount
	sta     _turbo_p1
;
; turbo_p2 = turbo_amount;
;
	lda     _turbo_amount
	sta     _turbo_p2
;
; turbo_p3 = turbo_amount;
;
	lda     _turbo_amount
	sta     _turbo_p3
;
; turbo_p4 = turbo_amount;
;
	lda     _turbo_amount
	sta     _turbo_p4
;
; stun_p1 = 0;
;
	lda     #$00
	sta     _stun_p1
;
; stun_p2 = 0;
;
	sta     _stun_p2
;
; stun_p3 = 0;
;
	sta     _stun_p3
;
; quack2.moving = 0;
;
	sta     _quack2+5
;
; quack4.moving = 0;
;
	sta     _quack4+5
;
; quack2_cooldown = 0;
;
	sta     _quack2_cooldown
;
; quack4_cooldown = 0;
;
	sta     _quack4_cooldown
;
; bee1_bigbee_timer = 0;
;
	sta     _bee1_bigbee_timer
;
; bee3_bigbee_timer = 0;
;
	sta     _bee3_bigbee_timer
;
; ppu_wait_nmi();
;
	jsr     _ppu_wait_nmi
;
; oam_clear();
;
	jsr     _oam_clear
;
; draw_hud();
;
	jsr     _draw_hud
;
; update_hud();
;
	jsr     _update_hud
;
; draw_player_1();
;
	jsr     _draw_player_1
;
; draw_player_2();
;
	jsr     _draw_player_2
;
; draw_player_3();
;
	jsr     _draw_player_3
;
; draw_player_4();
;
	jsr     _draw_player_4
;
; oam_meta_spr(116, 100, gamesprites_big3_data);
;
	jsr     decsp2
	lda     #$74
	ldy     #$01
	sta     (sp),y
	lda     #$64
	dey
	sta     (sp),y
	lda     #<(_gamesprites_big3_data)
	ldx     #>(_gamesprites_big3_data)
	jsr     _oam_meta_spr
;
; sfx_play(SFX_TEAM1_DOT_COLLECT, 0);
;
	lda     #$00
	jsr     pusha
	jsr     _sfx_play
;
; ppu_wait_nmi();
;
	jsr     _ppu_wait_nmi
;
; delay(40);
;
	lda     #$28
	jsr     _delay
;
; oam_clear();
;
	jsr     _oam_clear
;
; update_hud();
;
	jsr     _update_hud
;
; draw_hud();
;
	jsr     _draw_hud
;
; draw_player_1();
;
	jsr     _draw_player_1
;
; draw_player_2();
;
	jsr     _draw_player_2
;
; draw_player_3();
;
	jsr     _draw_player_3
;
; draw_player_4();
;
	jsr     _draw_player_4
;
; ppu_wait_nmi();
;
	jsr     _ppu_wait_nmi
;
; oam_meta_spr(116, 100, gamesprites_big2_data);
;
	jsr     decsp2
	lda     #$74
	ldy     #$01
	sta     (sp),y
	lda     #$64
	dey
	sta     (sp),y
	lda     #<(_gamesprites_big2_data)
	ldx     #>(_gamesprites_big2_data)
	jsr     _oam_meta_spr
;
; sfx_play(SFX_TEAM1_DOT_COLLECT, 0);
;
	lda     #$00
	jsr     pusha
	jsr     _sfx_play
;
; delay(40);
;
	lda     #$28
	jsr     _delay
;
; oam_clear();
;
	jsr     _oam_clear
;
; update_hud();
;
	jsr     _update_hud
;
; draw_hud();
;
	jsr     _draw_hud
;
; draw_player_1();
;
	jsr     _draw_player_1
;
; draw_player_2();
;
	jsr     _draw_player_2
;
; draw_player_3();
;
	jsr     _draw_player_3
;
; draw_player_4();
;
	jsr     _draw_player_4
;
; ppu_wait_nmi();
;
	jsr     _ppu_wait_nmi
;
; oam_meta_spr(116, 100, gamesprites_big1_data);
;
	jsr     decsp2
	lda     #$74
	ldy     #$01
	sta     (sp),y
	lda     #$64
	dey
	sta     (sp),y
	lda     #<(_gamesprites_big1_data)
	ldx     #>(_gamesprites_big1_data)
	jsr     _oam_meta_spr
;
; sfx_play(SFX_TEAM1_DOT_COLLECT, 0);
;
	lda     #$00
	jsr     pusha
	jsr     _sfx_play
;
; delay(40);
;
	lda     #$28
	jsr     _delay
;
; oam_clear();
;
	jsr     _oam_clear
;
; update_hud();
;
	jsr     _update_hud
;
; draw_hud();
;
	jsr     _draw_hud
;
; draw_player_1();
;
	jsr     _draw_player_1
;
; draw_player_2();
;
	jsr     _draw_player_2
;
; draw_player_3();
;
	jsr     _draw_player_3
;
; draw_player_4();
;
	jsr     _draw_player_4
;
; ppu_wait_nmi();
;
	jsr     _ppu_wait_nmi
;
; sfx_play(SFX_START, 0);
;
	lda     #$08
	jsr     pusha
	lda     #$00
	jsr     _sfx_play
;
; delay(10);
;
	lda     #$0A
	jsr     _delay
;
; ppu_wait_nmi();
;
	jsr     _ppu_wait_nmi
;
; game_mode = MODE_GAME;
;
	lda     #$02
	sta     _game_mode
;
; if (settings_song == SONG_BEE)
;
	lda     _settings_song
;
; else if (settings_song == SONG_LAKE)
;
	beq     L2A36
	cmp     #$01
;
; else if (settings_song == SONG_HONEY)
;
	beq     L2A36
	cmp     #$02
;
; else if (settings_song == SONG_RANDOM)
;
	beq     L2A36
	cmp     #$03
	bne     L2A3F
;
; if (frame_counter % 3 == 0)
;
	lda     _frame_counter
	jsr     pusha0
	lda     #$03
	jsr     tosumoda0
	cpx     #$00
	bne     L24DE
	cmp     #$00
;
; else if (frame_counter % 3 == 1)
;
	beq     L2A36
L24DE:	lda     _frame_counter
	jsr     pusha0
	lda     #$03
	jsr     tosumoda0
	cpx     #$00
	bne     L24E4
	cmp     #$01
;
; else
;
	beq     L2A36
;
; song = SONG_HONEY;
;
L24E4:	lda     #$02
L2A36:	sta     _song
;
; song = SONG_BEE; // TODO: add more songs then fix this
;
L2A3F:	lda     #$00
	sta     _song
;
; music_play(song);
;
	jmp     _music_play

.endproc

; ---------------------------------------------------------------
; void __near__ roundover_loop (void)
; ---------------------------------------------------------------

.segment	"CODE"

.proc	_roundover_loop: near

.segment	"CODE"

;
; ++frame_counter;
;
L28AC:	inc     _frame_counter
;
; draw_sprites();
;
	jsr     _draw_sprites
;
; update_hud();
;
	jsr     _update_hud
;
; draw_hud();
;
	jsr     _draw_hud
;
; ppu_wait_nmi();
;
	jsr     _ppu_wait_nmi
;
; read_controllers();
;
	jsr     _read_controllers
;
; if (pad1_new & PAD_START || pad2_new & PAD_START || pad3_new & PAD_START || pad4_new & PAD_START)
;
	lda     _pad1_new
	and     #$10
	bne     L2A42
	lda     _pad2_new
	and     #$10
	bne     L2A42
	lda     _pad3_new
	and     #$10
	bne     L2A42
	lda     _pad4_new
	and     #$10
	beq     L28AC
;
; if (team1_wins >= 3)
;
L2A42:	lda     _team1_wins
	cmp     #$03
;
; init_gameover_loop();
;
	jcs     _init_gameover_loop
;
; else if (team2_wins >= 3)
;
	lda     _team2_wins
	cmp     #$03
;
; init_gameover_loop();
;
	jcs     _init_gameover_loop
;
; start_round();
;
	jmp     _start_round

.endproc

; ---------------------------------------------------------------
; void __near__ game_counters (void)
; ---------------------------------------------------------------

.segment	"CODE"

.proc	_game_counters: near

.segment	"CODE"

;
; frame_counter++;
;
	inc     _frame_counter
;
; game_frame_timer++;
;
	inc     _game_frame_timer
;
; sprite_rotation++;
;
	inc     _sprite_rotation
;
; if (game_frame_timer >= tick_frequency)
;
	lda     _game_frame_timer
	cmp     _tick_frequency
	bcs     L2A51
;
; }
;
	rts
;
; game_frame_timer = 0; // reset the frame timer
;
L2A51:	lda     #$00
	sta     _game_frame_timer
;
; game_timer--;
;
	dec     _game_timer
;
; if (game_timer == 0)
;
	bne     L2A47
;
; if (team1_score > team2_score)
;
	lda     _team1_score
	sec
	sbc     _team2_score
	bcc     L2A45
	beq     L2A45
;
; winner = ONETWO_WINNER;
;
	lda     #$01
	sta     _winner
;
; win_reason = WIN_MOST_HONEY_COLLECTED;
;
	sta     _win_reason
;
; sfx_play(SFX_TEAM1_WIN, 0);
;
	lda     #$02
;
; else if (team2_score > team1_score)
;
	jmp     L2A50
L2A45:	lda     _team2_score
	sec
	sbc     _team1_score
	bcc     L2A46
	beq     L2A46
;
; winner = THREEFOUR_WINNER;
;
	lda     #$02
	sta     _winner
;
; win_reason = WIN_MOST_HONEY_COLLECTED;
;
	lda     #$01
	sta     _win_reason
;
; sfx_play(SFX_TEAM2_WIN, 0);
;
	lda     #$03
;
; else
;
	jmp     L2A50
;
; winner = TIE_WINNER;
;
L2A46:	lda     #$03
	sta     _winner
;
; win_reason = WIN_TIMEUP;
;
	sta     _win_reason
;
; sfx_play(SFX_DRAW_GAME, 0);
;
	lda     #$04
L2A50:	jsr     pusha
	lda     #$00
	jsr     _sfx_play
;
; init_roundover();
;
	jsr     _init_roundover
;
; if (quack2_cooldown > 0)
;
L2A47:	lda     _quack2_cooldown
	beq     L2A48
;
; quack2_cooldown--;
;
	dec     _quack2_cooldown
;
; if (quack4_cooldown > 0)
;
L2A48:	lda     _quack4_cooldown
	beq     L2A49
;
; quack4_cooldown--;
;
	dec     _quack4_cooldown
;
; if (stun_p1 > 0)
;
L2A49:	lda     _stun_p1
	beq     L2A4A
;
; stun_p1--;
;
	dec     _stun_p1
;
; if (stun_p2 > 0)
;
L2A4A:	lda     _stun_p2
	beq     L2A4B
;
; stun_p2--;
;
	dec     _stun_p2
;
; if (stun_p3 > 0)
;
L2A4B:	lda     _stun_p3
	beq     L2A4C
;
; stun_p3--;
;
	dec     _stun_p3
;
; if (stun_p4 > 0)
;
L2A4C:	lda     _stun_p4
	beq     L2A4D
;
; stun_p4--;
;
	dec     _stun_p4
;
; if (bee1_bigbee_timer > 0)
;
L2A4D:	lda     _bee1_bigbee_timer
	beq     L2A4E
;
; bee1_bigbee_timer--;
;
	dec     _bee1_bigbee_timer
;
; if (bee3_bigbee_timer > 0)
;
L2A4E:	lda     _bee3_bigbee_timer
	beq     L28FD
;
; bee3_bigbee_timer--;
;
	dec     _bee3_bigbee_timer
;
; }
;
L28FD:	rts

.endproc

; ---------------------------------------------------------------
; void __near__ quack_movement (void)
; ---------------------------------------------------------------

.segment	"CODE"

.proc	_quack_movement: near

.segment	"CODE"

;
; if (quack2.moving)
;
	lda     _quack2+5
	jeq     L1D83
;
; if (quack2.direction == DIR_LEFT)
;
	lda     _quack2+4
	cmp     #$02
	bne     L2A58
;
; quack2.x -= (speed_option + SPEED_QUACK);
;
	lda     _speed_option
	ldx     _speed_option+1
	clc
	adc     #$60
	bcc     L1D3B
	inx
L1D3B:	eor     #$FF
	sec
	adc     _quack2
	sta     _quack2
	txa
	eor     #$FF
	adc     _quack2+1
	sta     _quack2+1
;
; else if (quack2.direction == DIR_RIGHT)
;
	jmp     L2A5B
L2A58:	lda     _quack2+4
	cmp     #$03
	bne     L2A59
;
; quack2.x += (speed_option + SPEED_QUACK);
;
	lda     _speed_option
	ldx     _speed_option+1
	clc
	adc     #$60
	bcc     L2A54
	inx
	clc
L2A54:	adc     _quack2
	sta     _quack2
	txa
	adc     _quack2+1
	sta     _quack2+1
;
; else if (quack2.direction == DIR_UP)
;
	jmp     L2A5B
L2A59:	lda     _quack2+4
	bne     L2A5A
;
; quack2.y -= (speed_option + SPEED_QUACK);
;
	lda     _speed_option
	ldx     _speed_option+1
	clc
	adc     #$60
	bcc     L1D49
	inx
L1D49:	eor     #$FF
	sec
	adc     _quack2+2
	sta     _quack2+2
	txa
	eor     #$FF
;
; else if (quack2.direction == DIR_DOWN)
;
	jmp     L2A6E
L2A5A:	lda     _quack2+4
	cmp     #$01
	bne     L2A5B
;
; quack2.y += (speed_option + SPEED_QUACK);
;
	lda     _speed_option
	ldx     _speed_option+1
	clc
	adc     #$60
	bcc     L2A55
	inx
	clc
L2A55:	adc     _quack2+2
	sta     _quack2+2
	txa
L2A6E:	adc     _quack2+2+1
	sta     _quack2+2+1
;
; temp_x2 = quack2.x >> 8;
;
L2A5B:	lda     _quack2+1
	sta     _temp_x2
;
; temp_y2 = quack2.y >> 8;
;
	lda     _quack2+3
	sta     _temp_y2
;
; if (quack_tile_solid())
;
	jsr     _quack_tile_solid
	tax
	beq     L2A5C
;
; quack2.moving = 0;
;
	lda     #$00
	sta     _quack2+5
;
; temp_x = BoxGuy1.x >> 8;
;
L2A5C:	lda     _BoxGuy1+1
	sta     _temp_x
;
; temp_y = BoxGuy1.y >> 8;
;
	lda     _BoxGuy1+3
	sta     _temp_y
;
; temp_x2 = quack2.x >> 8;
;
	lda     _quack2+1
	sta     _temp_x2
;
; temp_y2 = quack2.y >> 8;
;
	lda     _quack2+3
	sta     _temp_y2
;
; if (sprite_collision())
;
	jsr     _sprite_collision
	tax
	beq     L2A5E
;
; if (bee1_bigbee_timer == 0)
;
	lda     _bee1_bigbee_timer
	bne     L2A5D
;
; stun_p1 = STUN_DURATION;
;
	lda     #$03
	sta     _stun_p1
;
; quack2.moving = 0;
;
L2A5D:	lda     #$00
	sta     _quack2+5
;
; temp_x = BoxGuy2.x >> 8;
;
L2A5E:	lda     _BoxGuy2+1
	sta     _temp_x
;
; temp_y = BoxGuy2.y >> 8;
;
	lda     _BoxGuy2+3
	sta     _temp_y
;
; if (sprite_collision())
;
	jsr     _sprite_collision
	tax
	beq     L2A5F
;
; stun_p2 = STUN_DURATION;
;
	lda     #$03
	sta     _stun_p2
;
; quack2.moving = 0;
;
	lda     #$00
	sta     _quack2+5
;
; temp_x = BoxGuy3.x >> 8;
;
L2A5F:	lda     _BoxGuy3+1
	sta     _temp_x
;
; temp_y = BoxGuy3.y >> 8;
;
	lda     _BoxGuy3+3
	sta     _temp_y
;
; if (sprite_collision())
;
	jsr     _sprite_collision
	tax
	beq     L2A61
;
; if (bee3_bigbee_timer == 0)
;
	lda     _bee3_bigbee_timer
	bne     L2A60
;
; stun_p3 = STUN_DURATION;
;
	lda     #$03
	sta     _stun_p3
;
; quack2.moving = 0;
;
L2A60:	lda     #$00
	sta     _quack2+5
;
; temp_x = BoxGuy4.x >> 8;
;
L2A61:	lda     _BoxGuy4+1
	sta     _temp_x
;
; temp_y = BoxGuy4.y >> 8;
;
	lda     _BoxGuy4+3
	sta     _temp_y
;
; if (sprite_collision())
;
	jsr     _sprite_collision
	tax
	beq     L1D83
;
; stun_p4 = STUN_DURATION;
;
	lda     #$03
	sta     _stun_p4
;
; quack2.moving = 0;
;
	lda     #$00
	sta     _quack2+5
;
; if (quack4.moving)
;
L1D83:	lda     _quack4+5
	bne     L2A70
;
; }
;
	rts
;
; if (quack4.direction == DIR_LEFT)
;
L2A70:	lda     _quack4+4
	cmp     #$02
	bne     L2A62
;
; quack4.x -= (speed_option + SPEED_QUACK);
;
	lda     _speed_option
	ldx     _speed_option+1
	clc
	adc     #$60
	bcc     L1D90
	inx
L1D90:	eor     #$FF
	sec
	adc     _quack4
	sta     _quack4
	txa
	eor     #$FF
	adc     _quack4+1
	sta     _quack4+1
;
; else if (quack4.direction == DIR_RIGHT)
;
	jmp     L2A65
L2A62:	lda     _quack4+4
	cmp     #$03
	bne     L2A63
;
; quack4.x += (speed_option + SPEED_QUACK);
;
	lda     _speed_option
	ldx     _speed_option+1
	clc
	adc     #$60
	bcc     L2A56
	inx
	clc
L2A56:	adc     _quack4
	sta     _quack4
	txa
	adc     _quack4+1
	sta     _quack4+1
;
; else if (quack4.direction == DIR_UP)
;
	jmp     L2A65
L2A63:	lda     _quack4+4
	bne     L2A64
;
; quack4.y -= (speed_option + SPEED_QUACK);
;
	lda     _speed_option
	ldx     _speed_option+1
	clc
	adc     #$60
	bcc     L1D9E
	inx
L1D9E:	eor     #$FF
	sec
	adc     _quack4+2
	sta     _quack4+2
	txa
	eor     #$FF
;
; else if (quack4.direction == DIR_DOWN)
;
	jmp     L2A6F
L2A64:	lda     _quack4+4
	cmp     #$01
	bne     L2A65
;
; quack4.y += (speed_option + SPEED_QUACK);
;
	lda     _speed_option
	ldx     _speed_option+1
	clc
	adc     #$60
	bcc     L2A57
	inx
	clc
L2A57:	adc     _quack4+2
	sta     _quack4+2
	txa
L2A6F:	adc     _quack4+2+1
	sta     _quack4+2+1
;
; temp_x2 = quack4.x >> 8;
;
L2A65:	lda     _quack4+1
	sta     _temp_x2
;
; temp_y2 = quack4.y >> 8;
;
	lda     _quack4+3
	sta     _temp_y2
;
; if (quack_tile_solid())
;
	jsr     _quack_tile_solid
	tax
	beq     L2A66
;
; quack4.moving = 0;
;
	lda     #$00
	sta     _quack4+5
;
; temp_x = BoxGuy1.x >> 8;
;
L2A66:	lda     _BoxGuy1+1
	sta     _temp_x
;
; temp_y = BoxGuy1.y >> 8;
;
	lda     _BoxGuy1+3
	sta     _temp_y
;
; temp_x2 = quack4.x >> 8;
;
	lda     _quack4+1
	sta     _temp_x2
;
; temp_y2 = quack4.y >> 8;
;
	lda     _quack4+3
	sta     _temp_y2
;
; if (sprite_collision())
;
	jsr     _sprite_collision
	tax
	beq     L2A68
;
; if (bee1_bigbee_timer == 0)
;
	lda     _bee1_bigbee_timer
	bne     L2A67
;
; stun_p1 = STUN_DURATION;
;
	lda     #$03
	sta     _stun_p1
;
; quack4.moving = 0;
;
L2A67:	lda     #$00
	sta     _quack4+5
;
; temp_x = BoxGuy2.x >> 8;
;
L2A68:	lda     _BoxGuy2+1
	sta     _temp_x
;
; temp_y = BoxGuy2.y >> 8;
;
	lda     _BoxGuy2+3
	sta     _temp_y
;
; if (sprite_collision())
;
	jsr     _sprite_collision
	tax
	beq     L2A69
;
; stun_p2 = STUN_DURATION;
;
	lda     #$03
	sta     _stun_p2
;
; quack4.moving = 0;
;
	lda     #$00
	sta     _quack4+5
;
; temp_x = BoxGuy3.x >> 8;
;
L2A69:	lda     _BoxGuy3+1
	sta     _temp_x
;
; temp_y = BoxGuy3.y >> 8;
;
	lda     _BoxGuy3+3
	sta     _temp_y
;
; if (sprite_collision())
;
	jsr     _sprite_collision
	tax
	beq     L2A6B
;
; if (bee3_bigbee_timer == 0)
;
	lda     _bee3_bigbee_timer
	bne     L2A6A
;
; stun_p3 = STUN_DURATION;
;
	lda     #$03
	sta     _stun_p3
;
; quack4.moving = 0;
;
L2A6A:	lda     #$00
	sta     _quack4+5
;
; temp_x = BoxGuy4.x >> 8;
;
L2A6B:	lda     _BoxGuy4+1
	sta     _temp_x
;
; temp_y = BoxGuy4.y >> 8;
;
	lda     _BoxGuy4+3
	sta     _temp_y
;
; if (sprite_collision())
;
	jsr     _sprite_collision
	tax
	beq     L1DD8
;
; stun_p4 = STUN_DURATION;
;
	lda     #$03
	sta     _stun_p4
;
; quack4.moving = 0;
;
	lda     #$00
	sta     _quack4+5
;
; }
;
L1DD8:	rts

.endproc

; ---------------------------------------------------------------
; void __near__ load_bg_palette (void)
; ---------------------------------------------------------------

.segment	"CODE"

.proc	_load_bg_palette: near

.segment	"CODE"

;
; if (map == MAP_OUTDOORS)
;
	lda     _map
	cmp     #$01
	bne     L2A71
;
; pal_bg(palette_outdoors_bg);
;
	lda     #<(_palette_outdoors_bg)
	ldx     #>(_palette_outdoors_bg)
	jmp     _pal_bg
;
; else if (map == MAP_COMBS)
;
L2A71:	lda     _map
	bne     L2A72
;
; pal_bg(palette_combsnplants_bg);
;
	lda     #<(_palette_combsnplants_bg)
	ldx     #>(_palette_combsnplants_bg)
	jmp     _pal_bg
;
; else if (map == MAP_VINES)
;
L2A72:	lda     _map
	cmp     #$02
	bne     L2556
;
; pal_bg(palette_vineswoflowers_bg);
;
	lda     #<(_palette_vineswoflowers_bg)
	ldx     #>(_palette_vineswoflowers_bg)
	jmp     _pal_bg
;
; }
;
L2556:	rts

.endproc

; ---------------------------------------------------------------
; void __near__ update_options_screen (void)
; ---------------------------------------------------------------

.segment	"CODE"

.proc	_update_options_screen: near

.segment	"CODE"

;
; temp_x = 64;
;
	lda     #$40
	sta     _temp_x
;
; if (current_settings_choice == SETTING_SPEED)
;
	lda     _current_settings_choice
	bne     L2A76
;
; temp_y = 96;
;
	lda     #$60
;
; else if (current_settings_choice == SETTING_MAP)
;
	jmp     L2A73
L2A76:	lda     _current_settings_choice
	cmp     #$01
	bne     L2A77
;
; temp_y = 128;
;
	lda     #$80
;
; else if (current_settings_choice == SETTING_SONG)
;
	jmp     L2A73
L2A77:	lda     _current_settings_choice
	cmp     #$02
	bne     L2A78
;
; temp_y = 160;
;
	lda     #$A0
L2A73:	sta     _temp_y
;
; if (settings_speed == GAME_SLOW)
;
L2A78:	lda     _settings_speed
	bne     L2A79
;
; multi_vram_buffer_horz("SLOW   ", 7, NTADR_A(11, 12));
;
	jsr     decsp3
	lda     #<(L2593)
	ldy     #$01
	sta     (sp),y
	iny
	lda     #>(L2593)
;
; else if (settings_speed == GAME_REGULAR)
;
	jmp     L2A8C
L2A79:	lda     _settings_speed
	cmp     #$01
	bne     L2A7A
;
; multi_vram_buffer_horz("REGULAR", 7, NTADR_A(11, 12));
;
	jsr     decsp3
	lda     #<(L25A0)
	ldy     #$01
	sta     (sp),y
	iny
	lda     #>(L25A0)
;
; else if (settings_speed == GAME_FAST)
;
	jmp     L2A8C
L2A7A:	lda     _settings_speed
	cmp     #$02
	bne     L2A7B
;
; multi_vram_buffer_horz("FAST   ", 7, NTADR_A(11, 12));
;
	jsr     decsp3
	lda     #<(L25AD)
	ldy     #$01
	sta     (sp),y
	iny
	lda     #>(L25AD)
L2A8C:	sta     (sp),y
	lda     #$07
	ldy     #$00
	sta     (sp),y
	ldx     #$21
	lda     #$8B
	jsr     _multi_vram_buffer_horz
;
; if (settings_map == MAP_RANDOM)
;
L2A7B:	lda     _settings_map
	cmp     #$03
	bne     L2A7C
;
; multi_vram_buffer_horz("RANDOM  ", 8, NTADR_A(11, 16));
;
	jsr     decsp3
	lda     #<(L25B9)
	ldy     #$01
	sta     (sp),y
	iny
	lda     #>(L25B9)
;
; else if (settings_map == MAP_OUTDOORS)
;
	jmp     L2A8D
L2A7C:	lda     _settings_map
	cmp     #$01
	bne     L2A7D
;
; multi_vram_buffer_horz("OUTDOORS", 8, NTADR_A(11, 16));
;
	jsr     decsp3
	lda     #<(L25C6)
	ldy     #$01
	sta     (sp),y
	iny
	lda     #>(L25C6)
;
; else if (settings_map == MAP_COMBS)
;
	jmp     L2A8D
L2A7D:	lda     _settings_map
	bne     L2A7E
;
; multi_vram_buffer_horz("COMBS   ", 8, NTADR_A(11, 16));
;
	jsr     decsp3
	lda     #<(L25D3)
	ldy     #$01
	sta     (sp),y
	iny
	lda     #>(L25D3)
;
; else if (settings_map == MAP_VINES)
;
	jmp     L2A8D
L2A7E:	lda     _settings_map
	cmp     #$02
	bne     L2A7F
;
; multi_vram_buffer_horz("VINES   ", 8, NTADR_A(11, 16));
;
	jsr     decsp3
	lda     #<(L25E0)
	ldy     #$01
	sta     (sp),y
	iny
	lda     #>(L25E0)
L2A8D:	sta     (sp),y
	lda     #$08
	ldy     #$00
	sta     (sp),y
	ldx     #$22
	lda     #$0B
	jsr     _multi_vram_buffer_horz
;
; if (settings_song == SONG_BEE)
;
L2A7F:	lda     _settings_song
	bne     L2A80
;
; multi_vram_buffer_horz("BEE  ", 5, NTADR_A(11, 20));
;
	jsr     decsp3
	lda     #<(L25EC)
	ldy     #$01
	sta     (sp),y
	iny
	lda     #>(L25EC)
	sta     (sp),y
	lda     #$05
	ldy     #$00
	sta     (sp),y
	ldx     #$22
	lda     #$8B
	jmp     _multi_vram_buffer_horz
;
; else if (settings_song == SONG_LAKE)
;
L2A80:	lda     _settings_song
	cmp     #$01
	bne     L2A81
;
; multi_vram_buffer_horz("LAKE ", 5, NTADR_A(11, 20));
;
	jsr     decsp3
	lda     #<(L25F9)
	ldy     #$01
	sta     (sp),y
	iny
	lda     #>(L25F9)
	sta     (sp),y
	lda     #$05
	ldy     #$00
	sta     (sp),y
	ldx     #$22
	lda     #$8B
	jmp     _multi_vram_buffer_horz
;
; else if (settings_song == SONG_HONEY)
;
L2A81:	lda     _settings_song
	cmp     #$02
	bne     L2603
;
; multi_vram_buffer_horz("HONEY", 5, NTADR_A(11, 20));
;
	jsr     decsp3
	lda     #<(L2606)
	ldy     #$01
	sta     (sp),y
	iny
	lda     #>(L2606)
	sta     (sp),y
	lda     #$05
	ldy     #$00
	sta     (sp),y
	ldx     #$22
	lda     #$8B
	jmp     _multi_vram_buffer_horz
;
; }
;
L2603:	rts

.endproc

; ---------------------------------------------------------------
; void __near__ draw_win_round_sprite (void)
; ---------------------------------------------------------------

.segment	"CODE"

.proc	_draw_win_round_sprite: near

.segment	"CODE"

;
; if (temp_win_reason == WIN_HONEY_COLLECTED)
;
	lda     _temp_win_reason
	cmp     #$20
	bne     L2A8E
;
; oam_meta_spr(temp_x, temp_y, gamesprites_win_icon_honey);
;
	jsr     decsp2
	lda     _temp_x
	ldy     #$01
	sta     (sp),y
	lda     _temp_y
	dey
	sta     (sp),y
	lda     #<(_gamesprites_win_icon_honey)
	ldx     #>(_gamesprites_win_icon_honey)
	jmp     _oam_meta_spr
;
; else if (temp_win_reason == WIN_MOST_HONEY_COLLECTED)
;
L2A8E:	lda     _temp_win_reason
	cmp     #$01
	bne     L2A8F
;
; oam_meta_spr(temp_x, temp_y, gamesprites_win_icon_time);
;
	jsr     decsp2
	lda     _temp_x
	ldy     #$01
	sta     (sp),y
	lda     _temp_y
	dey
	sta     (sp),y
	lda     #<(_gamesprites_win_icon_time)
	ldx     #>(_gamesprites_win_icon_time)
	jmp     _oam_meta_spr
;
; else if (temp_win_reason == WIN_BEE_EATEN)
;
L2A8F:	lda     _temp_win_reason
	cmp     #$04
	bne     L2A90
;
; if (temp_win_team == 1)
;
	lda     _temp_win_team
	cmp     #$01
	bne     L1C87
;
; oam_meta_spr(temp_x, temp_y, gamesprites_win_redduck);
;
	jsr     decsp2
	lda     _temp_x
	ldy     #$01
	sta     (sp),y
	lda     _temp_y
	dey
	sta     (sp),y
	lda     #<(_gamesprites_win_redduck)
	ldx     #>(_gamesprites_win_redduck)
	jmp     _oam_meta_spr
;
; oam_meta_spr(temp_x, temp_y, gamesprites_win_blueduck);
;
L1C87:	jsr     decsp2
	lda     _temp_x
	ldy     #$01
	sta     (sp),y
	lda     _temp_y
	dey
	sta     (sp),y
	lda     #<(_gamesprites_win_blueduck)
	ldx     #>(_gamesprites_win_blueduck)
	jmp     _oam_meta_spr
;
; else if (temp_win_reason == WIN_DUCK_EATEN)
;
L2A90:	lda     _temp_win_reason
	cmp     #$02
	bne     L2A91
;
; if (temp_win_team == 1)
;
	lda     _temp_win_team
	cmp     #$01
	bne     L1C95
;
; oam_meta_spr(temp_x, temp_y, gamesprites_win_redbee);
;
	jsr     decsp2
	lda     _temp_x
	ldy     #$01
	sta     (sp),y
	lda     _temp_y
	dey
	sta     (sp),y
	lda     #<(_gamesprites_win_redbee)
	ldx     #>(_gamesprites_win_redbee)
	jmp     _oam_meta_spr
;
; oam_meta_spr(temp_x, temp_y, gamesprites_win_bluebee);
;
L1C95:	jsr     decsp2
	lda     _temp_x
	ldy     #$01
	sta     (sp),y
	lda     _temp_y
	dey
	sta     (sp),y
	lda     #<(_gamesprites_win_bluebee)
	ldx     #>(_gamesprites_win_bluebee)
	jmp     _oam_meta_spr
;
; else if (temp_win_reason == WIN_FRIENDLY_FIRE_BEE_EATEN)
;
L2A91:	lda     _temp_win_reason
	cmp     #$10
	bne     L2A92
;
; if (temp_win_team == 1)
;
	lda     _temp_win_team
	cmp     #$01
	bne     L1CA3
;
; oam_meta_spr(temp_x, temp_y, gamesprites_win_blueduck);
;
	jsr     decsp2
	lda     _temp_x
	ldy     #$01
	sta     (sp),y
	lda     _temp_y
	dey
	sta     (sp),y
	lda     #<(_gamesprites_win_blueduck)
	ldx     #>(_gamesprites_win_blueduck)
	jmp     _oam_meta_spr
;
; oam_meta_spr(temp_x, temp_y, gamesprites_win_redduck);
;
L1CA3:	jsr     decsp2
	lda     _temp_x
	ldy     #$01
	sta     (sp),y
	lda     _temp_y
	dey
	sta     (sp),y
	lda     #<(_gamesprites_win_redduck)
	ldx     #>(_gamesprites_win_redduck)
	jmp     _oam_meta_spr
;
; else if (temp_win_reason == WIN_FRIENDLY_FIRE_DUCK_EATEN)
;
L2A92:	lda     _temp_win_reason
	cmp     #$08
	bne     L1CB7
;
; if (temp_win_team == 1)
;
	lda     _temp_win_team
	cmp     #$01
	bne     L1CB1
;
; oam_meta_spr(temp_x, temp_y, gamesprites_win_bluebee);
;
	jsr     decsp2
	lda     _temp_x
	ldy     #$01
	sta     (sp),y
	lda     _temp_y
	dey
	sta     (sp),y
	lda     #<(_gamesprites_win_bluebee)
	ldx     #>(_gamesprites_win_bluebee)
	jmp     _oam_meta_spr
;
; oam_meta_spr(temp_x, temp_y, gamesprites_win_redbee);
;
L1CB1:	jsr     decsp2
	lda     _temp_x
	ldy     #$01
	sta     (sp),y
	lda     _temp_y
	dey
	sta     (sp),y
	lda     #<(_gamesprites_win_redbee)
	ldx     #>(_gamesprites_win_redbee)
	jmp     _oam_meta_spr
;
; }
;
L1CB7:	rts

.endproc

; ---------------------------------------------------------------
; void __near__ display_round_summary (void)
; ---------------------------------------------------------------

.segment	"CODE"

.proc	_display_round_summary: near

.segment	"CODE"

;
; if (temp_winner == TEAM1_WIN)
;
	lda     _temp_winner
	cmp     #$80
	bne     L2A95
;
; multi_vram_buffer_horz("RED", 3, NTADR_A(16, temp_y));
;
	jsr     decsp3
	lda     #<(L2729)
	ldy     #$01
	sta     (sp),y
	iny
	lda     #>(L2729)
	sta     (sp),y
	lda     #$03
;
; else if (temp_winner == TEAM2_WIN)
;
	jmp     L2AB5
L2A95:	lda     _temp_winner
	cmp     #$40
	bne     L2A96
;
; multi_vram_buffer_horz("BLUE", 4, NTADR_A(16, temp_y));
;
	jsr     decsp3
	lda     #<(L2736)
	ldy     #$01
	sta     (sp),y
	iny
	lda     #>(L2736)
	sta     (sp),y
	lda     #$04
L2AB5:	ldy     #$00
	sta     (sp),y
	ldx     #$00
	lda     _temp_y
	jsr     aslax4
	stx     tmp1
	asl     a
	rol     tmp1
	ora     #$10
	pha
	lda     tmp1
	ora     #$20
	tax
	pla
	jsr     _multi_vram_buffer_horz
;
; if ((temp_round == WIN_HONEY_COLLECTED))
;
L2A96:	lda     _temp_round
	cmp     #$20
	bne     L2A97
;
; multi_vram_buffer_horz("100 HONEY COLLECTED", 19, NTADR_A(7, temp_y + 1));
;
	jsr     decsp3
	lda     #<(L2743)
	ldy     #$01
	sta     (sp),y
	iny
	lda     #>(L2743)
	sta     (sp),y
	lda     #$13
;
; else if (temp_round == WIN_FRIENDLY_FIRE_BEE_EATEN)
;
	jmp     L2ABA
L2A97:	lda     _temp_round
	cmp     #$10
	bne     L2A98
;
; multi_vram_buffer_horz("ENEMY ATE THEIR BEE", 19, NTADR_A(7, temp_y + 1));
;
	jsr     decsp3
	lda     #<(L2751)
	ldy     #$01
	sta     (sp),y
	iny
	lda     #>(L2751)
	sta     (sp),y
	lda     #$13
;
; else if (temp_round == WIN_FRIENDLY_FIRE_DUCK_EATEN)
;
	jmp     L2ABA
L2A98:	lda     _temp_round
	cmp     #$08
	bne     L2A99
;
; multi_vram_buffer_horz("ENEMY ATE THEIR DUCK", 20, NTADR_A(7, temp_y + 1));
;
	jsr     decsp3
	lda     #<(L275F)
	ldy     #$01
	sta     (sp),y
	iny
	lda     #>(L275F)
;
; else if (temp_round == WIN_BEE_EATEN)
;
	jmp     L2ABC
L2A99:	lda     _temp_round
	cmp     #$04
	bne     L2A9A
;
; multi_vram_buffer_horz("ENEMY BEE EATEN", 15, NTADR_A(7, temp_y + 1));
;
	jsr     decsp3
	lda     #<(L276D)
	ldy     #$01
	sta     (sp),y
	iny
	lda     #>(L276D)
	sta     (sp),y
	lda     #$0F
;
; else if (temp_round == WIN_DUCK_EATEN)
;
	jmp     L2ABA
L2A9A:	lda     _temp_round
	cmp     #$02
	bne     L2A9B
;
; multi_vram_buffer_horz("ENEMY DUCK EATEN", 16, NTADR_A(7, temp_y + 1));
;
	jsr     decsp3
	lda     #<(L277B)
	ldy     #$01
	sta     (sp),y
	iny
	lda     #>(L277B)
	sta     (sp),y
	lda     #$10
;
; else if (temp_round == WIN_MOST_HONEY_COLLECTED)
;
	jmp     L2ABA
L2A9B:	lda     _temp_round
	cmp     #$01
	bne     L2786
;
; multi_vram_buffer_horz("COLLECTED MORE HONEY", 20, NTADR_A(7, temp_y + 1));
;
	jsr     decsp3
	lda     #<(L2789)
	ldy     #$01
	sta     (sp),y
	iny
	lda     #>(L2789)
L2ABC:	sta     (sp),y
	lda     #$14
L2ABA:	ldy     #$00
	sta     (sp),y
	ldx     #$00
	lda     _temp_y
	clc
	adc     #$01
	bcc     L2791
	inx
L2791:	jsr     shlax4
	stx     tmp1
	asl     a
	rol     tmp1
	ora     #$07
	pha
	lda     tmp1
	ora     #$20
	tax
	pla
	jsr     _multi_vram_buffer_horz
;
; ppu_wait_nmi();
;
L2786:	jmp     _ppu_wait_nmi

.endproc

; ---------------------------------------------------------------
; unsigned char __near__ bg_collision_sub (void)
; ---------------------------------------------------------------

.segment	"CODE"

.proc	_bg_collision_sub: near

.segment	"CODE"

;
; if (temp_y >= 0xf0)
;
	lda     _temp_y
	cmp     #$F0
	ldx     #$00
	bcc     L2ABD
;
; return 0;
;
	txa
	rts
;
; temp = map_ptr[((temp_y >> 3) << 5) + (temp_x >> 3)];
;
L2ABD:	lda     _temp_y
	lsr     a
	lsr     a
	lsr     a
	jsr     aslax4
	stx     tmp1
	asl     a
	rol     tmp1
	ldx     tmp1
	sta     ptr1
	stx     ptr1+1
	lda     _temp_x
	lsr     a
	lsr     a
	lsr     a
	clc
	adc     ptr1
	pha
	lda     #$00
	adc     ptr1+1
	tax
	pla
	clc
	adc     _map_ptr
	sta     ptr1
	txa
	adc     _map_ptr+1
	sta     ptr1+1
	ldy     #$00
	lda     (ptr1),y
	sta     _temp
;
; if (temp == 0xc6 || temp == 0xc7 || temp == 0xc8 || temp == 0xc9 || temp == 0xca || temp == 0xa5)
;
	cmp     #$C6
	beq     L2ABE
	lda     _temp
	cmp     #$C7
	beq     L2ABE
	cmp     #$C8
	beq     L2ABE
	cmp     #$C9
	beq     L2ABE
	cmp     #$CA
	beq     L2ABE
	cmp     #$A5
	bne     L2ABF
;
; return 0;
;
L2ABE:	ldx     #$00
	txa
	rts
;
; else if (temp == 0xb6 || temp == 0xb7 || temp == 0xb8 || temp == 0xb9 || temp == 0xba || temp == 0x00 || temp == 0x69 || temp == 0x6a || temp == 0x6b)
;
L2ABF:	lda     _temp
	cmp     #$B6
	beq     L2AC0
	cmp     #$B7
	beq     L2AC0
	cmp     #$B8
	beq     L2AC0
	cmp     #$B9
	beq     L2AC0
	cmp     #$BA
	beq     L2AC0
	lda     _temp
	beq     L2AC0
	cmp     #$69
	beq     L2AC0
	cmp     #$6A
	beq     L2AC0
	cmp     #$6B
	beq     L2AC0
	ldx     #$00
	jmp     L2AC1
;
; return 0;
;
L2AC0:	ldx     #$00
	txa
	rts
;
; return 1;
;
L2AC1:	lda     #$01
;
; }
;
	rts

.endproc

; ---------------------------------------------------------------
; unsigned char __near__ bg_coll_L (void)
; ---------------------------------------------------------------

.segment	"CODE"

.proc	_bg_coll_L: near

.segment	"CODE"

;
; temp_x = Generic.x;
;
	lda     _Generic
	sta     _temp_x
;
; eject_L = temp_x & 0x07; // distance to next tile boundary
;
	and     #$07
	sta     _eject_L
;
; temp_y = Generic.y + 2;
;
	lda     _Generic+1
	clc
	adc     #$02
	sta     _temp_y
;
; if (bg_collision_sub())
;
	jsr     _bg_collision_sub
	tax
	beq     L2AC3
;
; return 1;
;
	ldx     #$00
	lda     #$01
	rts
;
; temp_y = Generic.y + Generic.height;
;
L2AC3:	lda     _Generic+1
	clc
	adc     _Generic+3
	sta     _temp_y
;
; temp_y -= 2;
;
	sec
	sbc     #$02
	sta     _temp_y
;
; if (bg_collision_sub())
;
	jsr     _bg_collision_sub
	tax
	beq     L2AC5
;
; return 1;
;
	ldx     #$00
	lda     #$01
	rts
;
; }
;
L2AC5:	rts

.endproc

; ---------------------------------------------------------------
; unsigned char __near__ bg_coll_R (void)
; ---------------------------------------------------------------

.segment	"CODE"

.proc	_bg_coll_R: near

.segment	"CODE"

;
; temp_x = Generic.x + Generic.width;
;
	lda     _Generic
	clc
	adc     _Generic+2
	sta     _temp_x
;
; eject_R = 8 - (temp_x & 0x07); // distance to next tile boundary
;
	lda     #$08
	jsr     pusha0
	lda     _temp_x
	and     #$07
	jsr     tossuba0
	sta     _eject_R
;
; temp_y = Generic.y + 2;
;
	lda     _Generic+1
	clc
	adc     #$02
	sta     _temp_y
;
; if (bg_collision_sub())
;
	jsr     _bg_collision_sub
	tax
	beq     L2AC8
;
; return 1;
;
	ldx     #$00
	lda     #$01
	rts
;
; temp_y = Generic.y + Generic.height;
;
L2AC8:	lda     _Generic+1
	clc
	adc     _Generic+3
	sta     _temp_y
;
; temp_y -= 2;
;
	sec
	sbc     #$02
	sta     _temp_y
;
; if (bg_collision_sub())
;
	jsr     _bg_collision_sub
	tax
	beq     L2ACA
;
; return 1;
;
	ldx     #$00
	lda     #$01
	rts
;
; }
;
L2ACA:	rts

.endproc

; ---------------------------------------------------------------
; unsigned char __near__ bg_coll_U (void)
; ---------------------------------------------------------------

.segment	"CODE"

.proc	_bg_coll_U: near

.segment	"CODE"

;
; temp_x = Generic.x + 2;
;
	lda     _Generic
	clc
	adc     #$02
	sta     _temp_x
;
; temp_y = Generic.y;
;
	lda     _Generic+1
	sta     _temp_y
;
; eject_U = temp_y & 0x07; // distance to next tile boundary
;
	and     #$07
	sta     _eject_U
;
; if (bg_collision_sub())
;
	jsr     _bg_collision_sub
	tax
	beq     L2ACC
;
; return 1;
;
	ldx     #$00
	lda     #$01
	rts
;
; temp_x = Generic.x + Generic.width;
;
L2ACC:	lda     _Generic
	clc
	adc     _Generic+2
	sta     _temp_x
;
; temp_x -= 2;
;
	sec
	sbc     #$02
	sta     _temp_x
;
; if (bg_collision_sub())
;
	jsr     _bg_collision_sub
	tax
	beq     L2ACE
;
; return 1;
;
	ldx     #$00
	lda     #$01
	rts
;
; }
;
L2ACE:	rts

.endproc

; ---------------------------------------------------------------
; unsigned char __near__ bg_coll_D (void)
; ---------------------------------------------------------------

.segment	"CODE"

.proc	_bg_coll_D: near

.segment	"CODE"

;
; temp_x = Generic.x + 2;
;
	lda     _Generic
	clc
	adc     #$02
	sta     _temp_x
;
; temp_y = Generic.y + Generic.height;
;
	lda     _Generic+1
	clc
	adc     _Generic+3
	sta     _temp_y
;
; eject_D = 8 - (temp_y & 0x07); // distance to next tile boundary
;
	lda     #$08
	jsr     pusha0
	lda     _temp_y
	and     #$07
	jsr     tossuba0
	sta     _eject_D
;
; if (bg_collision_sub())
;
	jsr     _bg_collision_sub
	tax
	beq     L2AD1
;
; return 1;
;
	ldx     #$00
	lda     #$01
	rts
;
; temp_x = Generic.x + Generic.width;
;
L2AD1:	lda     _Generic
	clc
	adc     _Generic+2
	sta     _temp_x
;
; temp_x -= 2;
;
	sec
	sbc     #$02
	sta     _temp_x
;
; if (bg_collision_sub())
;
	jsr     _bg_collision_sub
	tax
	beq     L2AD3
;
; return 1;
;
	ldx     #$00
	lda     #$01
	rts
;
; }
;
L2AD3:	rts

.endproc

; ---------------------------------------------------------------
; unsigned char __near__ sprite_collision (void)
; ---------------------------------------------------------------

.segment	"CODE"

.proc	_sprite_collision: near

.segment	"CODE"

;
; if (temp_x < temp_x2 + collision_box_size && temp_x + collision_box_size > temp_x2 &&
;
	lda     _temp_x
	jsr     pusha0
	lda     _temp_x2
	clc
	adc     _collision_box_size
	bcc     L2AD4
	ldx     #$01
L2AD4:	jsr     tosicmp
	bcs     L20C9
	ldx     #$00
	lda     _temp_x
	clc
	adc     _collision_box_size
	bcc     L2AD5
	inx
L2AD5:	sec
	sbc     _temp_x2
	sta     tmp1
	txa
	sbc     #$00
	ora     tmp1
	bcc     L20C9
	beq     L20C9
;
; temp_y < temp_y2 + collision_box_size && temp_y + collision_box_size > temp_y2)
;
	lda     _temp_y
	jsr     pusha0
	lda     _temp_y2
	clc
	adc     _collision_box_size
	bcc     L2AD6
	ldx     #$01
L2AD6:	jsr     tosicmp
	bcs     L20C9
	ldx     #$00
	lda     _temp_y
	clc
	adc     _collision_box_size
	bcc     L2AD7
	inx
L2AD7:	sec
	sbc     _temp_y2
	sta     tmp1
	txa
	sbc     #$00
	ora     tmp1
	beq     L20C9
	bcs     L20C8
L20C9:	ldx     #$00
	txa
	rts
;
; return 1;
;
L20C8:	ldx     #$00
	lda     #$01
	rts

.endproc

; ---------------------------------------------------------------
; unsigned char __near__ check_powerup_collision (void)
; ---------------------------------------------------------------

.segment	"CODE"

.proc	_check_powerup_collision: near

.segment	"CODE"

;
; if (temp_x + 4 >= temp_x2 && temp_x + 4 < temp_x2 + 16 &&
;
	ldx     #$00
	lda     _temp_x
	clc
	adc     #$04
	bcc     L20D1
	inx
L20D1:	cmp     _temp_x2
	txa
	sbc     #$00
	lda     #$00
	tax
	bcc     L2ADD
	lda     _temp_x
	clc
	adc     #$04
	bcc     L20D3
	inx
L20D3:	jsr     pushax
	ldx     #$00
	lda     _temp_x2
	clc
	adc     #$10
	bcc     L20D4
	inx
L20D4:	jsr     tosicmp
	bcs     L20D2
;
; temp_y + 4 >= temp_y2 && temp_y + 4 < temp_y2 + 16)
;
	ldx     #$00
	lda     _temp_y
	clc
	adc     #$04
	bcc     L20D5
	inx
L20D5:	cmp     _temp_y2
	txa
	sbc     #$00
	lda     #$00
	tax
	bcc     L2ADD
	lda     _temp_y
	clc
	adc     #$04
	bcc     L20D6
	inx
L20D6:	jsr     pushax
	ldx     #$00
	lda     _temp_y2
	clc
	adc     #$10
	bcc     L20D7
	inx
L20D7:	jsr     tosicmp
	bcc     L20D0
L20D2:	ldx     #$00
	txa
	rts
;
; return 1;
;
L20D0:	ldx     #$00
	lda     #$01
	rts
;
; }
;
L2ADD:	rts

.endproc

; ---------------------------------------------------------------
; void __near__ main (void)
; ---------------------------------------------------------------

.segment	"CODE"

.proc	_main: near

.segment	"CODE"

;
; init_system();
;
	jsr     _init_system
;
; init_title_loop();
;
	jsr     _init_title_loop
;
; if (game_mode == MODE_TITLE)
;
L2ADE:	lda     _game_mode
	bne     L2ADF
;
; title_loop();
;
	jsr     _title_loop
;
; if (game_mode == MODE_OPTIONS)
;
L2ADF:	lda     _game_mode
	cmp     #$01
	bne     L2AE0
;
; options_loop();
;
	jsr     _options_loop
;
; if (game_mode == MODE_GAME)
;
L2AE0:	lda     _game_mode
	cmp     #$02
	bne     L2AE1
;
; game_loop();
;
	jsr     _game_loop
;
; if (game_mode == MODE_GAMEOVER)
;
L2AE1:	lda     _game_mode
	cmp     #$03
	bne     L2AE2
;
; gameover_loop();
;
	jsr     _gameover_loop
;
; if (game_mode == MODE_ROUNDOVER)
;
L2AE2:	lda     _game_mode
	cmp     #$04
	bne     L2ADE
;
; roundover_loop();
;
	jsr     _roundover_loop
;
; while (1)
;
	jmp     L2ADE

.endproc

; ---------------------------------------------------------------
; unsigned char __near__ quack_tile_solid (void)
; ---------------------------------------------------------------

.segment	"CODE"

.proc	_quack_tile_solid: near

.segment	"CODE"

;
; if (temp_y2 >= 0xf0)
;
	lda     _temp_y2
	cmp     #$F0
	ldx     #$00
	bcc     L2AE3
;
; return 0;
;
	txa
	rts
;
; largeindex = ((temp_y2 >> 3) << 5) + (temp_x2 >> 3);
;
L2AE3:	lda     _temp_y2
	lsr     a
	lsr     a
	lsr     a
	jsr     aslax4
	stx     tmp1
	asl     a
	rol     tmp1
	ldx     tmp1
	sta     ptr1
	stx     ptr1+1
	lda     _temp_x2
	lsr     a
	lsr     a
	lsr     a
	clc
	adc     ptr1
	sta     _largeindex
	lda     #$00
	adc     ptr1+1
	sta     _largeindex+1
;
; temp = map_ptr[largeindex];
;
	lda     _map_ptr
	clc
	adc     _largeindex
	sta     ptr1
	lda     _map_ptr+1
	adc     _largeindex+1
	sta     ptr1+1
	ldy     #$00
	lda     (ptr1),y
	sta     _temp
;
; if (temp == 0xc6 || temp == 0xc7 || temp == 0xc8 || temp == 0xc9 || temp == 0xca || temp == 0xa5)
;
	cmp     #$C6
	beq     L2AE4
	lda     _temp
	cmp     #$C7
	beq     L2AE4
	cmp     #$C8
	beq     L2AE4
	cmp     #$C9
	beq     L2AE4
	cmp     #$CA
	beq     L2AE4
	cmp     #$A5
	bne     L2AE5
;
; return 0;
;
L2AE4:	ldx     #$00
	txa
	rts
;
; else if (temp == 0xb6 || temp == 0xb7 || temp == 0xb8 || temp == 0xb9 || temp == 0xba || temp == 0x00 || temp == 0x69 || temp == 0x6a || temp == 0x6b)
;
L2AE5:	lda     _temp
	cmp     #$B6
	beq     L2AE6
	cmp     #$B7
	beq     L2AE6
	cmp     #$B8
	beq     L2AE6
	cmp     #$B9
	beq     L2AE6
	cmp     #$BA
	beq     L2AE6
	lda     _temp
	beq     L2AE6
	cmp     #$69
	beq     L2AE6
	cmp     #$6A
	beq     L2AE6
	cmp     #$6B
	beq     L2AE6
	ldx     #$00
	jmp     L2AE7
;
; return 0;
;
L2AE6:	ldx     #$00
	txa
	rts
;
; return 1;
;
L2AE7:	lda     #$01
;
; }
;
	rts

.endproc

; ---------------------------------------------------------------
; void __near__ check_powerup (void)
; ---------------------------------------------------------------

.segment	"CODE"

.proc	_check_powerup: near

.segment	"CODE"

;
; if (powerup1 == 1)
;
	lda     _powerup1
	cmp     #$01
	bne     L2AEF
;
; if (map == MAP_COMBS)
;
	lda     _map
	bne     L2AEC
;
; temp_x2 = COMBS_FLOWER_X[0];
;
	lda     _COMBS_FLOWER_X
	sta     _temp_x2
;
; temp_y2 = COMBS_FLOWER_Y[0];
;
	lda     _COMBS_FLOWER_Y
;
; else if (map == MAP_VINES)
;
	jmp     L2AE8
L2AEC:	lda     _map
	cmp     #$02
	bne     L2AED
;
; temp_x2 = VINES_FLOWER_X[0];
;
	lda     _VINES_FLOWER_X
	sta     _temp_x2
;
; temp_y2 = VINES_FLOWER_Y[0];
;
	lda     _VINES_FLOWER_Y
;
; else if (map == MAP_OUTDOORS)
;
	jmp     L2AE8
L2AED:	lda     _map
	cmp     #$01
	bne     L1DF3
;
; temp_x2 = OUTDOORS_FLOWER_X[0];
;
	lda     _OUTDOORS_FLOWER_X
	sta     _temp_x2
;
; temp_y2 = OUTDOORS_FLOWER_Y[0];
;
	lda     _OUTDOORS_FLOWER_Y
L2AE8:	sta     _temp_y2
;
; if (check_powerup_collision())
;
L1DF3:	jsr     _check_powerup_collision
	tax
	beq     L2AEF
;
; powerup1 = 0; // Remove powerup
;
	lda     #$00
	sta     _powerup1
;
; if (temp == 1)
;
	lda     _temp
	cmp     #$01
	bne     L2AEE
;
; bee1_bigbee_timer = POWERUP_TIMER;
;
	lda     #$0C
	sta     _bee1_bigbee_timer
;
; else if (temp == 3)
;
	jmp     L1E04
L2AEE:	lda     _temp
	cmp     #$03
	bne     L1E04
;
; bee3_bigbee_timer = POWERUP_TIMER;
;
	lda     #$0C
	sta     _bee3_bigbee_timer
;
; sfx_play(SFX_POWERUP, 0);
;
L1E04:	lda     #$06
	jsr     pusha
	lda     #$00
	jsr     _sfx_play
;
; if (powerup2 == 1)
;
L2AEF:	lda     _powerup2
	cmp     #$01
	bne     L2AF3
;
; if (map == MAP_COMBS)
;
	lda     _map
	bne     L2AF0
;
; temp_x2 = COMBS_FLOWER_X[1];
;
	lda     _COMBS_FLOWER_X+1
	sta     _temp_x2
;
; temp_y2 = COMBS_FLOWER_Y[1];
;
	lda     _COMBS_FLOWER_Y+1
;
; else if (map == MAP_VINES)
;
	jmp     L2AE9
L2AF0:	lda     _map
	cmp     #$02
	bne     L2AF1
;
; temp_x2 = VINES_FLOWER_X[1];
;
	lda     _VINES_FLOWER_X+1
	sta     _temp_x2
;
; temp_y2 = VINES_FLOWER_Y[1];
;
	lda     _VINES_FLOWER_Y+1
;
; else if (map == MAP_OUTDOORS)
;
	jmp     L2AE9
L2AF1:	lda     _map
	cmp     #$01
	bne     L1E1F
;
; temp_x2 = OUTDOORS_FLOWER_X[1];
;
	lda     _OUTDOORS_FLOWER_X+1
	sta     _temp_x2
;
; temp_y2 = OUTDOORS_FLOWER_Y[1];
;
	lda     _OUTDOORS_FLOWER_Y+1
L2AE9:	sta     _temp_y2
;
; if (check_powerup_collision())
;
L1E1F:	jsr     _check_powerup_collision
	tax
	beq     L2AF3
;
; powerup2 = 0; // Remove powerup
;
	lda     #$00
	sta     _powerup2
;
; if (temp == 1)
;
	lda     _temp
	cmp     #$01
	bne     L2AF2
;
; bee1_bigbee_timer = POWERUP_TIMER;
;
	lda     #$0C
	sta     _bee1_bigbee_timer
;
; else if (temp == 3)
;
	jmp     L1E30
L2AF2:	lda     _temp
	cmp     #$03
	bne     L1E30
;
; bee3_bigbee_timer = POWERUP_TIMER;
;
	lda     #$0C
	sta     _bee3_bigbee_timer
;
; sfx_play(SFX_POWERUP, 0);
;
L1E30:	lda     #$06
	jsr     pusha
	lda     #$00
	jsr     _sfx_play
;
; if (powerup3 == 1)
;
L2AF3:	lda     _powerup3
	cmp     #$01
	bne     L2AF7
;
; if (map == MAP_COMBS)
;
	lda     _map
	bne     L2AF4
;
; temp_x2 = COMBS_FLOWER_X[2];
;
	lda     _COMBS_FLOWER_X+2
	sta     _temp_x2
;
; temp_y2 = COMBS_FLOWER_Y[2];
;
	lda     _COMBS_FLOWER_Y+2
;
; else if (map == MAP_VINES)
;
	jmp     L2AEA
L2AF4:	lda     _map
	cmp     #$02
	bne     L2AF5
;
; temp_x2 = VINES_FLOWER_X[2];
;
	lda     _VINES_FLOWER_X+2
	sta     _temp_x2
;
; temp_y2 = VINES_FLOWER_Y[2];
;
	lda     _VINES_FLOWER_Y+2
;
; else if (map == MAP_OUTDOORS)
;
	jmp     L2AEA
L2AF5:	lda     _map
	cmp     #$01
	bne     L1E4B
;
; temp_x2 = OUTDOORS_FLOWER_X[2];
;
	lda     _OUTDOORS_FLOWER_X+2
	sta     _temp_x2
;
; temp_y2 = OUTDOORS_FLOWER_Y[2];
;
	lda     _OUTDOORS_FLOWER_Y+2
L2AEA:	sta     _temp_y2
;
; if (check_powerup_collision())
;
L1E4B:	jsr     _check_powerup_collision
	tax
	beq     L2AF7
;
; powerup3 = 0; // Remove powerup
;
	lda     #$00
	sta     _powerup3
;
; if (temp == 1)
;
	lda     _temp
	cmp     #$01
	bne     L2AF6
;
; bee1_bigbee_timer = POWERUP_TIMER;
;
	lda     #$0C
	sta     _bee1_bigbee_timer
;
; else if (temp == 3)
;
	jmp     L1E5C
L2AF6:	lda     _temp
	cmp     #$03
	bne     L1E5C
;
; bee3_bigbee_timer = POWERUP_TIMER;
;
	lda     #$0C
	sta     _bee3_bigbee_timer
;
; sfx_play(SFX_POWERUP, 0);
;
L1E5C:	lda     #$06
	jsr     pusha
	lda     #$00
	jsr     _sfx_play
;
; if (powerup4 == 1)
;
L2AF7:	lda     _powerup4
	cmp     #$01
	bne     L1E7F
;
; if (map == MAP_COMBS)
;
	lda     _map
	bne     L2AF8
;
; temp_x2 = COMBS_FLOWER_X[3];
;
	lda     _COMBS_FLOWER_X+3
	sta     _temp_x2
;
; temp_y2 = COMBS_FLOWER_Y[3];
;
	lda     _COMBS_FLOWER_Y+3
;
; else if (map == MAP_VINES)
;
	jmp     L2AEB
L2AF8:	lda     _map
	cmp     #$02
	bne     L2AF9
;
; temp_x2 = VINES_FLOWER_X[3];
;
	lda     _VINES_FLOWER_X+3
	sta     _temp_x2
;
; temp_y2 = VINES_FLOWER_Y[3];
;
	lda     _VINES_FLOWER_Y+3
;
; else if (map == MAP_OUTDOORS)
;
	jmp     L2AEB
L2AF9:	lda     _map
	cmp     #$01
	bne     L1E77
;
; temp_x2 = OUTDOORS_FLOWER_X[3];
;
	lda     _OUTDOORS_FLOWER_X+3
	sta     _temp_x2
;
; temp_y2 = OUTDOORS_FLOWER_Y[3];
;
	lda     _OUTDOORS_FLOWER_Y+3
L2AEB:	sta     _temp_y2
;
; if (check_powerup_collision())
;
L1E77:	jsr     _check_powerup_collision
	tax
	beq     L1E7F
;
; powerup4 = 0; // Remove powerup
;
	lda     #$00
	sta     _powerup4
;
; if (temp == 1)
;
	lda     _temp
	cmp     #$01
	bne     L2AFA
;
; bee1_bigbee_timer = POWERUP_TIMER;
;
	lda     #$0C
	sta     _bee1_bigbee_timer
;
; else if (temp == 3)
;
	jmp     L1E88
L2AFA:	lda     _temp
	cmp     #$03
	bne     L1E88
;
; bee3_bigbee_timer = POWERUP_TIMER;
;
	lda     #$0C
	sta     _bee3_bigbee_timer
;
; sfx_play(SFX_POWERUP, 0);
;
L1E88:	lda     #$06
	jsr     pusha
	lda     #$00
	jmp     _sfx_play
;
; }
;
L1E7F:	rts

.endproc

; ---------------------------------------------------------------
; unsigned char __near__ is_dot_consumed (unsigned int)
; ---------------------------------------------------------------

.segment	"CODE"

.proc	_is_dot_consumed: near

.segment	"CODE"

;
; {
;
	jsr     pushax
;
; unsigned char byte_index = map_index >> 3; // divide by 8
;
	ldy     #$01
	lda     (sp),y
	tax
	dey
	lda     (sp),y
	jsr     shrax3
	jsr     pusha
;
; unsigned char bit_index = map_index & 0x07; // modulo 8
;
	ldy     #$01
	lda     (sp),y
	and     #$07
	jsr     pusha
;
; return (consumed_dots[byte_index] >> bit_index) & 0x01;
;
	ldy     #$01
	lda     (sp),y
	tay
	lda     _consumed_dots,y
	sta     ptr1
	ldy     #$00
	lda     (sp),y
	tay
	lda     ptr1
L2AFB:	lsr     a
	dey
	bpl     L2AFB
	rol     a
	and     #$01
	ldx     #$00
;
; }
;
	jmp     incsp4

.endproc

; ---------------------------------------------------------------
; void __near__ mark_dot_consumed (unsigned int)
; ---------------------------------------------------------------

.segment	"CODE"

.proc	_mark_dot_consumed: near

.segment	"CODE"

;
; {
;
	jsr     pushax
;
; unsigned char byte_index = map_index >> 3; // divide by 8
;
	ldy     #$01
	lda     (sp),y
	tax
	dey
	lda     (sp),y
	jsr     shrax3
	jsr     pusha
;
; unsigned char bit_index = map_index & 0x07; // modulo 8
;
	ldy     #$01
	lda     (sp),y
	and     #$07
	jsr     pusha
;
; consumed_dots[byte_index] |= (0x01 << bit_index);
;
	lda     #<(_consumed_dots)
	ldx     #>(_consumed_dots)
	ldy     #$01
	clc
	adc     (sp),y
	bcc     L206F
	inx
L206F:	jsr     pushax
	sta     ptr1
	stx     ptr1+1
	ldy     #$00
	lda     (ptr1),y
	sta     ptr1
	ldy     #$02
	lda     (sp),y
	tay
	lda     #$01
L2AFC:	asl     a
	dey
	bpl     L2AFC
	ror     a
	ora     ptr1
	ldy     #$00
	jsr     staspidx
;
; }
;
	jmp     incsp4

.endproc

; ---------------------------------------------------------------
; void __near__ write_two_digits (unsigned char, unsigned char, unsigned char, unsigned char, __near__ unsigned char *)
; ---------------------------------------------------------------

.segment	"CODE"

.proc	_write_two_digits: near

.segment	"CODE"

;
; {
;
	jsr     pushax
;
; unsigned char tens = 0;
;
	lda     #$00
	jsr     pusha
;
; if (value >= 100)
;
	jsr     decsp1
	ldy     #$07
	lda     (sp),y
	cmp     #$64
	bcc     L2AFF
;
; value = 0;
;
	lda     #$00
	sta     (sp),y
;
; if (value == *last_value)
;
L2AFF:	lda     (sp),y
	jsr     pusha0
	ldy     #$05
	lda     (sp),y
	sta     ptr1+1
	dey
	lda     (sp),y
	sta     ptr1
	lda     (ptr1,x)
	jsr     tosicmp0
;
; return;
;
	bne     L2B02
;
; }
;
	jmp     incsp8
;
; *last_value = value;
;
L2B02:	ldy     #$03
	lda     (sp),y
	sta     ptr1+1
	dey
	lda     (sp),y
	sta     ptr1
	ldy     #$07
	lda     (sp),y
	ldy     #$00
	sta     (ptr1),y
;
; ones = value;
;
	ldy     #$07
	lda     (sp),y
	ldy     #$00
;
; while (ones >= 10)
;
	jmp     L2AFD
;
; ones -= 10;
;
L2B01:	lda     (sp),y
	sec
	sbc     #$0A
	sta     (sp),y
;
; ++tens;
;
	ldy     #$01
	clc
	tya
	adc     (sp),y
L2AFD:	sta     (sp),y
;
; while (ones >= 10)
;
	ldy     #$00
	lda     (sp),y
	cmp     #$0A
	bcs     L2B01
;
; one_vram_buffer(tens + 0x30, NTADR_A(x_tens, y));
;
	iny
	lda     (sp),y
	clc
	adc     #$30
	jsr     pusha
	ldy     #$05
	ldx     #$00
	lda     (sp),y
	jsr     aslax4
	stx     tmp1
	asl     a
	rol     tmp1
	sta     ptr1
	ldy     #$07
	lda     (sp),y
	ora     ptr1
	pha
	lda     tmp1
	ora     #$20
	tax
	pla
	jsr     _one_vram_buffer
;
; one_vram_buffer(ones + 0x30, NTADR_A(x_ones, y));
;
	ldy     #$00
	lda     (sp),y
	clc
	adc     #$30
	jsr     pusha
	ldy     #$05
	ldx     #$00
	lda     (sp),y
	jsr     aslax4
	stx     tmp1
	asl     a
	rol     tmp1
	sta     ptr1
	iny
	lda     (sp),y
	ora     ptr1
	pha
	lda     tmp1
	ora     #$20
	tax
	pla
	jsr     _one_vram_buffer
;
; }
;
	jmp     incsp8

.endproc

; ---------------------------------------------------------------
; void __near__ ai_dir_to_pad (void)
; ---------------------------------------------------------------

.segment	"CODE"

.proc	_ai_dir_to_pad: near

.segment	"CODE"

;
; if (ai_dir_work == DIR_UP)
;
	lda     _ai_dir_work
	bne     L2B04
;
; ai_pad_work = PAD_UP;
;
	lda     #$08
;
; else if (ai_dir_work == DIR_DOWN)
;
	jmp     L2B03
L2B04:	lda     _ai_dir_work
	cmp     #$01
	bne     L2B05
;
; ai_pad_work = PAD_DOWN;
;
	lda     #$04
;
; else if (ai_dir_work == DIR_LEFT)
;
	jmp     L2B03
L2B05:	lda     _ai_dir_work
	cmp     #$02
;
; else
;
	beq     L2B03
;
; ai_pad_work = PAD_RIGHT;
;
	lda     #$01
L2B03:	sta     _ai_pad_work
;
; }
;
	rts

.endproc

; ---------------------------------------------------------------
; void __near__ ai_update (void)
; ---------------------------------------------------------------

.segment	"CODE"

.proc	_ai_update: near

.segment	"CODE"

;
; if (ai_collision_work)
;
	lda     _ai_collision_work
	beq     L2126
;
; ai_timer_work = 0;
;
	lda     #$00
	sta     _ai_timer_work
;
; temp = ai_dir_work;
;
	lda     _ai_dir_work
	sta     _temp
;
; ai_dir_work = rand8() & 0x03;
;
L212C:	jsr     _rand8
	and     #$03
	sta     _ai_dir_work
;
; } while (ai_dir_work == temp);
;
	lda     _temp
	cmp     _ai_dir_work
	beq     L212C
;
; ai_collision_work = 0;
;
	lda     #$00
	sta     _ai_collision_work
;
; }
;
L2126:	rts

.endproc

