;
; File generated by cc65 v 2.18 - N/A
;
	.fopt		compiler,"cc65 v 2.18 - N/A"
	.setcpu		"6502"
	.smart		on
	.autoimport	on
	.case		on
	.debuginfo	off
	.importzp	sp, sreg, regsave, regbank
	.importzp	tmp1, tmp2, tmp3, tmp4, ptr1, ptr2, ptr3, ptr4
	.macpack	longbranch
	.forceimport	__STARTUP__
	.import		_pal_bg
	.import		_pal_spr
	.import		_ppu_wait_nmi
	.import		_ppu_off
	.import		_ppu_on_all
	.import		_oam_clear
	.import		_oam_meta_spr
	.import		_music_play
	.import		_music_stop
	.import		_sfx_play
	.import		_pad_poll
	.import		_bank_spr
	.import		_rand8
	.import		_vram_adr
	.import		_vram_put
	.import		_delay
	.import		_set_vram_buffer
	.import		_one_vram_buffer
	.import		_multi_vram_buffer_horz
	.import		_clear_vram_buffer
	.import		_set_music_speed
	.import		_set_scroll_y
	.import		_pad_poll_4score_1_3
	.import		_pad_poll_4score_2_4
	.export		_gamesprites_smallbeeleft0_data
	.export		_gamesprites_smallbeeleft1_data
	.export		_gamesprites_smallbeeleft2_data
	.export		_gamesprites_smallbeeright0_data
	.export		_gamesprites_smallbeeright1_data
	.export		_gamesprites_smallbeeright2_data
	.export		_gamesprites_bigbeeleft0_data
	.export		_gamesprites_bigbeeleft1_data
	.export		_gamesprites_bigbeeleft2_data
	.export		_gamesprites_bigbeeright0_data
	.export		_gamesprites_bigbeeright1_data
	.export		_gamesprites_bigbeeright2_data
	.export		_gamesprites_smallbee2left0_data
	.export		_gamesprites_smallbee2left1_data
	.export		_gamesprites_smallbee2left2_data
	.export		_gamesprites_smallbee2right0_data
	.export		_gamesprites_smallbee2right1_data
	.export		_gamesprites_smallbee2right2_data
	.export		_gamesprites_bigbee2left0_data
	.export		_gamesprites_bigbee2left1_data
	.export		_gamesprites_bigbee2left2_data
	.export		_gamesprites_bigbee2right0_data
	.export		_gamesprites_bigbee2right1_data
	.export		_gamesprites_bigbee2right2_data
	.export		_gamesprites_smallduckleft0_data
	.export		_gamesprites_smallduckleft1_data
	.export		_gamesprites_smallduckleft2_data
	.export		_gamesprites_smallduckright0_data
	.export		_gamesprites_smallduckright1_data
	.export		_gamesprites_smallduckright2_data
	.export		_gamesprites_smallduck2left0_data
	.export		_gamesprites_smallduck2left1_data
	.export		_gamesprites_smallduck2left2_data
	.export		_gamesprites_smallduck2right0_data
	.export		_gamesprites_smallduck2right1_data
	.export		_gamesprites_smallduck2right2_data
	.export		_gamesprites_big3_data
	.export		_gamesprites_big2_data
	.export		_gamesprites_big1_data
	.export		_gamesprites_box1_data
	.export		_gamesprites_box2_data
	.export		_gamesprites_box3_data
	.export		_gamesprites_box4_data
	.export		_gamesprites_quackright_data
	.export		_gamesprites_quackleft_data
	.export		_gamesprites_quackup_data
	.export		_gamesprites_quackdown_data
	.export		_gamesprites_powerup_data
	.export		_gamesprites_win_icon_honey
	.export		_gamesprites_win_icon_time
	.export		_gamesprites_win_blueduck
	.export		_gamesprites_win_redduck
	.export		_gamesprites_win_bluebee
	.export		_gamesprites_win_redbee
	.export		_gamesprites_win_unwon
	.export		_tick_frequency
	.export		_doublepad
	.export		_generic_pad
	.export		_turbo_p1
	.export		_turbo_p2
	.export		_turbo_p3
	.export		_turbo_p4
	.export		_prev_pad1
	.export		_prev_pad2
	.export		_prev_pad3
	.export		_prev_pad4
	.export		_pad1
	.export		_pad2
	.export		_pad3
	.export		_pad4
	.export		_pad1_new
	.export		_pad2_new
	.export		_pad3_new
	.export		_pad4_new
	.export		_game_mode
	.export		_winner
	.export		_game_frame_timer
	.export		_game_timer
	.export		_speed_option
	.export		_current_speed
	.export		_force_redraw
	.export		_use_turbo
	.export		_turbo_amount
	.export		_ducks_go_faster_over_time
	.export		_map_positions
	.export		_collision
	.export		_collision_L
	.export		_collision_R
	.export		_collision_U
	.export		_collision_D
	.export		_coordinates
	.export		_temp1
	.export		_temp2
	.export		_temp3
	.export		_temp4
	.export		_temp5
	.export		_temp6
	.export		_tempint
	.export		_eject_L
	.export		_eject_R
	.export		_eject_D
	.export		_eject_U
	.export		_address
	.export		_x
	.export		_y
	.export		_index
	.export		_map
	.export		_scroll_x
	.export		_scroll_y
	.export		_hero_velocity_x
	.export		_hero_velocity_y
	.export		_old_x
	.export		_old_y
	.export		_signed_temp
	.export		_signed_temp2
	.export		_temp
	.export		_temp_x
	.export		_temp_y
	.export		_temp_x2
	.export		_temp_y2
	.export		_largeindex
	.export		_song
	.export		_collision_box_size
	.export		_current_settings_choice
	.export		_settings_map
	.export		_settings_speed
	.export		_settings_song
	.export		_map_ptr
	.export		_bit_index
	.export		_bit_offset
	.export		_frame_counter
	.export		_ai_counter
	.export		_use_ai_player_1
	.export		_use_ai_player_2
	.export		_use_ai_player_3
	.export		_use_ai_player_4
	.export		_ai_timer_p1
	.export		_ai_timer_p2
	.export		_ai_timer_p3
	.export		_ai_timer_p4
	.export		_ai_dir_p1
	.export		_ai_dir_p2
	.export		_ai_dir_p3
	.export		_ai_dir_p4
	.export		_ai_timer_work
	.export		_ai_dir_work
	.export		_ai_collision_work
	.export		_ai_pad_work
	.export		_current_player
	.export		_team1_score
	.export		_team2_score
	.export		_temp_win_reason
	.export		_temp_win_team
	.export		_team1_wins
	.export		_team2_wins
	.export		_team1_win1
	.export		_team1_win2
	.export		_team1_win3
	.export		_team2_win1
	.export		_team2_win2
	.export		_team2_win3
	.export		_round_1_winner
	.export		_round_2_winner
	.export		_round_3_winner
	.export		_round_4_winner
	.export		_round_5_winner
	.export		_round_1
	.export		_round_2
	.export		_round_3
	.export		_round_4
	.export		_round_5
	.export		_temp_round
	.export		_temp_winner
	.export		_current_round
	.export		_win_reason
	.export		_powerup1
	.export		_powerup2
	.export		_powerup3
	.export		_powerup4
	.export		_bee1_bigbee_timer
	.export		_bee3_bigbee_timer
	.export		_sprite_rotation
	.export		_anim_frame_1
	.export		_anim_frame_2
	.export		_anim_frame_3
	.export		_anim_frame_4
	.export		_consumed_dots
	.export		_start_hold_timer
	.export		_start_held
	.export		_combs
	.export		_vines
	.export		_outdoors
	.export		_settings
	.export		_title
	.export		_Generic
	.export		_quack2
	.export		_quack4
	.export		_quack2_cooldown
	.export		_quack4_cooldown
	.export		_stun_p1
	.export		_stun_p2
	.export		_stun_p3
	.export		_stun_p4
	.export		_GenericBoxGuy
	.export		_BoxGuy1
	.export		_BoxGuy2
	.export		_BoxGuy3
	.export		_BoxGuy4
	.export		_COMBS_FLOWER_X
	.export		_COMBS_FLOWER_Y
	.export		_VINES_FLOWER_X
	.export		_VINES_FLOWER_Y
	.export		_OUTDOORS_FLOWER_X
	.export		_OUTDOORS_FLOWER_Y
	.export		_palette_combsnplants_bg
	.export		_palette_outdoors_bg
	.export		_palette_vineswoflowers_bg
	.export		_palette_sp
	.export		_palette_title_bg
	.export		_palette_options_bg
	.export		_metatiles1
	.export		_load_room
	.export		_draw_sprites
	.export		_draw_player_1
	.export		_draw_player_2
	.export		_draw_player_3
	.export		_draw_player_4
	.export		_movement
	.export		_check_tile_and_collect
	.export		_draw_hud
	.export		_read_controllers
	.export		_player1_ai
	.export		_player2_ai
	.export		_player3_ai
	.export		_player4_ai
	.export		_game_loop
	.export		_title_loop
	.export		_options_loop
	.export		_gameover_loop
	.export		_init_game_loop
	.export		_init_options_loop
	.export		_init_gameover_loop
	.export		_init_title_loop
	.export		_init_system
	.export		_clear_background
	.export		_update_hud
	.export		_init_roundover
	.export		_start_round
	.export		_roundover_loop
	.export		_game_counters
	.export		_quack_movement
	.export		_load_bg_palette
	.export		_update_options_screen
	.export		_draw_win_round_sprite
	.export		_display_round_summary
	.export		_bg_collision_sub
	.export		_bg_coll_L
	.export		_bg_coll_R
	.export		_bg_coll_U
	.export		_bg_coll_D
	.export		_sprite_collision
	.export		_check_powerup_collision
	.export		_main
	.export		_quack_tile_solid
	.export		_check_powerup
	.export		_pellet_tiles
	.export		_blank_tiles
	.export		_is_dot_consumed
	.export		_mark_dot_consumed

.segment	"DATA"

_BoxGuy1:
	.word	$4000
	.word	$2800
	.byte	$04
	.byte	$00
	.byte	$00
_BoxGuy2:
	.word	$8000
	.word	$3000
	.byte	$04
	.byte	$00
	.byte	$00
_BoxGuy3:
	.word	$A000
	.word	$3000
	.byte	$04
	.byte	$00
	.byte	$00
_BoxGuy4:
	.word	$C000
	.word	$4000
	.byte	$04
	.byte	$00
	.byte	$00
_last_team1_score:
	.byte	$FF
_last_team2_score:
	.byte	$FF
_last_game_timer:
	.byte	$FF

.segment	"RODATA"

_gamesprites_smallbeeleft0_data:
	.byte	$00
	.byte	$00
	.byte	$27
	.byte	$00
	.byte	$08
	.byte	$00
	.byte	$28
	.byte	$00
	.byte	$80
_gamesprites_smallbeeleft1_data:
	.byte	$00
	.byte	$00
	.byte	$29
	.byte	$00
	.byte	$08
	.byte	$00
	.byte	$2A
	.byte	$00
	.byte	$80
_gamesprites_smallbeeleft2_data:
	.byte	$00
	.byte	$00
	.byte	$2B
	.byte	$00
	.byte	$08
	.byte	$00
	.byte	$2C
	.byte	$00
	.byte	$80
_gamesprites_smallbeeright0_data:
	.byte	$00
	.byte	$00
	.byte	$27
	.byte	$40
	.byte	$F8
	.byte	$00
	.byte	$28
	.byte	$40
	.byte	$80
_gamesprites_smallbeeright1_data:
	.byte	$00
	.byte	$00
	.byte	$29
	.byte	$40
	.byte	$F8
	.byte	$00
	.byte	$2A
	.byte	$40
	.byte	$80
_gamesprites_smallbeeright2_data:
	.byte	$00
	.byte	$00
	.byte	$2B
	.byte	$40
	.byte	$F8
	.byte	$00
	.byte	$2C
	.byte	$40
	.byte	$80
_gamesprites_bigbeeleft0_data:
	.byte	$FC
	.byte	$03
	.byte	$47
	.byte	$00
	.byte	$FC
	.byte	$FB
	.byte	$37
	.byte	$00
	.byte	$04
	.byte	$03
	.byte	$48
	.byte	$00
	.byte	$04
	.byte	$FB
	.byte	$38
	.byte	$00
	.byte	$80
_gamesprites_bigbeeleft1_data:
	.byte	$FC
	.byte	$03
	.byte	$49
	.byte	$00
	.byte	$FC
	.byte	$FB
	.byte	$39
	.byte	$00
	.byte	$04
	.byte	$FB
	.byte	$3A
	.byte	$00
	.byte	$04
	.byte	$03
	.byte	$4A
	.byte	$00
	.byte	$80
_gamesprites_bigbeeleft2_data:
	.byte	$FC
	.byte	$03
	.byte	$4B
	.byte	$00
	.byte	$FC
	.byte	$FB
	.byte	$3B
	.byte	$00
	.byte	$04
	.byte	$FB
	.byte	$3C
	.byte	$00
	.byte	$04
	.byte	$03
	.byte	$4C
	.byte	$00
	.byte	$80
_gamesprites_bigbeeright0_data:
	.byte	$04
	.byte	$03
	.byte	$47
	.byte	$40
	.byte	$04
	.byte	$FB
	.byte	$37
	.byte	$40
	.byte	$FC
	.byte	$03
	.byte	$48
	.byte	$40
	.byte	$FC
	.byte	$FB
	.byte	$38
	.byte	$40
	.byte	$80
_gamesprites_bigbeeright1_data:
	.byte	$04
	.byte	$03
	.byte	$49
	.byte	$40
	.byte	$04
	.byte	$FB
	.byte	$39
	.byte	$40
	.byte	$FC
	.byte	$FB
	.byte	$3A
	.byte	$40
	.byte	$FC
	.byte	$03
	.byte	$4A
	.byte	$40
	.byte	$80
_gamesprites_bigbeeright2_data:
	.byte	$04
	.byte	$03
	.byte	$4B
	.byte	$40
	.byte	$04
	.byte	$FB
	.byte	$3B
	.byte	$40
	.byte	$FC
	.byte	$FB
	.byte	$3C
	.byte	$40
	.byte	$FC
	.byte	$03
	.byte	$4C
	.byte	$40
	.byte	$80
_gamesprites_smallbee2left0_data:
	.byte	$00
	.byte	$00
	.byte	$27
	.byte	$02
	.byte	$08
	.byte	$00
	.byte	$28
	.byte	$02
	.byte	$80
_gamesprites_smallbee2left1_data:
	.byte	$00
	.byte	$00
	.byte	$29
	.byte	$02
	.byte	$08
	.byte	$00
	.byte	$2A
	.byte	$02
	.byte	$80
_gamesprites_smallbee2left2_data:
	.byte	$00
	.byte	$00
	.byte	$2B
	.byte	$02
	.byte	$08
	.byte	$00
	.byte	$2C
	.byte	$02
	.byte	$80
_gamesprites_smallbee2right0_data:
	.byte	$00
	.byte	$00
	.byte	$27
	.byte	$42
	.byte	$F8
	.byte	$00
	.byte	$28
	.byte	$42
	.byte	$80
_gamesprites_smallbee2right1_data:
	.byte	$00
	.byte	$00
	.byte	$29
	.byte	$42
	.byte	$F8
	.byte	$00
	.byte	$2A
	.byte	$42
	.byte	$80
_gamesprites_smallbee2right2_data:
	.byte	$00
	.byte	$00
	.byte	$2B
	.byte	$42
	.byte	$F8
	.byte	$00
	.byte	$2C
	.byte	$42
	.byte	$80
_gamesprites_bigbee2left0_data:
	.byte	$FC
	.byte	$03
	.byte	$47
	.byte	$02
	.byte	$FC
	.byte	$FB
	.byte	$37
	.byte	$02
	.byte	$04
	.byte	$03
	.byte	$48
	.byte	$02
	.byte	$04
	.byte	$FB
	.byte	$38
	.byte	$02
	.byte	$80
_gamesprites_bigbee2left1_data:
	.byte	$FC
	.byte	$03
	.byte	$49
	.byte	$02
	.byte	$FC
	.byte	$FB
	.byte	$39
	.byte	$02
	.byte	$04
	.byte	$FB
	.byte	$3A
	.byte	$02
	.byte	$04
	.byte	$03
	.byte	$4A
	.byte	$02
	.byte	$80
_gamesprites_bigbee2left2_data:
	.byte	$FC
	.byte	$03
	.byte	$4B
	.byte	$02
	.byte	$FC
	.byte	$FB
	.byte	$3B
	.byte	$02
	.byte	$04
	.byte	$FB
	.byte	$3C
	.byte	$02
	.byte	$04
	.byte	$03
	.byte	$4C
	.byte	$02
	.byte	$80
_gamesprites_bigbee2right0_data:
	.byte	$04
	.byte	$03
	.byte	$47
	.byte	$42
	.byte	$04
	.byte	$FB
	.byte	$37
	.byte	$42
	.byte	$FC
	.byte	$03
	.byte	$48
	.byte	$42
	.byte	$FC
	.byte	$FB
	.byte	$38
	.byte	$42
	.byte	$80
_gamesprites_bigbee2right1_data:
	.byte	$04
	.byte	$03
	.byte	$49
	.byte	$42
	.byte	$04
	.byte	$FB
	.byte	$39
	.byte	$42
	.byte	$FC
	.byte	$FB
	.byte	$3A
	.byte	$42
	.byte	$FC
	.byte	$03
	.byte	$4A
	.byte	$42
	.byte	$80
_gamesprites_bigbee2right2_data:
	.byte	$04
	.byte	$03
	.byte	$4B
	.byte	$42
	.byte	$04
	.byte	$FB
	.byte	$3B
	.byte	$42
	.byte	$FC
	.byte	$FB
	.byte	$6C
	.byte	$42
	.byte	$FC
	.byte	$03
	.byte	$4C
	.byte	$42
	.byte	$80
_gamesprites_smallduckleft0_data:
	.byte	$00
	.byte	$FF
	.byte	$0C
	.byte	$00
	.byte	$00
	.byte	$07
	.byte	$1C
	.byte	$00
	.byte	$80
_gamesprites_smallduckleft1_data:
	.byte	$00
	.byte	$FF
	.byte	$0D
	.byte	$00
	.byte	$00
	.byte	$07
	.byte	$1D
	.byte	$00
	.byte	$80
_gamesprites_smallduckleft2_data:
	.byte	$00
	.byte	$FF
	.byte	$0B
	.byte	$00
	.byte	$00
	.byte	$07
	.byte	$1C
	.byte	$40
	.byte	$80
_gamesprites_smallduckright0_data:
	.byte	$00
	.byte	$FF
	.byte	$0C
	.byte	$40
	.byte	$00
	.byte	$07
	.byte	$1C
	.byte	$40
	.byte	$80
_gamesprites_smallduckright1_data:
	.byte	$00
	.byte	$FF
	.byte	$0D
	.byte	$40
	.byte	$00
	.byte	$07
	.byte	$1D
	.byte	$40
	.byte	$80
_gamesprites_smallduckright2_data:
	.byte	$00
	.byte	$FF
	.byte	$0B
	.byte	$40
	.byte	$00
	.byte	$07
	.byte	$1C
	.byte	$00
	.byte	$80
_gamesprites_smallduck2left0_data:
	.byte	$00
	.byte	$FF
	.byte	$0C
	.byte	$02
	.byte	$00
	.byte	$07
	.byte	$1C
	.byte	$00
	.byte	$80
_gamesprites_smallduck2left1_data:
	.byte	$00
	.byte	$FF
	.byte	$0D
	.byte	$02
	.byte	$00
	.byte	$07
	.byte	$1D
	.byte	$02
	.byte	$80
_gamesprites_smallduck2left2_data:
	.byte	$00
	.byte	$FF
	.byte	$0B
	.byte	$02
	.byte	$00
	.byte	$07
	.byte	$1C
	.byte	$42
	.byte	$80
_gamesprites_smallduck2right0_data:
	.byte	$00
	.byte	$FF
	.byte	$0C
	.byte	$42
	.byte	$00
	.byte	$07
	.byte	$1C
	.byte	$42
	.byte	$80
_gamesprites_smallduck2right1_data:
	.byte	$00
	.byte	$FF
	.byte	$0D
	.byte	$42
	.byte	$00
	.byte	$07
	.byte	$1D
	.byte	$42
	.byte	$80
_gamesprites_smallduck2right2_data:
	.byte	$00
	.byte	$FF
	.byte	$0D
	.byte	$42
	.byte	$00
	.byte	$07
	.byte	$1C
	.byte	$02
	.byte	$80
_gamesprites_big3_data:
	.byte	$00
	.byte	$00
	.byte	$05
	.byte	$01
	.byte	$08
	.byte	$00
	.byte	$06
	.byte	$01
	.byte	$10
	.byte	$00
	.byte	$07
	.byte	$01
	.byte	$00
	.byte	$10
	.byte	$05
	.byte	$01
	.byte	$08
	.byte	$10
	.byte	$06
	.byte	$01
	.byte	$10
	.byte	$10
	.byte	$15
	.byte	$01
	.byte	$10
	.byte	$08
	.byte	$08
	.byte	$01
	.byte	$00
	.byte	$20
	.byte	$05
	.byte	$01
	.byte	$08
	.byte	$20
	.byte	$06
	.byte	$01
	.byte	$10
	.byte	$20
	.byte	$07
	.byte	$81
	.byte	$10
	.byte	$18
	.byte	$08
	.byte	$01
	.byte	$F8
	.byte	$00
	.byte	$03
	.byte	$01
	.byte	$18
	.byte	$00
	.byte	$03
	.byte	$01
	.byte	$F8
	.byte	$08
	.byte	$03
	.byte	$01
	.byte	$00
	.byte	$08
	.byte	$03
	.byte	$01
	.byte	$08
	.byte	$08
	.byte	$03
	.byte	$01
	.byte	$18
	.byte	$08
	.byte	$03
	.byte	$01
	.byte	$F8
	.byte	$10
	.byte	$03
	.byte	$01
	.byte	$18
	.byte	$10
	.byte	$03
	.byte	$01
	.byte	$18
	.byte	$18
	.byte	$03
	.byte	$01
	.byte	$18
	.byte	$20
	.byte	$03
	.byte	$01
	.byte	$08
	.byte	$18
	.byte	$03
	.byte	$01
	.byte	$00
	.byte	$18
	.byte	$03
	.byte	$01
	.byte	$F8
	.byte	$18
	.byte	$03
	.byte	$01
	.byte	$F8
	.byte	$20
	.byte	$03
	.byte	$01
	.byte	$20
	.byte	$00
	.byte	$03
	.byte	$01
	.byte	$F0
	.byte	$00
	.byte	$03
	.byte	$01
	.byte	$20
	.byte	$08
	.byte	$03
	.byte	$01
	.byte	$20
	.byte	$10
	.byte	$03
	.byte	$01
	.byte	$20
	.byte	$18
	.byte	$03
	.byte	$01
	.byte	$20
	.byte	$20
	.byte	$03
	.byte	$01
	.byte	$F0
	.byte	$08
	.byte	$03
	.byte	$01
	.byte	$F0
	.byte	$10
	.byte	$03
	.byte	$01
	.byte	$F0
	.byte	$18
	.byte	$03
	.byte	$01
	.byte	$F0
	.byte	$20
	.byte	$03
	.byte	$01
	.byte	$F0
	.byte	$F8
	.byte	$03
	.byte	$01
	.byte	$F8
	.byte	$F8
	.byte	$03
	.byte	$01
	.byte	$00
	.byte	$F8
	.byte	$03
	.byte	$01
	.byte	$08
	.byte	$F8
	.byte	$03
	.byte	$01
	.byte	$10
	.byte	$F8
	.byte	$03
	.byte	$01
	.byte	$18
	.byte	$F8
	.byte	$03
	.byte	$01
	.byte	$20
	.byte	$F8
	.byte	$03
	.byte	$01
	.byte	$F0
	.byte	$28
	.byte	$03
	.byte	$01
	.byte	$F8
	.byte	$28
	.byte	$03
	.byte	$01
	.byte	$00
	.byte	$28
	.byte	$03
	.byte	$01
	.byte	$08
	.byte	$28
	.byte	$03
	.byte	$01
	.byte	$10
	.byte	$28
	.byte	$03
	.byte	$01
	.byte	$18
	.byte	$28
	.byte	$03
	.byte	$01
	.byte	$20
	.byte	$28
	.byte	$03
	.byte	$01
	.byte	$80
_gamesprites_big2_data:
	.byte	$00
	.byte	$00
	.byte	$05
	.byte	$01
	.byte	$08
	.byte	$00
	.byte	$06
	.byte	$01
	.byte	$10
	.byte	$00
	.byte	$07
	.byte	$01
	.byte	$10
	.byte	$08
	.byte	$08
	.byte	$01
	.byte	$10
	.byte	$10
	.byte	$07
	.byte	$81
	.byte	$08
	.byte	$10
	.byte	$06
	.byte	$01
	.byte	$00
	.byte	$10
	.byte	$07
	.byte	$41
	.byte	$00
	.byte	$18
	.byte	$08
	.byte	$01
	.byte	$00
	.byte	$20
	.byte	$07
	.byte	$C1
	.byte	$08
	.byte	$20
	.byte	$06
	.byte	$01
	.byte	$10
	.byte	$20
	.byte	$05
	.byte	$41
	.byte	$F8
	.byte	$00
	.byte	$03
	.byte	$01
	.byte	$18
	.byte	$00
	.byte	$03
	.byte	$01
	.byte	$18
	.byte	$08
	.byte	$03
	.byte	$01
	.byte	$00
	.byte	$08
	.byte	$03
	.byte	$01
	.byte	$08
	.byte	$08
	.byte	$03
	.byte	$01
	.byte	$F8
	.byte	$08
	.byte	$03
	.byte	$01
	.byte	$F8
	.byte	$10
	.byte	$03
	.byte	$01
	.byte	$18
	.byte	$10
	.byte	$03
	.byte	$01
	.byte	$F8
	.byte	$18
	.byte	$03
	.byte	$01
	.byte	$08
	.byte	$18
	.byte	$03
	.byte	$01
	.byte	$10
	.byte	$18
	.byte	$03
	.byte	$01
	.byte	$18
	.byte	$18
	.byte	$03
	.byte	$01
	.byte	$F8
	.byte	$20
	.byte	$03
	.byte	$01
	.byte	$18
	.byte	$20
	.byte	$03
	.byte	$01
	.byte	$20
	.byte	$00
	.byte	$03
	.byte	$01
	.byte	$20
	.byte	$08
	.byte	$03
	.byte	$01
	.byte	$20
	.byte	$10
	.byte	$03
	.byte	$01
	.byte	$20
	.byte	$18
	.byte	$03
	.byte	$01
	.byte	$20
	.byte	$20
	.byte	$03
	.byte	$01
	.byte	$F0
	.byte	$00
	.byte	$03
	.byte	$01
	.byte	$F0
	.byte	$08
	.byte	$03
	.byte	$01
	.byte	$F0
	.byte	$10
	.byte	$03
	.byte	$01
	.byte	$F0
	.byte	$18
	.byte	$03
	.byte	$01
	.byte	$F0
	.byte	$20
	.byte	$03
	.byte	$01
	.byte	$F0
	.byte	$F8
	.byte	$03
	.byte	$01
	.byte	$F8
	.byte	$F8
	.byte	$03
	.byte	$01
	.byte	$00
	.byte	$F8
	.byte	$03
	.byte	$01
	.byte	$08
	.byte	$F8
	.byte	$03
	.byte	$01
	.byte	$10
	.byte	$F8
	.byte	$03
	.byte	$01
	.byte	$18
	.byte	$F8
	.byte	$03
	.byte	$01
	.byte	$20
	.byte	$F8
	.byte	$03
	.byte	$01
	.byte	$F0
	.byte	$28
	.byte	$03
	.byte	$01
	.byte	$F8
	.byte	$28
	.byte	$03
	.byte	$01
	.byte	$00
	.byte	$28
	.byte	$03
	.byte	$01
	.byte	$08
	.byte	$28
	.byte	$03
	.byte	$01
	.byte	$10
	.byte	$28
	.byte	$03
	.byte	$01
	.byte	$18
	.byte	$28
	.byte	$03
	.byte	$01
	.byte	$20
	.byte	$28
	.byte	$03
	.byte	$01
	.byte	$80
_gamesprites_big1_data:
	.byte	$08
	.byte	$08
	.byte	$15
	.byte	$01
	.byte	$08
	.byte	$10
	.byte	$08
	.byte	$01
	.byte	$08
	.byte	$18
	.byte	$08
	.byte	$01
	.byte	$00
	.byte	$20
	.byte	$05
	.byte	$01
	.byte	$10
	.byte	$20
	.byte	$05
	.byte	$41
	.byte	$00
	.byte	$08
	.byte	$05
	.byte	$01
	.byte	$08
	.byte	$20
	.byte	$17
	.byte	$01
	.byte	$08
	.byte	$00
	.byte	$16
	.byte	$01
	.byte	$F8
	.byte	$00
	.byte	$03
	.byte	$01
	.byte	$00
	.byte	$00
	.byte	$03
	.byte	$01
	.byte	$10
	.byte	$00
	.byte	$03
	.byte	$01
	.byte	$18
	.byte	$00
	.byte	$03
	.byte	$01
	.byte	$18
	.byte	$08
	.byte	$03
	.byte	$01
	.byte	$18
	.byte	$10
	.byte	$03
	.byte	$01
	.byte	$18
	.byte	$18
	.byte	$03
	.byte	$01
	.byte	$18
	.byte	$20
	.byte	$03
	.byte	$01
	.byte	$10
	.byte	$08
	.byte	$03
	.byte	$01
	.byte	$10
	.byte	$10
	.byte	$03
	.byte	$01
	.byte	$10
	.byte	$18
	.byte	$03
	.byte	$01
	.byte	$F8
	.byte	$08
	.byte	$03
	.byte	$01
	.byte	$F8
	.byte	$10
	.byte	$03
	.byte	$01
	.byte	$F8
	.byte	$18
	.byte	$03
	.byte	$01
	.byte	$F8
	.byte	$20
	.byte	$03
	.byte	$01
	.byte	$00
	.byte	$10
	.byte	$03
	.byte	$01
	.byte	$00
	.byte	$18
	.byte	$03
	.byte	$01
	.byte	$20
	.byte	$00
	.byte	$03
	.byte	$01
	.byte	$F0
	.byte	$00
	.byte	$03
	.byte	$01
	.byte	$20
	.byte	$08
	.byte	$03
	.byte	$01
	.byte	$20
	.byte	$10
	.byte	$03
	.byte	$01
	.byte	$20
	.byte	$18
	.byte	$03
	.byte	$01
	.byte	$20
	.byte	$20
	.byte	$03
	.byte	$01
	.byte	$F0
	.byte	$08
	.byte	$03
	.byte	$01
	.byte	$F0
	.byte	$10
	.byte	$03
	.byte	$01
	.byte	$F0
	.byte	$18
	.byte	$03
	.byte	$01
	.byte	$F0
	.byte	$20
	.byte	$03
	.byte	$01
	.byte	$F0
	.byte	$F8
	.byte	$03
	.byte	$01
	.byte	$F8
	.byte	$F8
	.byte	$03
	.byte	$01
	.byte	$00
	.byte	$F8
	.byte	$03
	.byte	$01
	.byte	$08
	.byte	$F8
	.byte	$03
	.byte	$01
	.byte	$10
	.byte	$F8
	.byte	$03
	.byte	$01
	.byte	$18
	.byte	$F8
	.byte	$03
	.byte	$01
	.byte	$20
	.byte	$F8
	.byte	$03
	.byte	$01
	.byte	$F0
	.byte	$28
	.byte	$03
	.byte	$01
	.byte	$F8
	.byte	$28
	.byte	$03
	.byte	$01
	.byte	$00
	.byte	$28
	.byte	$03
	.byte	$01
	.byte	$08
	.byte	$28
	.byte	$03
	.byte	$01
	.byte	$10
	.byte	$28
	.byte	$03
	.byte	$01
	.byte	$18
	.byte	$28
	.byte	$03
	.byte	$01
	.byte	$20
	.byte	$28
	.byte	$03
	.byte	$01
	.byte	$80
_gamesprites_box1_data:
	.byte	$00
	.byte	$00
	.byte	$12
	.byte	$00
	.byte	$80
_gamesprites_box2_data:
	.byte	$00
	.byte	$00
	.byte	$12
	.byte	$01
	.byte	$80
_gamesprites_box3_data:
	.byte	$00
	.byte	$00
	.byte	$12
	.byte	$02
	.byte	$80
_gamesprites_box4_data:
	.byte	$00
	.byte	$00
	.byte	$12
	.byte	$03
	.byte	$80
_gamesprites_quackright_data:
	.byte	$00
	.byte	$00
	.byte	$0E
	.byte	$00
	.byte	$80
_gamesprites_quackleft_data:
	.byte	$00
	.byte	$00
	.byte	$0E
	.byte	$40
	.byte	$80
_gamesprites_quackup_data:
	.byte	$00
	.byte	$00
	.byte	$0F
	.byte	$00
	.byte	$80
_gamesprites_quackdown_data:
	.byte	$00
	.byte	$00
	.byte	$0F
	.byte	$80
	.byte	$80
_gamesprites_powerup_data:
	.byte	$00
	.byte	$00
	.byte	$10
	.byte	$03
	.byte	$08
	.byte	$00
	.byte	$11
	.byte	$03
	.byte	$00
	.byte	$08
	.byte	$20
	.byte	$03
	.byte	$08
	.byte	$08
	.byte	$21
	.byte	$03
	.byte	$80
_gamesprites_win_icon_honey:
	.byte	$00
	.byte	$00
	.byte	$60
	.byte	$00
	.byte	$80
_gamesprites_win_icon_time:
	.byte	$00
	.byte	$00
	.byte	$61
	.byte	$00
	.byte	$80
_gamesprites_win_blueduck:
	.byte	$00
	.byte	$00
	.byte	$0B
	.byte	$02
	.byte	$80
_gamesprites_win_redduck:
	.byte	$00
	.byte	$00
	.byte	$0B
	.byte	$00
	.byte	$80
_gamesprites_win_bluebee:
	.byte	$00
	.byte	$00
	.byte	$27
	.byte	$02
	.byte	$80
_gamesprites_win_redbee:
	.byte	$00
	.byte	$00
	.byte	$27
	.byte	$00
	.byte	$80
_gamesprites_win_unwon:
	.byte	$00
	.byte	$00
	.byte	$26
	.byte	$00
	.byte	$80
_combs:
	.byte	$A7
	.byte	$B6
	.byte	$EE
	.byte	$EF
	.byte	$A7
	.byte	$5D
	.byte	$00
	.byte	$00
	.byte	$00
	.byte	$00
	.byte	$00
	.byte	$00
	.byte	$00
	.byte	$00
	.byte	$00
	.byte	$00
	.byte	$00
	.byte	$00
	.byte	$00
	.byte	$00
	.byte	$00
	.byte	$00
	.byte	$00
	.byte	$00
	.byte	$00
	.byte	$00
	.byte	$5C
	.byte	$EE
	.byte	$EF
	.byte	$B6
	.byte	$AB
	.byte	$B6
	.byte	$AB
	.byte	$A7
	.byte	$FE
	.byte	$FF
	.byte	$B6
	.byte	$5D
	.byte	$00
	.byte	$00
	.byte	$00
	.byte	$00
	.byte	$00
	.byte	$00
	.byte	$00
	.byte	$00
	.byte	$00
	.byte	$00
	.byte	$00
	.byte	$00
	.byte	$00
	.byte	$00
	.byte	$00
	.byte	$00
	.byte	$00
	.byte	$00
	.byte	$00
	.byte	$00
	.byte	$5C
	.byte	$FE
	.byte	$FF
	.byte	$A7
	.byte	$B6
	.byte	$A7
	.byte	$A7
	.byte	$B6
	.byte	$A7
	.byte	$B6
	.byte	$A8
	.byte	$5E
	.byte	$5F
	.byte	$5F
	.byte	$5F
	.byte	$5F
	.byte	$5F
	.byte	$5F
	.byte	$5F
	.byte	$5F
	.byte	$5F
	.byte	$5F
	.byte	$5F
	.byte	$5F
	.byte	$5F
	.byte	$5F
	.byte	$5F
	.byte	$5F
	.byte	$5F
	.byte	$5F
	.byte	$5F
	.byte	$5F
	.byte	$5B
	.byte	$AA
	.byte	$B6
	.byte	$A7
	.byte	$B6
	.byte	$B6
	.byte	$B6
	.byte	$A7
	.byte	$F8
	.byte	$F9
	.byte	$E8
	.byte	$E9
	.byte	$F8
	.byte	$F9
	.byte	$F8
	.byte	$F9
	.byte	$BE
	.byte	$BF
	.byte	$EE
	.byte	$EF
	.byte	$F8
	.byte	$F9
	.byte	$F8
	.byte	$F9
	.byte	$EE
	.byte	$EF
	.byte	$EE
	.byte	$EF
	.byte	$E8
	.byte	$E9
	.byte	$F8
	.byte	$F9
	.byte	$F8
	.byte	$F9
	.byte	$F8
	.byte	$F9
	.byte	$AA
	.byte	$B6
	.byte	$A7
	.byte	$EB
	.byte	$B6
	.byte	$B8
	.byte	$C8
	.byte	$CA
	.byte	$C6
	.byte	$C6
	.byte	$C6
	.byte	$C8
	.byte	$DE
	.byte	$DF
	.byte	$FE
	.byte	$FF
	.byte	$C6
	.byte	$A7
	.byte	$A7
	.byte	$C6
	.byte	$FE
	.byte	$FF
	.byte	$FE
	.byte	$FF
	.byte	$C6
	.byte	$C6
	.byte	$C6
	.byte	$C6
	.byte	$C6
	.byte	$C6
	.byte	$B8
	.byte	$B8
	.byte	$EB
	.byte	$B6
	.byte	$B6
	.byte	$FB
	.byte	$B6
	.byte	$B8
	.byte	$CA
	.byte	$C8
	.byte	$EE
	.byte	$EF
	.byte	$C6
	.byte	$CA
	.byte	$C6
	.byte	$C6
	.byte	$C6
	.byte	$C8
	.byte	$C8
	.byte	$C8
	.byte	$C6
	.byte	$C8
	.byte	$C6
	.byte	$C6
	.byte	$C6
	.byte	$C9
	.byte	$C6
	.byte	$C9
	.byte	$EE
	.byte	$EF
	.byte	$C6
	.byte	$C9
	.byte	$B8
	.byte	$B8
	.byte	$FB
	.byte	$A7
	.byte	$CD
	.byte	$CD
	.byte	$CD
	.byte	$BF
	.byte	$C6
	.byte	$C6
	.byte	$FE
	.byte	$FF
	.byte	$F8
	.byte	$F9
	.byte	$E8
	.byte	$E9
	.byte	$A7
	.byte	$C6
	.byte	$C6
	.byte	$C6
	.byte	$C6
	.byte	$C6
	.byte	$C6
	.byte	$A7
	.byte	$E8
	.byte	$E9
	.byte	$F8
	.byte	$F9
	.byte	$FE
	.byte	$FF
	.byte	$C6
	.byte	$C9
	.byte	$BE
	.byte	$BF
	.byte	$EB
	.byte	$B6
	.byte	$CC
	.byte	$CB
	.byte	$DD
	.byte	$DF
	.byte	$C6
	.byte	$CA
	.byte	$C6
	.byte	$C8
	.byte	$C6
	.byte	$C6
	.byte	$C6
	.byte	$C8
	.byte	$C6
	.byte	$C6
	.byte	$A7
	.byte	$C6
	.byte	$C8
	.byte	$A7
	.byte	$C6
	.byte	$C6
	.byte	$C6
	.byte	$C6
	.byte	$C6
	.byte	$C6
	.byte	$C6
	.byte	$C6
	.byte	$C6
	.byte	$C6
	.byte	$DE
	.byte	$DF
	.byte	$FB
	.byte	$B6
	.byte	$CC
	.byte	$CF
	.byte	$C6
	.byte	$8C
	.byte	$E8
	.byte	$E9
	.byte	$F8
	.byte	$F9
	.byte	$8D
	.byte	$C6
	.byte	$F8
	.byte	$F9
	.byte	$F8
	.byte	$F9
	.byte	$EB
	.byte	$CA
	.byte	$C6
	.byte	$EB
	.byte	$F8
	.byte	$F9
	.byte	$F8
	.byte	$F9
	.byte	$C6
	.byte	$A7
	.byte	$F8
	.byte	$F9
	.byte	$E8
	.byte	$E9
	.byte	$A7
	.byte	$C6
	.byte	$EA
	.byte	$B6
	.byte	$CB
	.byte	$DF
	.byte	$C6
	.byte	$A7
	.byte	$C6
	.byte	$C6
	.byte	$C6
	.byte	$A7
	.byte	$EB
	.byte	$C6
	.byte	$C6
	.byte	$C6
	.byte	$C6
	.byte	$C6
	.byte	$FB
	.byte	$C6
	.byte	$C6
	.byte	$FB
	.byte	$CA
	.byte	$C6
	.byte	$C6
	.byte	$C6
	.byte	$C6
	.byte	$EB
	.byte	$8F
	.byte	$C9
	.byte	$C6
	.byte	$C6
	.byte	$EB
	.byte	$C6
	.byte	$FA
	.byte	$B8
	.byte	$DF
	.byte	$EB
	.byte	$C6
	.byte	$A7
	.byte	$C6
	.byte	$9C
	.byte	$CA
	.byte	$C6
	.byte	$FB
	.byte	$C6
	.byte	$F8
	.byte	$F9
	.byte	$F8
	.byte	$F9
	.byte	$A7
	.byte	$CA
	.byte	$C8
	.byte	$A7
	.byte	$E8
	.byte	$E9
	.byte	$F8
	.byte	$F9
	.byte	$C6
	.byte	$FB
	.byte	$C6
	.byte	$C6
	.byte	$A7
	.byte	$C6
	.byte	$FB
	.byte	$C7
	.byte	$EB
	.byte	$B9
	.byte	$B6
	.byte	$FB
	.byte	$C6
	.byte	$A7
	.byte	$C6
	.byte	$BE
	.byte	$BF
	.byte	$CA
	.byte	$C6
	.byte	$C6
	.byte	$CA
	.byte	$C6
	.byte	$C6
	.byte	$C6
	.byte	$C7
	.byte	$C8
	.byte	$C9
	.byte	$C6
	.byte	$C6
	.byte	$C6
	.byte	$C6
	.byte	$C6
	.byte	$C9
	.byte	$C6
	.byte	$C6
	.byte	$EE
	.byte	$EF
	.byte	$C6
	.byte	$A7
	.byte	$C6
	.byte	$FB
	.byte	$B6
	.byte	$A7
	.byte	$EB
	.byte	$C6
	.byte	$C6
	.byte	$C6
	.byte	$DE
	.byte	$DF
	.byte	$A7
	.byte	$F8
	.byte	$F9
	.byte	$F8
	.byte	$F9
	.byte	$F8
	.byte	$F9
	.byte	$8F
	.byte	$C6
	.byte	$C9
	.byte	$8E
	.byte	$F8
	.byte	$F9
	.byte	$A7
	.byte	$A7
	.byte	$F8
	.byte	$F9
	.byte	$A7
	.byte	$FE
	.byte	$FF
	.byte	$C6
	.byte	$C6
	.byte	$C6
	.byte	$ED
	.byte	$BF
	.byte	$B6
	.byte	$FB
	.byte	$C6
	.byte	$EB
	.byte	$C6
	.byte	$CA
	.byte	$C6
	.byte	$C6
	.byte	$C8
	.byte	$C6
	.byte	$C6
	.byte	$C6
	.byte	$C8
	.byte	$CA
	.byte	$C6
	.byte	$C7
	.byte	$C8
	.byte	$C6
	.byte	$C6
	.byte	$C8
	.byte	$CA
	.byte	$C6
	.byte	$C8
	.byte	$C6
	.byte	$CA
	.byte	$C6
	.byte	$C6
	.byte	$C6
	.byte	$EB
	.byte	$C6
	.byte	$FD
	.byte	$DF
	.byte	$B6
	.byte	$EB
	.byte	$C6
	.byte	$FB
	.byte	$F8
	.byte	$F9
	.byte	$F8
	.byte	$F9
	.byte	$A7
	.byte	$EE
	.byte	$EF
	.byte	$A7
	.byte	$F8
	.byte	$F9
	.byte	$A7
	.byte	$C8
	.byte	$C8
	.byte	$A7
	.byte	$F8
	.byte	$F9
	.byte	$A7
	.byte	$EE
	.byte	$EF
	.byte	$A7
	.byte	$F8
	.byte	$F9
	.byte	$F8
	.byte	$F9
	.byte	$FB
	.byte	$C6
	.byte	$EB
	.byte	$A7
	.byte	$B6
	.byte	$FB
	.byte	$C6
	.byte	$EE
	.byte	$EF
	.byte	$C6
	.byte	$C6
	.byte	$C6
	.byte	$A7
	.byte	$FE
	.byte	$FF
	.byte	$A7
	.byte	$C6
	.byte	$C6
	.byte	$C7
	.byte	$C8
	.byte	$C7
	.byte	$C6
	.byte	$C6
	.byte	$C6
	.byte	$A7
	.byte	$FE
	.byte	$FF
	.byte	$A7
	.byte	$C6
	.byte	$C6
	.byte	$C6
	.byte	$BE
	.byte	$BF
	.byte	$C7
	.byte	$FB
	.byte	$B6
	.byte	$BE
	.byte	$EC
	.byte	$C6
	.byte	$FE
	.byte	$FF
	.byte	$F8
	.byte	$F9
	.byte	$C6
	.byte	$C6
	.byte	$C6
	.byte	$C6
	.byte	$C6
	.byte	$C6
	.byte	$BE
	.byte	$BF
	.byte	$C6
	.byte	$C7
	.byte	$BE
	.byte	$BF
	.byte	$CA
	.byte	$C6
	.byte	$C6
	.byte	$C6
	.byte	$C6
	.byte	$C6
	.byte	$F8
	.byte	$F9
	.byte	$DE
	.byte	$DF
	.byte	$C8
	.byte	$EB
	.byte	$B6
	.byte	$DE
	.byte	$FC
	.byte	$C6
	.byte	$C6
	.byte	$C6
	.byte	$C6
	.byte	$C6
	.byte	$C6
	.byte	$EB
	.byte	$C6
	.byte	$A7
	.byte	$F8
	.byte	$F9
	.byte	$CE
	.byte	$CF
	.byte	$C6
	.byte	$C6
	.byte	$CE
	.byte	$CF
	.byte	$F8
	.byte	$F9
	.byte	$A7
	.byte	$C6
	.byte	$EB
	.byte	$C6
	.byte	$C6
	.byte	$CA
	.byte	$C6
	.byte	$C6
	.byte	$C6
	.byte	$FB
	.byte	$B6
	.byte	$B6
	.byte	$EB
	.byte	$C6
	.byte	$A7
	.byte	$F8
	.byte	$F9
	.byte	$A7
	.byte	$C6
	.byte	$FB
	.byte	$C6
	.byte	$C6
	.byte	$C6
	.byte	$8E
	.byte	$DE
	.byte	$DF
	.byte	$BE
	.byte	$BF
	.byte	$DE
	.byte	$DF
	.byte	$8F
	.byte	$C6
	.byte	$C6
	.byte	$C6
	.byte	$FB
	.byte	$C6
	.byte	$9C
	.byte	$9C
	.byte	$F8
	.byte	$F9
	.byte	$C7
	.byte	$EA
	.byte	$B6
	.byte	$B6
	.byte	$FB
	.byte	$C6
	.byte	$C6
	.byte	$C6
	.byte	$BE
	.byte	$BF
	.byte	$C6
	.byte	$EB
	.byte	$C6
	.byte	$A7
	.byte	$C6
	.byte	$C6
	.byte	$C6
	.byte	$C6
	.byte	$DE
	.byte	$DF
	.byte	$C6
	.byte	$C6
	.byte	$C6
	.byte	$C6
	.byte	$A7
	.byte	$C6
	.byte	$EB
	.byte	$C6
	.byte	$EE
	.byte	$EF
	.byte	$C6
	.byte	$C6
	.byte	$CA
	.byte	$FA
	.byte	$B6
	.byte	$B6
	.byte	$EA
	.byte	$C6
	.byte	$A7
	.byte	$A7
	.byte	$DE
	.byte	$DF
	.byte	$C6
	.byte	$FB
	.byte	$C6
	.byte	$8C
	.byte	$BE
	.byte	$BF
	.byte	$8D
	.byte	$C6
	.byte	$C9
	.byte	$C6
	.byte	$C6
	.byte	$8C
	.byte	$BE
	.byte	$BF
	.byte	$8D
	.byte	$C6
	.byte	$FB
	.byte	$C6
	.byte	$FE
	.byte	$FF
	.byte	$E8
	.byte	$E9
	.byte	$C6
	.byte	$EB
	.byte	$99
	.byte	$A7
	.byte	$FA
	.byte	$C6
	.byte	$C6
	.byte	$C6
	.byte	$C6
	.byte	$EB
	.byte	$C6
	.byte	$EA
	.byte	$C6
	.byte	$ED
	.byte	$BC
	.byte	$DC
	.byte	$EC
	.byte	$C7
	.byte	$C6
	.byte	$C6
	.byte	$C6
	.byte	$ED
	.byte	$BC
	.byte	$DC
	.byte	$EC
	.byte	$C9
	.byte	$EB
	.byte	$C6
	.byte	$A7
	.byte	$C6
	.byte	$C6
	.byte	$C6
	.byte	$C8
	.byte	$FB
	.byte	$B6
	.byte	$B6
	.byte	$EB
	.byte	$C6
	.byte	$F8
	.byte	$F9
	.byte	$A7
	.byte	$FB
	.byte	$C6
	.byte	$FA
	.byte	$C6
	.byte	$FD
	.byte	$BB
	.byte	$CB
	.byte	$FC
	.byte	$C6
	.byte	$BE
	.byte	$BF
	.byte	$C7
	.byte	$FD
	.byte	$BB
	.byte	$CB
	.byte	$FC
	.byte	$C6
	.byte	$FB
	.byte	$C6
	.byte	$A7
	.byte	$F8
	.byte	$F9
	.byte	$A7
	.byte	$C6
	.byte	$EB
	.byte	$B6
	.byte	$B6
	.byte	$FB
	.byte	$C6
	.byte	$C6
	.byte	$C6
	.byte	$C6
	.byte	$C6
	.byte	$C6
	.byte	$EB
	.byte	$C6
	.byte	$8E
	.byte	$DE
	.byte	$DF
	.byte	$8F
	.byte	$C6
	.byte	$DE
	.byte	$DF
	.byte	$C6
	.byte	$8E
	.byte	$DE
	.byte	$DF
	.byte	$8F
	.byte	$C6
	.byte	$EB
	.byte	$C6
	.byte	$C6
	.byte	$CA
	.byte	$C6
	.byte	$C6
	.byte	$CA
	.byte	$FB
	.byte	$B6
	.byte	$A7
	.byte	$EB
	.byte	$C6
	.byte	$A7
	.byte	$EE
	.byte	$EF
	.byte	$C6
	.byte	$9E
	.byte	$FB
	.byte	$C6
	.byte	$C7
	.byte	$C6
	.byte	$C6
	.byte	$C6
	.byte	$C6
	.byte	$C6
	.byte	$C6
	.byte	$C7
	.byte	$C6
	.byte	$CA
	.byte	$C6
	.byte	$C6
	.byte	$C6
	.byte	$FB
	.byte	$A7
	.byte	$C6
	.byte	$EE
	.byte	$EF
	.byte	$A7
	.byte	$C6
	.byte	$EB
	.byte	$B6
	.byte	$B6
	.byte	$FB
	.byte	$C6
	.byte	$C6
	.byte	$FE
	.byte	$FF
	.byte	$C6
	.byte	$C6
	.byte	$C6
	.byte	$C6
	.byte	$F8
	.byte	$F9
	.byte	$BE
	.byte	$BF
	.byte	$C7
	.byte	$EE
	.byte	$EF
	.byte	$C6
	.byte	$BE
	.byte	$BF
	.byte	$F8
	.byte	$F9
	.byte	$C6
	.byte	$C6
	.byte	$C6
	.byte	$C6
	.byte	$FE
	.byte	$FF
	.byte	$C6
	.byte	$C6
	.byte	$FB
	.byte	$AB
	.byte	$B6
	.byte	$EB
	.byte	$B8
	.byte	$B8
	.byte	$C6
	.byte	$A7
	.byte	$C6
	.byte	$BE
	.byte	$BF
	.byte	$C6
	.byte	$C6
	.byte	$C6
	.byte	$DE
	.byte	$DF
	.byte	$C6
	.byte	$FE
	.byte	$FF
	.byte	$C6
	.byte	$DE
	.byte	$DF
	.byte	$C6
	.byte	$C6
	.byte	$C6
	.byte	$BE
	.byte	$BF
	.byte	$C6
	.byte	$A7
	.byte	$C6
	.byte	$B8
	.byte	$B8
	.byte	$EB
	.byte	$A7
	.byte	$A7
	.byte	$FB
	.byte	$B8
	.byte	$B8
	.byte	$C6
	.byte	$C6
	.byte	$C6
	.byte	$CE
	.byte	$CF
	.byte	$EE
	.byte	$EF
	.byte	$C6
	.byte	$C6
	.byte	$C6
	.byte	$C6
	.byte	$C6
	.byte	$C6
	.byte	$C6
	.byte	$C6
	.byte	$C6
	.byte	$C6
	.byte	$BE
	.byte	$CD
	.byte	$BC
	.byte	$CF
	.byte	$C6
	.byte	$C6
	.byte	$C6
	.byte	$B8
	.byte	$B8
	.byte	$FB
	.byte	$B6
	.byte	$B6
	.byte	$A8
	.byte	$E8
	.byte	$E9
	.byte	$F8
	.byte	$F9
	.byte	$A7
	.byte	$CE
	.byte	$CF
	.byte	$FE
	.byte	$FF
	.byte	$F8
	.byte	$F9
	.byte	$F8
	.byte	$F9
	.byte	$E8
	.byte	$E9
	.byte	$F8
	.byte	$F9
	.byte	$F8
	.byte	$F9
	.byte	$CE
	.byte	$CC
	.byte	$CC
	.byte	$DB
	.byte	$A7
	.byte	$F8
	.byte	$F9
	.byte	$F8
	.byte	$F9
	.byte	$AA
	.byte	$B6
	.byte	$A7
	.byte	$B6
	.byte	$B6
	.byte	$B6
	.byte	$B6
	.byte	$A7
	.byte	$B6
	.byte	$DE
	.byte	$DF
	.byte	$A7
	.byte	$AF
	.byte	$B6
	.byte	$A7
	.byte	$B9
	.byte	$B6
	.byte	$B9
	.byte	$B6
	.byte	$A7
	.byte	$A7
	.byte	$B7
	.byte	$A8
	.byte	$DE
	.byte	$DD
	.byte	$DD
	.byte	$DF
	.byte	$B6
	.byte	$B7
	.byte	$B6
	.byte	$A7
	.byte	$A7
	.byte	$B6
	.byte	$B6
	.byte	$00
	.byte	$04
	.byte	$01
	.byte	$00
	.byte	$00
	.byte	$0C
	.byte	$03
	.byte	$00
	.byte	$00
	.byte	$00
	.byte	$00
	.byte	$00
	.byte	$00
	.byte	$00
	.byte	$00
	.byte	$00
	.byte	$00
	.byte	$00
	.byte	$00
	.byte	$00
	.byte	$00
	.byte	$00
	.byte	$00
	.byte	$00
	.byte	$00
	.byte	$00
	.byte	$00
	.byte	$00
	.byte	$00
	.byte	$00
	.byte	$00
	.byte	$00
	.byte	$00
	.byte	$00
	.byte	$00
	.byte	$00
	.byte	$00
	.byte	$00
	.byte	$00
	.byte	$00
	.byte	$00
	.byte	$00
	.byte	$00
	.byte	$00
	.byte	$00
	.byte	$00
	.byte	$00
	.byte	$00
	.byte	$00
	.byte	$00
	.byte	$00
	.byte	$00
	.byte	$00
	.byte	$00
	.byte	$00
	.byte	$00
	.byte	$00
	.byte	$00
	.byte	$00
	.byte	$00
	.byte	$00
	.byte	$00
	.byte	$00
	.byte	$00
_vines:
	.byte	$CC
	.byte	$CC
	.byte	$CB
	.byte	$DD
	.byte	$BB
	.byte	$5D
	.byte	$00
	.byte	$00
	.byte	$00
	.byte	$00
	.byte	$00
	.byte	$00
	.byte	$00
	.byte	$00
	.byte	$00
	.byte	$00
	.byte	$00
	.byte	$00
	.byte	$00
	.byte	$00
	.byte	$00
	.byte	$00
	.byte	$00
	.byte	$00
	.byte	$00
	.byte	$00
	.byte	$5C
	.byte	$CC
	.byte	$A6
	.byte	$CC
	.byte	$CC
	.byte	$CC
	.byte	$CC
	.byte	$CC
	.byte	$CF
	.byte	$AB
	.byte	$CE
	.byte	$5D
	.byte	$00
	.byte	$00
	.byte	$00
	.byte	$00
	.byte	$00
	.byte	$00
	.byte	$00
	.byte	$00
	.byte	$00
	.byte	$00
	.byte	$00
	.byte	$00
	.byte	$00
	.byte	$00
	.byte	$00
	.byte	$00
	.byte	$00
	.byte	$00
	.byte	$00
	.byte	$00
	.byte	$5C
	.byte	$CC
	.byte	$CC
	.byte	$CC
	.byte	$CC
	.byte	$CC
	.byte	$CC
	.byte	$A6
	.byte	$DC
	.byte	$CD
	.byte	$BC
	.byte	$5E
	.byte	$5F
	.byte	$5F
	.byte	$5F
	.byte	$5F
	.byte	$5F
	.byte	$5F
	.byte	$5F
	.byte	$5F
	.byte	$5F
	.byte	$5F
	.byte	$5F
	.byte	$5F
	.byte	$5F
	.byte	$5F
	.byte	$5F
	.byte	$5F
	.byte	$5F
	.byte	$5F
	.byte	$5F
	.byte	$5F
	.byte	$5B
	.byte	$CC
	.byte	$CC
	.byte	$A6
	.byte	$CC
	.byte	$CC
	.byte	$CC
	.byte	$CB
	.byte	$DD
	.byte	$DD
	.byte	$DD
	.byte	$DD
	.byte	$DD
	.byte	$DD
	.byte	$DD
	.byte	$DD
	.byte	$DD
	.byte	$DD
	.byte	$DD
	.byte	$DD
	.byte	$DD
	.byte	$DD
	.byte	$DD
	.byte	$DD
	.byte	$DD
	.byte	$DD
	.byte	$DD
	.byte	$DD
	.byte	$DD
	.byte	$DD
	.byte	$DD
	.byte	$DD
	.byte	$DD
	.byte	$DD
	.byte	$DD
	.byte	$DD
	.byte	$BB
	.byte	$CC
	.byte	$CC
	.byte	$CF
	.byte	$00
	.byte	$00
	.byte	$C3
	.byte	$A5
	.byte	$D3
	.byte	$C4
	.byte	$C0
	.byte	$D4
	.byte	$A5
	.byte	$A5
	.byte	$A5
	.byte	$A5
	.byte	$A5
	.byte	$A5
	.byte	$A5
	.byte	$A5
	.byte	$A5
	.byte	$A5
	.byte	$A5
	.byte	$A5
	.byte	$D3
	.byte	$C4
	.byte	$C0
	.byte	$D4
	.byte	$A5
	.byte	$E0
	.byte	$00
	.byte	$00
	.byte	$CE
	.byte	$CC
	.byte	$CC
	.byte	$CF
	.byte	$00
	.byte	$00
	.byte	$E4
	.byte	$A5
	.byte	$A5
	.byte	$D3
	.byte	$D4
	.byte	$A5
	.byte	$A5
	.byte	$C0
	.byte	$A0
	.byte	$A1
	.byte	$C1
	.byte	$C4
	.byte	$A5
	.byte	$C0
	.byte	$E1
	.byte	$A0
	.byte	$A1
	.byte	$C4
	.byte	$A5
	.byte	$D3
	.byte	$D4
	.byte	$A5
	.byte	$A5
	.byte	$E4
	.byte	$00
	.byte	$00
	.byte	$CE
	.byte	$CC
	.byte	$CC
	.byte	$CF
	.byte	$A5
	.byte	$A5
	.byte	$A5
	.byte	$A5
	.byte	$A5
	.byte	$A5
	.byte	$A5
	.byte	$A5
	.byte	$C0
	.byte	$D4
	.byte	$B0
	.byte	$B1
	.byte	$00
	.byte	$E0
	.byte	$A5
	.byte	$D0
	.byte	$00
	.byte	$B0
	.byte	$B1
	.byte	$D3
	.byte	$C4
	.byte	$A5
	.byte	$A5
	.byte	$A5
	.byte	$A5
	.byte	$A5
	.byte	$A5
	.byte	$A5
	.byte	$CE
	.byte	$CC
	.byte	$A6
	.byte	$CF
	.byte	$A5
	.byte	$A5
	.byte	$A5
	.byte	$A5
	.byte	$C0
	.byte	$C1
	.byte	$E2
	.byte	$C1
	.byte	$D4
	.byte	$00
	.byte	$00
	.byte	$00
	.byte	$00
	.byte	$D0
	.byte	$A5
	.byte	$F0
	.byte	$00
	.byte	$00
	.byte	$00
	.byte	$00
	.byte	$D3
	.byte	$E2
	.byte	$C1
	.byte	$C4
	.byte	$A5
	.byte	$A5
	.byte	$A5
	.byte	$A5
	.byte	$CE
	.byte	$CB
	.byte	$CC
	.byte	$CF
	.byte	$A5
	.byte	$A5
	.byte	$A5
	.byte	$A5
	.byte	$D3
	.byte	$C1
	.byte	$C1
	.byte	$C2
	.byte	$C1
	.byte	$E1
	.byte	$E2
	.byte	$C1
	.byte	$C1
	.byte	$D4
	.byte	$A5
	.byte	$D3
	.byte	$C2
	.byte	$C1
	.byte	$E1
	.byte	$C1
	.byte	$C1
	.byte	$C1
	.byte	$C1
	.byte	$D4
	.byte	$A5
	.byte	$A5
	.byte	$A5
	.byte	$A5
	.byte	$CE
	.byte	$CF
	.byte	$CC
	.byte	$CF
	.byte	$A5
	.byte	$E3
	.byte	$A5
	.byte	$A5
	.byte	$A5
	.byte	$A5
	.byte	$A5
	.byte	$A5
	.byte	$A5
	.byte	$A5
	.byte	$A5
	.byte	$A5
	.byte	$A5
	.byte	$A5
	.byte	$A5
	.byte	$A5
	.byte	$A5
	.byte	$A5
	.byte	$A5
	.byte	$A5
	.byte	$A5
	.byte	$A5
	.byte	$A5
	.byte	$A5
	.byte	$A5
	.byte	$A5
	.byte	$E3
	.byte	$A5
	.byte	$CE
	.byte	$CF
	.byte	$CC
	.byte	$CF
	.byte	$A5
	.byte	$D3
	.byte	$C1
	.byte	$E1
	.byte	$C1
	.byte	$C1
	.byte	$C4
	.byte	$A5
	.byte	$C0
	.byte	$E2
	.byte	$C5
	.byte	$E1
	.byte	$C1
	.byte	$C1
	.byte	$C1
	.byte	$C1
	.byte	$C1
	.byte	$C5
	.byte	$C1
	.byte	$C4
	.byte	$A5
	.byte	$C0
	.byte	$F2
	.byte	$C1
	.byte	$C1
	.byte	$E1
	.byte	$D4
	.byte	$A5
	.byte	$CE
	.byte	$CF
	.byte	$CC
	.byte	$CF
	.byte	$A5
	.byte	$A5
	.byte	$A5
	.byte	$A5
	.byte	$A5
	.byte	$A5
	.byte	$F0
	.byte	$A5
	.byte	$F0
	.byte	$C0
	.byte	$D4
	.byte	$A5
	.byte	$A5
	.byte	$A5
	.byte	$A5
	.byte	$A5
	.byte	$A5
	.byte	$D3
	.byte	$C4
	.byte	$D0
	.byte	$A5
	.byte	$F0
	.byte	$A5
	.byte	$A5
	.byte	$A5
	.byte	$A5
	.byte	$A5
	.byte	$A5
	.byte	$CE
	.byte	$DC
	.byte	$CC
	.byte	$CF
	.byte	$A5
	.byte	$C0
	.byte	$C1
	.byte	$E2
	.byte	$C1
	.byte	$C1
	.byte	$D4
	.byte	$A5
	.byte	$D3
	.byte	$D4
	.byte	$A5
	.byte	$A5
	.byte	$A7
	.byte	$A5
	.byte	$A5
	.byte	$A7
	.byte	$A5
	.byte	$A5
	.byte	$D3
	.byte	$D4
	.byte	$A5
	.byte	$D3
	.byte	$E2
	.byte	$C1
	.byte	$C1
	.byte	$C1
	.byte	$C4
	.byte	$A5
	.byte	$CE
	.byte	$CC
	.byte	$CC
	.byte	$CF
	.byte	$A5
	.byte	$F0
	.byte	$A5
	.byte	$A5
	.byte	$A5
	.byte	$A5
	.byte	$A5
	.byte	$A5
	.byte	$A5
	.byte	$A5
	.byte	$A5
	.byte	$A5
	.byte	$A7
	.byte	$A5
	.byte	$A5
	.byte	$A7
	.byte	$A5
	.byte	$A5
	.byte	$A5
	.byte	$A5
	.byte	$A5
	.byte	$A5
	.byte	$A5
	.byte	$A5
	.byte	$A5
	.byte	$A5
	.byte	$C3
	.byte	$A5
	.byte	$CE
	.byte	$CC
	.byte	$CC
	.byte	$CF
	.byte	$A5
	.byte	$F0
	.byte	$A5
	.byte	$C0
	.byte	$C1
	.byte	$C4
	.byte	$A5
	.byte	$E3
	.byte	$A5
	.byte	$A5
	.byte	$A5
	.byte	$A5
	.byte	$A7
	.byte	$A5
	.byte	$A5
	.byte	$A7
	.byte	$A5
	.byte	$A5
	.byte	$A5
	.byte	$A5
	.byte	$E3
	.byte	$A5
	.byte	$C0
	.byte	$E2
	.byte	$C4
	.byte	$A5
	.byte	$F0
	.byte	$A5
	.byte	$CE
	.byte	$CC
	.byte	$CC
	.byte	$CF
	.byte	$A5
	.byte	$F0
	.byte	$A5
	.byte	$F0
	.byte	$A5
	.byte	$F0
	.byte	$A5
	.byte	$F0
	.byte	$A5
	.byte	$A5
	.byte	$A5
	.byte	$A7
	.byte	$A7
	.byte	$B6
	.byte	$B6
	.byte	$A7
	.byte	$A7
	.byte	$A5
	.byte	$A5
	.byte	$A5
	.byte	$E0
	.byte	$A5
	.byte	$F0
	.byte	$A5
	.byte	$F0
	.byte	$A5
	.byte	$F0
	.byte	$A5
	.byte	$CE
	.byte	$CC
	.byte	$CC
	.byte	$CF
	.byte	$A5
	.byte	$F0
	.byte	$A5
	.byte	$E4
	.byte	$A5
	.byte	$F0
	.byte	$A5
	.byte	$E4
	.byte	$A5
	.byte	$A5
	.byte	$EE
	.byte	$EF
	.byte	$B6
	.byte	$B6
	.byte	$B6
	.byte	$B6
	.byte	$EE
	.byte	$EF
	.byte	$A5
	.byte	$A5
	.byte	$E4
	.byte	$A5
	.byte	$F0
	.byte	$A5
	.byte	$E4
	.byte	$A5
	.byte	$F0
	.byte	$A5
	.byte	$CE
	.byte	$A6
	.byte	$CC
	.byte	$CF
	.byte	$A5
	.byte	$F0
	.byte	$A5
	.byte	$A5
	.byte	$A5
	.byte	$F0
	.byte	$A5
	.byte	$A5
	.byte	$A5
	.byte	$A5
	.byte	$FE
	.byte	$FF
	.byte	$B6
	.byte	$B6
	.byte	$B6
	.byte	$B6
	.byte	$FE
	.byte	$FF
	.byte	$A5
	.byte	$A5
	.byte	$A5
	.byte	$A5
	.byte	$F0
	.byte	$A5
	.byte	$A5
	.byte	$A5
	.byte	$F0
	.byte	$A5
	.byte	$CE
	.byte	$CC
	.byte	$CC
	.byte	$CF
	.byte	$A5
	.byte	$F0
	.byte	$A5
	.byte	$A5
	.byte	$A5
	.byte	$F0
	.byte	$A5
	.byte	$E3
	.byte	$A5
	.byte	$A5
	.byte	$A5
	.byte	$A7
	.byte	$A7
	.byte	$B6
	.byte	$B6
	.byte	$A7
	.byte	$A7
	.byte	$A5
	.byte	$A5
	.byte	$A5
	.byte	$E3
	.byte	$A5
	.byte	$F0
	.byte	$A5
	.byte	$A5
	.byte	$A5
	.byte	$E0
	.byte	$A5
	.byte	$CE
	.byte	$CC
	.byte	$A6
	.byte	$CF
	.byte	$A5
	.byte	$E0
	.byte	$A5
	.byte	$E3
	.byte	$A5
	.byte	$F0
	.byte	$A5
	.byte	$F0
	.byte	$A5
	.byte	$A5
	.byte	$A5
	.byte	$A5
	.byte	$A7
	.byte	$A5
	.byte	$A5
	.byte	$A7
	.byte	$A5
	.byte	$A5
	.byte	$A5
	.byte	$A5
	.byte	$F0
	.byte	$A5
	.byte	$F0
	.byte	$A5
	.byte	$E3
	.byte	$A5
	.byte	$F0
	.byte	$A5
	.byte	$CE
	.byte	$CC
	.byte	$CC
	.byte	$CF
	.byte	$A5
	.byte	$F0
	.byte	$A5
	.byte	$F0
	.byte	$A5
	.byte	$F0
	.byte	$A5
	.byte	$F0
	.byte	$A5
	.byte	$A5
	.byte	$A5
	.byte	$A5
	.byte	$A7
	.byte	$A5
	.byte	$A5
	.byte	$A7
	.byte	$A5
	.byte	$A5
	.byte	$A5
	.byte	$A5
	.byte	$F0
	.byte	$A5
	.byte	$D0
	.byte	$A5
	.byte	$F0
	.byte	$A5
	.byte	$F0
	.byte	$A5
	.byte	$CE
	.byte	$CC
	.byte	$CC
	.byte	$CF
	.byte	$A5
	.byte	$E4
	.byte	$A5
	.byte	$F0
	.byte	$A5
	.byte	$F0
	.byte	$A5
	.byte	$E4
	.byte	$A5
	.byte	$C0
	.byte	$C4
	.byte	$A5
	.byte	$A5
	.byte	$A5
	.byte	$A5
	.byte	$A5
	.byte	$A5
	.byte	$C0
	.byte	$C4
	.byte	$A5
	.byte	$E4
	.byte	$A5
	.byte	$F0
	.byte	$A5
	.byte	$F0
	.byte	$A5
	.byte	$E4
	.byte	$A5
	.byte	$CE
	.byte	$CC
	.byte	$CC
	.byte	$CF
	.byte	$A5
	.byte	$A5
	.byte	$A5
	.byte	$D3
	.byte	$C1
	.byte	$D4
	.byte	$A5
	.byte	$A5
	.byte	$A5
	.byte	$F0
	.byte	$D3
	.byte	$C1
	.byte	$C4
	.byte	$A5
	.byte	$A5
	.byte	$C0
	.byte	$C1
	.byte	$D4
	.byte	$F0
	.byte	$A5
	.byte	$A5
	.byte	$A5
	.byte	$D3
	.byte	$C1
	.byte	$D4
	.byte	$A5
	.byte	$A5
	.byte	$A5
	.byte	$CE
	.byte	$CC
	.byte	$CC
	.byte	$CF
	.byte	$A5
	.byte	$A5
	.byte	$A5
	.byte	$A5
	.byte	$A5
	.byte	$A5
	.byte	$A5
	.byte	$A5
	.byte	$A5
	.byte	$F0
	.byte	$00
	.byte	$00
	.byte	$D3
	.byte	$C1
	.byte	$C1
	.byte	$D4
	.byte	$00
	.byte	$00
	.byte	$F0
	.byte	$A5
	.byte	$A5
	.byte	$A5
	.byte	$A5
	.byte	$A5
	.byte	$A5
	.byte	$A5
	.byte	$A5
	.byte	$A5
	.byte	$CE
	.byte	$CC
	.byte	$CC
	.byte	$CF
	.byte	$F2
	.byte	$E1
	.byte	$C1
	.byte	$D1
	.byte	$A5
	.byte	$A5
	.byte	$D2
	.byte	$C1
	.byte	$C1
	.byte	$F1
	.byte	$E1
	.byte	$C1
	.byte	$C2
	.byte	$C1
	.byte	$C1
	.byte	$C1
	.byte	$C1
	.byte	$C1
	.byte	$F1
	.byte	$C1
	.byte	$C1
	.byte	$C1
	.byte	$D1
	.byte	$A5
	.byte	$A5
	.byte	$D2
	.byte	$E2
	.byte	$E1
	.byte	$CE
	.byte	$A6
	.byte	$CC
	.byte	$CF
	.byte	$A5
	.byte	$A5
	.byte	$A5
	.byte	$A5
	.byte	$A5
	.byte	$A5
	.byte	$A5
	.byte	$A5
	.byte	$A5
	.byte	$E4
	.byte	$A5
	.byte	$A5
	.byte	$A5
	.byte	$A5
	.byte	$A5
	.byte	$A5
	.byte	$A5
	.byte	$A5
	.byte	$E4
	.byte	$A5
	.byte	$A5
	.byte	$A5
	.byte	$A5
	.byte	$A5
	.byte	$A5
	.byte	$A5
	.byte	$A5
	.byte	$A5
	.byte	$CE
	.byte	$CC
	.byte	$CC
	.byte	$CF
	.byte	$00
	.byte	$00
	.byte	$C0
	.byte	$A0
	.byte	$A1
	.byte	$F2
	.byte	$C4
	.byte	$A5
	.byte	$A5
	.byte	$A5
	.byte	$A5
	.byte	$C0
	.byte	$E1
	.byte	$C1
	.byte	$C1
	.byte	$E2
	.byte	$C4
	.byte	$A5
	.byte	$A5
	.byte	$A5
	.byte	$A5
	.byte	$C0
	.byte	$F2
	.byte	$A0
	.byte	$A1
	.byte	$C4
	.byte	$00
	.byte	$00
	.byte	$CE
	.byte	$CC
	.byte	$CC
	.byte	$CF
	.byte	$00
	.byte	$00
	.byte	$F0
	.byte	$B0
	.byte	$B1
	.byte	$00
	.byte	$F0
	.byte	$A5
	.byte	$A5
	.byte	$A5
	.byte	$A5
	.byte	$F0
	.byte	$00
	.byte	$00
	.byte	$00
	.byte	$00
	.byte	$F0
	.byte	$A5
	.byte	$A5
	.byte	$A5
	.byte	$A5
	.byte	$F0
	.byte	$00
	.byte	$B0
	.byte	$B1
	.byte	$E0
	.byte	$00
	.byte	$00
	.byte	$CE
	.byte	$CC
	.byte	$CC
	.byte	$DC
	.byte	$CD
	.byte	$CD
	.byte	$CD
	.byte	$CD
	.byte	$CD
	.byte	$CD
	.byte	$CD
	.byte	$CD
	.byte	$CD
	.byte	$CD
	.byte	$CD
	.byte	$CD
	.byte	$CD
	.byte	$CD
	.byte	$CD
	.byte	$CD
	.byte	$CD
	.byte	$CD
	.byte	$CD
	.byte	$CD
	.byte	$CD
	.byte	$CD
	.byte	$CD
	.byte	$CD
	.byte	$CD
	.byte	$CD
	.byte	$CD
	.byte	$CD
	.byte	$BC
	.byte	$CC
	.byte	$CC
	.byte	$CC
	.byte	$CC
	.byte	$A6
	.byte	$CC
	.byte	$CC
	.byte	$CC
	.byte	$CC
	.byte	$CC
	.byte	$CC
	.byte	$CC
	.byte	$A6
	.byte	$CC
	.byte	$CC
	.byte	$CC
	.byte	$CC
	.byte	$CC
	.byte	$A6
	.byte	$A6
	.byte	$CC
	.byte	$CC
	.byte	$CC
	.byte	$A6
	.byte	$CC
	.byte	$CC
	.byte	$CC
	.byte	$CC
	.byte	$A6
	.byte	$CC
	.byte	$CC
	.byte	$CC
	.byte	$CC
	.byte	$00
	.byte	$04
	.byte	$01
	.byte	$00
	.byte	$00
	.byte	$0C
	.byte	$03
	.byte	$00
	.byte	$88
	.byte	$AA
	.byte	$AA
	.byte	$AA
	.byte	$AA
	.byte	$AA
	.byte	$AA
	.byte	$22
	.byte	$88
	.byte	$AA
	.byte	$AA
	.byte	$AA
	.byte	$AA
	.byte	$AA
	.byte	$AA
	.byte	$22
	.byte	$88
	.byte	$AA
	.byte	$AA
	.byte	$02
	.byte	$08
	.byte	$AA
	.byte	$AA
	.byte	$22
	.byte	$88
	.byte	$AA
	.byte	$AA
	.byte	$00
	.byte	$00
	.byte	$AA
	.byte	$AA
	.byte	$22
	.byte	$88
	.byte	$AA
	.byte	$AA
	.byte	$A2
	.byte	$A8
	.byte	$AA
	.byte	$AA
	.byte	$22
	.byte	$88
	.byte	$AA
	.byte	$AA
	.byte	$AA
	.byte	$AA
	.byte	$AA
	.byte	$AA
	.byte	$22
	.byte	$00
	.byte	$00
	.byte	$00
	.byte	$00
	.byte	$00
	.byte	$00
	.byte	$00
	.byte	$00
_outdoors:
	.byte	$82
	.byte	$83
	.byte	$82
	.byte	$82
	.byte	$65
	.byte	$5D
	.byte	$00
	.byte	$00
	.byte	$00
	.byte	$00
	.byte	$00
	.byte	$00
	.byte	$00
	.byte	$00
	.byte	$00
	.byte	$00
	.byte	$00
	.byte	$00
	.byte	$00
	.byte	$00
	.byte	$00
	.byte	$00
	.byte	$00
	.byte	$00
	.byte	$00
	.byte	$00
	.byte	$5C
	.byte	$84
	.byte	$90
	.byte	$83
	.byte	$91
	.byte	$92
	.byte	$92
	.byte	$63
	.byte	$63
	.byte	$82
	.byte	$75
	.byte	$5D
	.byte	$00
	.byte	$00
	.byte	$00
	.byte	$00
	.byte	$00
	.byte	$00
	.byte	$00
	.byte	$00
	.byte	$00
	.byte	$00
	.byte	$00
	.byte	$00
	.byte	$00
	.byte	$00
	.byte	$00
	.byte	$00
	.byte	$00
	.byte	$00
	.byte	$00
	.byte	$00
	.byte	$5C
	.byte	$94
	.byte	$83
	.byte	$62
	.byte	$63
	.byte	$91
	.byte	$92
	.byte	$83
	.byte	$82
	.byte	$82
	.byte	$85
	.byte	$5E
	.byte	$5F
	.byte	$5F
	.byte	$5F
	.byte	$5F
	.byte	$5F
	.byte	$5F
	.byte	$5F
	.byte	$5F
	.byte	$5F
	.byte	$5F
	.byte	$5F
	.byte	$5F
	.byte	$5F
	.byte	$5F
	.byte	$5F
	.byte	$5F
	.byte	$5F
	.byte	$5F
	.byte	$5F
	.byte	$5F
	.byte	$5B
	.byte	$74
	.byte	$90
	.byte	$83
	.byte	$82
	.byte	$90
	.byte	$92
	.byte	$92
	.byte	$70
	.byte	$71
	.byte	$71
	.byte	$61
	.byte	$60
	.byte	$61
	.byte	$60
	.byte	$61
	.byte	$60
	.byte	$61
	.byte	$60
	.byte	$61
	.byte	$60
	.byte	$61
	.byte	$60
	.byte	$61
	.byte	$60
	.byte	$61
	.byte	$60
	.byte	$61
	.byte	$60
	.byte	$61
	.byte	$60
	.byte	$61
	.byte	$60
	.byte	$71
	.byte	$70
	.byte	$71
	.byte	$90
	.byte	$63
	.byte	$82
	.byte	$65
	.byte	$A5
	.byte	$A5
	.byte	$A5
	.byte	$A5
	.byte	$A5
	.byte	$A5
	.byte	$A5
	.byte	$A5
	.byte	$A5
	.byte	$A5
	.byte	$A5
	.byte	$A5
	.byte	$A5
	.byte	$A5
	.byte	$A5
	.byte	$A5
	.byte	$A5
	.byte	$A5
	.byte	$A5
	.byte	$A5
	.byte	$A5
	.byte	$A5
	.byte	$A5
	.byte	$A5
	.byte	$A5
	.byte	$A5
	.byte	$A5
	.byte	$A5
	.byte	$64
	.byte	$92
	.byte	$92
	.byte	$75
	.byte	$A5
	.byte	$78
	.byte	$67
	.byte	$67
	.byte	$77
	.byte	$A5
	.byte	$61
	.byte	$60
	.byte	$61
	.byte	$60
	.byte	$72
	.byte	$A5
	.byte	$61
	.byte	$61
	.byte	$60
	.byte	$60
	.byte	$A5
	.byte	$73
	.byte	$60
	.byte	$61
	.byte	$61
	.byte	$60
	.byte	$A5
	.byte	$78
	.byte	$68
	.byte	$68
	.byte	$77
	.byte	$A5
	.byte	$74
	.byte	$91
	.byte	$82
	.byte	$85
	.byte	$A5
	.byte	$66
	.byte	$72
	.byte	$73
	.byte	$66
	.byte	$A5
	.byte	$A5
	.byte	$A5
	.byte	$A5
	.byte	$A5
	.byte	$A3
	.byte	$A5
	.byte	$A5
	.byte	$A5
	.byte	$A5
	.byte	$A5
	.byte	$A5
	.byte	$B3
	.byte	$A5
	.byte	$A5
	.byte	$A5
	.byte	$A5
	.byte	$A5
	.byte	$76
	.byte	$73
	.byte	$72
	.byte	$76
	.byte	$A5
	.byte	$84
	.byte	$91
	.byte	$92
	.byte	$95
	.byte	$A5
	.byte	$76
	.byte	$62
	.byte	$62
	.byte	$66
	.byte	$A5
	.byte	$61
	.byte	$60
	.byte	$60
	.byte	$60
	.byte	$70
	.byte	$A5
	.byte	$B3
	.byte	$A5
	.byte	$A5
	.byte	$B3
	.byte	$A5
	.byte	$71
	.byte	$60
	.byte	$60
	.byte	$61
	.byte	$60
	.byte	$A5
	.byte	$66
	.byte	$62
	.byte	$63
	.byte	$66
	.byte	$A5
	.byte	$94
	.byte	$91
	.byte	$91
	.byte	$85
	.byte	$A5
	.byte	$76
	.byte	$62
	.byte	$63
	.byte	$66
	.byte	$A5
	.byte	$A5
	.byte	$A5
	.byte	$A5
	.byte	$A5
	.byte	$A5
	.byte	$A5
	.byte	$A3
	.byte	$A5
	.byte	$A5
	.byte	$A3
	.byte	$A5
	.byte	$A5
	.byte	$A5
	.byte	$A5
	.byte	$A5
	.byte	$A5
	.byte	$A5
	.byte	$76
	.byte	$63
	.byte	$63
	.byte	$66
	.byte	$A5
	.byte	$64
	.byte	$92
	.byte	$90
	.byte	$95
	.byte	$A5
	.byte	$76
	.byte	$62
	.byte	$92
	.byte	$76
	.byte	$A5
	.byte	$64
	.byte	$60
	.byte	$60
	.byte	$60
	.byte	$A5
	.byte	$A5
	.byte	$B3
	.byte	$A5
	.byte	$A5
	.byte	$B3
	.byte	$A5
	.byte	$A5
	.byte	$61
	.byte	$60
	.byte	$61
	.byte	$72
	.byte	$A5
	.byte	$66
	.byte	$62
	.byte	$92
	.byte	$76
	.byte	$A5
	.byte	$74
	.byte	$62
	.byte	$63
	.byte	$85
	.byte	$A5
	.byte	$76
	.byte	$63
	.byte	$63
	.byte	$66
	.byte	$A5
	.byte	$A3
	.byte	$A5
	.byte	$A5
	.byte	$A5
	.byte	$A5
	.byte	$A5
	.byte	$A3
	.byte	$A5
	.byte	$A5
	.byte	$A3
	.byte	$A5
	.byte	$A5
	.byte	$A5
	.byte	$A5
	.byte	$A5
	.byte	$A3
	.byte	$A5
	.byte	$66
	.byte	$63
	.byte	$62
	.byte	$66
	.byte	$A5
	.byte	$84
	.byte	$63
	.byte	$93
	.byte	$95
	.byte	$A5
	.byte	$66
	.byte	$71
	.byte	$70
	.byte	$66
	.byte	$A5
	.byte	$B3
	.byte	$A5
	.byte	$A5
	.byte	$A5
	.byte	$A5
	.byte	$A5
	.byte	$B3
	.byte	$A5
	.byte	$A5
	.byte	$B3
	.byte	$A5
	.byte	$A5
	.byte	$A5
	.byte	$A5
	.byte	$A5
	.byte	$B3
	.byte	$A5
	.byte	$76
	.byte	$70
	.byte	$71
	.byte	$76
	.byte	$A5
	.byte	$94
	.byte	$91
	.byte	$93
	.byte	$65
	.byte	$A5
	.byte	$78
	.byte	$67
	.byte	$67
	.byte	$77
	.byte	$A5
	.byte	$A5
	.byte	$A5
	.byte	$60
	.byte	$61
	.byte	$60
	.byte	$60
	.byte	$70
	.byte	$A5
	.byte	$A5
	.byte	$70
	.byte	$61
	.byte	$60
	.byte	$60
	.byte	$61
	.byte	$A5
	.byte	$A5
	.byte	$A5
	.byte	$78
	.byte	$67
	.byte	$67
	.byte	$77
	.byte	$A5
	.byte	$64
	.byte	$91
	.byte	$92
	.byte	$75
	.byte	$A5
	.byte	$A5
	.byte	$A5
	.byte	$A5
	.byte	$A5
	.byte	$A5
	.byte	$A5
	.byte	$A5
	.byte	$A5
	.byte	$A5
	.byte	$A5
	.byte	$A5
	.byte	$A5
	.byte	$A5
	.byte	$A5
	.byte	$A5
	.byte	$A5
	.byte	$A5
	.byte	$A5
	.byte	$A5
	.byte	$A5
	.byte	$A5
	.byte	$A5
	.byte	$A5
	.byte	$A5
	.byte	$A5
	.byte	$A5
	.byte	$A5
	.byte	$71
	.byte	$70
	.byte	$86
	.byte	$88
	.byte	$A5
	.byte	$A5
	.byte	$00
	.byte	$00
	.byte	$A5
	.byte	$A5
	.byte	$84
	.byte	$81
	.byte	$80
	.byte	$81
	.byte	$80
	.byte	$81
	.byte	$60
	.byte	$A5
	.byte	$A5
	.byte	$61
	.byte	$80
	.byte	$81
	.byte	$72
	.byte	$73
	.byte	$72
	.byte	$73
	.byte	$A5
	.byte	$A5
	.byte	$00
	.byte	$00
	.byte	$A5
	.byte	$A5
	.byte	$87
	.byte	$86
	.byte	$96
	.byte	$79
	.byte	$A5
	.byte	$A5
	.byte	$00
	.byte	$00
	.byte	$A5
	.byte	$A5
	.byte	$94
	.byte	$91
	.byte	$91
	.byte	$63
	.byte	$91
	.byte	$95
	.byte	$A5
	.byte	$A5
	.byte	$A5
	.byte	$A5
	.byte	$91
	.byte	$91
	.byte	$91
	.byte	$62
	.byte	$91
	.byte	$95
	.byte	$A5
	.byte	$A5
	.byte	$00
	.byte	$00
	.byte	$A5
	.byte	$A5
	.byte	$89
	.byte	$96
	.byte	$96
	.byte	$96
	.byte	$86
	.byte	$86
	.byte	$69
	.byte	$6B
	.byte	$86
	.byte	$86
	.byte	$86
	.byte	$86
	.byte	$86
	.byte	$86
	.byte	$86
	.byte	$86
	.byte	$69
	.byte	$6A
	.byte	$6A
	.byte	$6B
	.byte	$86
	.byte	$86
	.byte	$86
	.byte	$86
	.byte	$86
	.byte	$86
	.byte	$86
	.byte	$86
	.byte	$69
	.byte	$6B
	.byte	$86
	.byte	$86
	.byte	$96
	.byte	$96
	.byte	$96
	.byte	$96
	.byte	$8A
	.byte	$8A
	.byte	$69
	.byte	$6B
	.byte	$8A
	.byte	$8A
	.byte	$8A
	.byte	$8A
	.byte	$8A
	.byte	$8A
	.byte	$8A
	.byte	$8A
	.byte	$69
	.byte	$6A
	.byte	$6A
	.byte	$6B
	.byte	$8A
	.byte	$8A
	.byte	$8A
	.byte	$8A
	.byte	$8A
	.byte	$8A
	.byte	$8A
	.byte	$8A
	.byte	$69
	.byte	$6B
	.byte	$8A
	.byte	$8A
	.byte	$96
	.byte	$96
	.byte	$96
	.byte	$79
	.byte	$A5
	.byte	$A5
	.byte	$00
	.byte	$00
	.byte	$A5
	.byte	$A5
	.byte	$64
	.byte	$63
	.byte	$62
	.byte	$63
	.byte	$91
	.byte	$75
	.byte	$A5
	.byte	$A5
	.byte	$A5
	.byte	$A5
	.byte	$84
	.byte	$62
	.byte	$90
	.byte	$63
	.byte	$62
	.byte	$65
	.byte	$A5
	.byte	$A5
	.byte	$00
	.byte	$00
	.byte	$A5
	.byte	$A5
	.byte	$89
	.byte	$96
	.byte	$8A
	.byte	$98
	.byte	$A5
	.byte	$A5
	.byte	$00
	.byte	$00
	.byte	$A5
	.byte	$A5
	.byte	$74
	.byte	$70
	.byte	$71
	.byte	$70
	.byte	$71
	.byte	$95
	.byte	$A5
	.byte	$A5
	.byte	$A5
	.byte	$A5
	.byte	$94
	.byte	$70
	.byte	$71
	.byte	$70
	.byte	$71
	.byte	$85
	.byte	$A5
	.byte	$A5
	.byte	$00
	.byte	$00
	.byte	$A5
	.byte	$A5
	.byte	$97
	.byte	$8A
	.byte	$92
	.byte	$65
	.byte	$A5
	.byte	$84
	.byte	$65
	.byte	$A5
	.byte	$66
	.byte	$A5
	.byte	$A5
	.byte	$A5
	.byte	$A5
	.byte	$A5
	.byte	$A5
	.byte	$B3
	.byte	$A5
	.byte	$A5
	.byte	$A5
	.byte	$A5
	.byte	$B3
	.byte	$A5
	.byte	$A5
	.byte	$A5
	.byte	$A5
	.byte	$A5
	.byte	$A5
	.byte	$66
	.byte	$A5
	.byte	$84
	.byte	$85
	.byte	$A5
	.byte	$80
	.byte	$81
	.byte	$92
	.byte	$75
	.byte	$A5
	.byte	$74
	.byte	$85
	.byte	$A5
	.byte	$78
	.byte	$67
	.byte	$68
	.byte	$67
	.byte	$67
	.byte	$77
	.byte	$A5
	.byte	$70
	.byte	$61
	.byte	$A5
	.byte	$A5
	.byte	$61
	.byte	$71
	.byte	$A5
	.byte	$78
	.byte	$67
	.byte	$68
	.byte	$67
	.byte	$67
	.byte	$77
	.byte	$A5
	.byte	$64
	.byte	$95
	.byte	$A5
	.byte	$74
	.byte	$91
	.byte	$82
	.byte	$85
	.byte	$A5
	.byte	$84
	.byte	$95
	.byte	$A5
	.byte	$A5
	.byte	$A5
	.byte	$A5
	.byte	$A5
	.byte	$A5
	.byte	$A5
	.byte	$A5
	.byte	$A5
	.byte	$A5
	.byte	$A5
	.byte	$A5
	.byte	$A5
	.byte	$A5
	.byte	$A5
	.byte	$A5
	.byte	$A5
	.byte	$A5
	.byte	$A5
	.byte	$A5
	.byte	$A5
	.byte	$A5
	.byte	$94
	.byte	$85
	.byte	$A5
	.byte	$84
	.byte	$91
	.byte	$92
	.byte	$95
	.byte	$A5
	.byte	$94
	.byte	$62
	.byte	$80
	.byte	$81
	.byte	$73
	.byte	$72
	.byte	$72
	.byte	$A5
	.byte	$78
	.byte	$67
	.byte	$67
	.byte	$77
	.byte	$A5
	.byte	$A5
	.byte	$78
	.byte	$67
	.byte	$67
	.byte	$77
	.byte	$A5
	.byte	$80
	.byte	$81
	.byte	$72
	.byte	$80
	.byte	$81
	.byte	$92
	.byte	$65
	.byte	$A5
	.byte	$94
	.byte	$91
	.byte	$92
	.byte	$65
	.byte	$A5
	.byte	$70
	.byte	$71
	.byte	$70
	.byte	$71
	.byte	$70
	.byte	$71
	.byte	$70
	.byte	$A5
	.byte	$A5
	.byte	$A5
	.byte	$A5
	.byte	$A5
	.byte	$A5
	.byte	$A5
	.byte	$A5
	.byte	$A5
	.byte	$A5
	.byte	$A5
	.byte	$A5
	.byte	$71
	.byte	$71
	.byte	$71
	.byte	$71
	.byte	$70
	.byte	$71
	.byte	$70
	.byte	$A5
	.byte	$64
	.byte	$62
	.byte	$63
	.byte	$75
	.byte	$A5
	.byte	$A5
	.byte	$A5
	.byte	$A5
	.byte	$A5
	.byte	$A5
	.byte	$A5
	.byte	$A5
	.byte	$A5
	.byte	$A5
	.byte	$A5
	.byte	$A5
	.byte	$A5
	.byte	$A5
	.byte	$A5
	.byte	$A5
	.byte	$A5
	.byte	$A5
	.byte	$A5
	.byte	$A5
	.byte	$A5
	.byte	$A5
	.byte	$A5
	.byte	$A5
	.byte	$A5
	.byte	$A5
	.byte	$A5
	.byte	$A5
	.byte	$74
	.byte	$62
	.byte	$82
	.byte	$85
	.byte	$00
	.byte	$00
	.byte	$61
	.byte	$60
	.byte	$61
	.byte	$60
	.byte	$A5
	.byte	$A5
	.byte	$60
	.byte	$61
	.byte	$60
	.byte	$61
	.byte	$60
	.byte	$A5
	.byte	$A5
	.byte	$61
	.byte	$61
	.byte	$60
	.byte	$60
	.byte	$61
	.byte	$A5
	.byte	$A5
	.byte	$60
	.byte	$61
	.byte	$60
	.byte	$60
	.byte	$00
	.byte	$00
	.byte	$84
	.byte	$91
	.byte	$82
	.byte	$95
	.byte	$00
	.byte	$00
	.byte	$A5
	.byte	$A5
	.byte	$A5
	.byte	$A5
	.byte	$A5
	.byte	$A5
	.byte	$A5
	.byte	$A5
	.byte	$A5
	.byte	$A5
	.byte	$A5
	.byte	$A5
	.byte	$A5
	.byte	$A5
	.byte	$A5
	.byte	$A5
	.byte	$A5
	.byte	$A5
	.byte	$A5
	.byte	$A5
	.byte	$A5
	.byte	$A5
	.byte	$A5
	.byte	$A5
	.byte	$00
	.byte	$00
	.byte	$94
	.byte	$91
	.byte	$92
	.byte	$90
	.byte	$80
	.byte	$81
	.byte	$80
	.byte	$80
	.byte	$81
	.byte	$80
	.byte	$72
	.byte	$73
	.byte	$80
	.byte	$81
	.byte	$80
	.byte	$72
	.byte	$73
	.byte	$80
	.byte	$81
	.byte	$80
	.byte	$80
	.byte	$81
	.byte	$80
	.byte	$81
	.byte	$72
	.byte	$73
	.byte	$80
	.byte	$81
	.byte	$80
	.byte	$81
	.byte	$80
	.byte	$81
	.byte	$90
	.byte	$91
	.byte	$90
	.byte	$91
	.byte	$90
	.byte	$91
	.byte	$92
	.byte	$90
	.byte	$91
	.byte	$63
	.byte	$62
	.byte	$91
	.byte	$91
	.byte	$91
	.byte	$90
	.byte	$91
	.byte	$91
	.byte	$90
	.byte	$91
	.byte	$92
	.byte	$90
	.byte	$91
	.byte	$90
	.byte	$91
	.byte	$90
	.byte	$91
	.byte	$62
	.byte	$91
	.byte	$90
	.byte	$92
	.byte	$82
	.byte	$83
	.byte	$90
	.byte	$91
	.byte	$AA
	.byte	$A6
	.byte	$A9
	.byte	$AA
	.byte	$AA
	.byte	$AE
	.byte	$AB
	.byte	$AA
	.byte	$22
	.byte	$20
	.byte	$AA
	.byte	$AA
	.byte	$AA
	.byte	$AA
	.byte	$80
	.byte	$88
	.byte	$22
	.byte	$22
	.byte	$2A
	.byte	$88
	.byte	$22
	.byte	$8A
	.byte	$88
	.byte	$88
	.byte	$32
	.byte	$00
	.byte	$A8
	.byte	$AA
	.byte	$AA
	.byte	$A2
	.byte	$00
	.byte	$C8
	.byte	$3F
	.byte	$3C
	.byte	$AF
	.byte	$A3
	.byte	$AC
	.byte	$AF
	.byte	$C3
	.byte	$CF
	.byte	$AA
	.byte	$A2
	.byte	$20
	.byte	$0A
	.byte	$0A
	.byte	$80
	.byte	$A8
	.byte	$AA
	.byte	$EA
	.byte	$AA
	.byte	$A2
	.byte	$A0
	.byte	$A0
	.byte	$A8
	.byte	$AA
	.byte	$BA
	.byte	$0A
	.byte	$0A
	.byte	$0A
	.byte	$0A
	.byte	$0A
	.byte	$0A
	.byte	$0A
	.byte	$0A
_settings:
	.byte	$00
	.byte	$00
	.byte	$00
	.byte	$00
	.byte	$00
	.byte	$00
	.byte	$00
	.byte	$00
	.byte	$00
	.byte	$00
	.byte	$00
	.byte	$00
	.byte	$00
	.byte	$00
	.byte	$00
	.byte	$00
	.byte	$00
	.byte	$00
	.byte	$00
	.byte	$00
	.byte	$00
	.byte	$00
	.byte	$00
	.byte	$00
	.byte	$00
	.byte	$00
	.byte	$00
	.byte	$00
	.byte	$00
	.byte	$00
	.byte	$00
	.byte	$00
	.byte	$00
	.byte	$C0
	.byte	$C1
	.byte	$C1
	.byte	$C2
	.byte	$C1
	.byte	$C1
	.byte	$E1
	.byte	$C1
	.byte	$C1
	.byte	$C5
	.byte	$E1
	.byte	$C1
	.byte	$C1
	.byte	$C1
	.byte	$C1
	.byte	$C1
	.byte	$C1
	.byte	$C1
	.byte	$C1
	.byte	$C2
	.byte	$C5
	.byte	$C1
	.byte	$C1
	.byte	$C1
	.byte	$F2
	.byte	$C1
	.byte	$C1
	.byte	$E2
	.byte	$C1
	.byte	$C4
	.byte	$00
	.byte	$00
	.byte	$F0
	.byte	$AF
	.byte	$B6
	.byte	$B6
	.byte	$AF
	.byte	$B6
	.byte	$B6
	.byte	$AF
	.byte	$B6
	.byte	$D0
	.byte	$B5
	.byte	$53
	.byte	$45
	.byte	$54
	.byte	$54
	.byte	$49
	.byte	$4E
	.byte	$47
	.byte	$53
	.byte	$B5
	.byte	$E0
	.byte	$B6
	.byte	$B6
	.byte	$B6
	.byte	$B6
	.byte	$AE
	.byte	$B6
	.byte	$B6
	.byte	$B6
	.byte	$F0
	.byte	$00
	.byte	$00
	.byte	$C3
	.byte	$B6
	.byte	$B9
	.byte	$B8
	.byte	$B6
	.byte	$B9
	.byte	$B8
	.byte	$BA
	.byte	$B6
	.byte	$D3
	.byte	$C1
	.byte	$C1
	.byte	$C1
	.byte	$C1
	.byte	$C1
	.byte	$C1
	.byte	$C1
	.byte	$C1
	.byte	$C1
	.byte	$C1
	.byte	$D4
	.byte	$B6
	.byte	$B6
	.byte	$BA
	.byte	$B6
	.byte	$BA
	.byte	$B6
	.byte	$BA
	.byte	$B6
	.byte	$D0
	.byte	$00
	.byte	$00
	.byte	$C3
	.byte	$AF
	.byte	$B7
	.byte	$B9
	.byte	$B6
	.byte	$B8
	.byte	$BA
	.byte	$B6
	.byte	$B6
	.byte	$AD
	.byte	$00
	.byte	$00
	.byte	$00
	.byte	$00
	.byte	$00
	.byte	$00
	.byte	$00
	.byte	$AE
	.byte	$BA
	.byte	$B6
	.byte	$AE
	.byte	$B6
	.byte	$B6
	.byte	$B9
	.byte	$BA
	.byte	$B6
	.byte	$B6
	.byte	$AD
	.byte	$B6
	.byte	$F0
	.byte	$00
	.byte	$00
	.byte	$F0
	.byte	$B6
	.byte	$B8
	.byte	$B8
	.byte	$B6
	.byte	$B7
	.byte	$AD
	.byte	$B9
	.byte	$AD
	.byte	$00
	.byte	$00
	.byte	$00
	.byte	$00
	.byte	$00
	.byte	$00
	.byte	$00
	.byte	$00
	.byte	$00
	.byte	$00
	.byte	$00
	.byte	$00
	.byte	$B7
	.byte	$B9
	.byte	$AE
	.byte	$B6
	.byte	$B7
	.byte	$B6
	.byte	$B6
	.byte	$B6
	.byte	$F0
	.byte	$00
	.byte	$00
	.byte	$C3
	.byte	$B6
	.byte	$BA
	.byte	$BA
	.byte	$B7
	.byte	$B8
	.byte	$00
	.byte	$00
	.byte	$00
	.byte	$00
	.byte	$00
	.byte	$00
	.byte	$00
	.byte	$00
	.byte	$00
	.byte	$00
	.byte	$00
	.byte	$00
	.byte	$00
	.byte	$00
	.byte	$00
	.byte	$00
	.byte	$00
	.byte	$00
	.byte	$00
	.byte	$B6
	.byte	$B7
	.byte	$B9
	.byte	$B6
	.byte	$C3
	.byte	$00
	.byte	$00
	.byte	$E0
	.byte	$B6
	.byte	$B8
	.byte	$B7
	.byte	$AD
	.byte	$00
	.byte	$00
	.byte	$00
	.byte	$00
	.byte	$00
	.byte	$00
	.byte	$00
	.byte	$00
	.byte	$00
	.byte	$00
	.byte	$00
	.byte	$00
	.byte	$00
	.byte	$00
	.byte	$00
	.byte	$00
	.byte	$00
	.byte	$00
	.byte	$00
	.byte	$00
	.byte	$AE
	.byte	$B6
	.byte	$B6
	.byte	$B6
	.byte	$D0
	.byte	$00
	.byte	$00
	.byte	$D0
	.byte	$B6
	.byte	$B8
	.byte	$B6
	.byte	$00
	.byte	$00
	.byte	$00
	.byte	$00
	.byte	$00
	.byte	$00
	.byte	$00
	.byte	$00
	.byte	$00
	.byte	$00
	.byte	$00
	.byte	$00
	.byte	$00
	.byte	$00
	.byte	$00
	.byte	$00
	.byte	$00
	.byte	$00
	.byte	$00
	.byte	$00
	.byte	$00
	.byte	$00
	.byte	$AC
	.byte	$B6
	.byte	$B6
	.byte	$C3
	.byte	$00
	.byte	$00
	.byte	$F0
	.byte	$B6
	.byte	$B6
	.byte	$B7
	.byte	$00
	.byte	$00
	.byte	$00
	.byte	$00
	.byte	$00
	.byte	$00
	.byte	$00
	.byte	$00
	.byte	$00
	.byte	$00
	.byte	$00
	.byte	$00
	.byte	$00
	.byte	$00
	.byte	$00
	.byte	$00
	.byte	$00
	.byte	$00
	.byte	$00
	.byte	$00
	.byte	$00
	.byte	$00
	.byte	$00
	.byte	$00
	.byte	$B6
	.byte	$E0
	.byte	$00
	.byte	$00
	.byte	$F0
	.byte	$B6
	.byte	$B8
	.byte	$AD
	.byte	$00
	.byte	$00
	.byte	$00
	.byte	$00
	.byte	$00
	.byte	$00
	.byte	$00
	.byte	$00
	.byte	$00
	.byte	$00
	.byte	$00
	.byte	$00
	.byte	$00
	.byte	$00
	.byte	$00
	.byte	$00
	.byte	$00
	.byte	$00
	.byte	$00
	.byte	$00
	.byte	$00
	.byte	$00
	.byte	$00
	.byte	$AF
	.byte	$B6
	.byte	$C3
	.byte	$00
	.byte	$00
	.byte	$F0
	.byte	$B6
	.byte	$B6
	.byte	$B9
	.byte	$00
	.byte	$00
	.byte	$00
	.byte	$00
	.byte	$00
	.byte	$00
	.byte	$00
	.byte	$00
	.byte	$00
	.byte	$00
	.byte	$00
	.byte	$00
	.byte	$00
	.byte	$00
	.byte	$00
	.byte	$00
	.byte	$00
	.byte	$00
	.byte	$00
	.byte	$00
	.byte	$00
	.byte	$00
	.byte	$00
	.byte	$B6
	.byte	$B6
	.byte	$F0
	.byte	$00
	.byte	$00
	.byte	$F0
	.byte	$B6
	.byte	$B6
	.byte	$00
	.byte	$00
	.byte	$00
	.byte	$00
	.byte	$00
	.byte	$00
	.byte	$00
	.byte	$00
	.byte	$00
	.byte	$00
	.byte	$00
	.byte	$00
	.byte	$00
	.byte	$00
	.byte	$00
	.byte	$00
	.byte	$00
	.byte	$00
	.byte	$00
	.byte	$00
	.byte	$00
	.byte	$00
	.byte	$00
	.byte	$00
	.byte	$B6
	.byte	$B6
	.byte	$F0
	.byte	$00
	.byte	$00
	.byte	$F0
	.byte	$B6
	.byte	$AD
	.byte	$00
	.byte	$00
	.byte	$00
	.byte	$00
	.byte	$00
	.byte	$00
	.byte	$00
	.byte	$00
	.byte	$00
	.byte	$00
	.byte	$00
	.byte	$00
	.byte	$00
	.byte	$00
	.byte	$00
	.byte	$00
	.byte	$00
	.byte	$00
	.byte	$00
	.byte	$00
	.byte	$00
	.byte	$00
	.byte	$00
	.byte	$00
	.byte	$AE
	.byte	$B6
	.byte	$F0
	.byte	$00
	.byte	$00
	.byte	$F0
	.byte	$B6
	.byte	$00
	.byte	$00
	.byte	$00
	.byte	$00
	.byte	$00
	.byte	$00
	.byte	$00
	.byte	$00
	.byte	$00
	.byte	$00
	.byte	$00
	.byte	$00
	.byte	$00
	.byte	$00
	.byte	$00
	.byte	$00
	.byte	$00
	.byte	$00
	.byte	$00
	.byte	$00
	.byte	$00
	.byte	$00
	.byte	$00
	.byte	$00
	.byte	$00
	.byte	$00
	.byte	$B6
	.byte	$F0
	.byte	$00
	.byte	$00
	.byte	$F0
	.byte	$B6
	.byte	$B9
	.byte	$00
	.byte	$00
	.byte	$00
	.byte	$00
	.byte	$00
	.byte	$00
	.byte	$00
	.byte	$00
	.byte	$00
	.byte	$00
	.byte	$00
	.byte	$00
	.byte	$00
	.byte	$00
	.byte	$00
	.byte	$00
	.byte	$00
	.byte	$00
	.byte	$00
	.byte	$00
	.byte	$00
	.byte	$00
	.byte	$00
	.byte	$00
	.byte	$B6
	.byte	$B6
	.byte	$F0
	.byte	$00
	.byte	$00
	.byte	$F0
	.byte	$B6
	.byte	$AD
	.byte	$00
	.byte	$00
	.byte	$00
	.byte	$00
	.byte	$00
	.byte	$00
	.byte	$00
	.byte	$00
	.byte	$00
	.byte	$00
	.byte	$00
	.byte	$00
	.byte	$00
	.byte	$00
	.byte	$00
	.byte	$00
	.byte	$00
	.byte	$00
	.byte	$00
	.byte	$00
	.byte	$00
	.byte	$00
	.byte	$00
	.byte	$00
	.byte	$BA
	.byte	$B6
	.byte	$E0
	.byte	$00
	.byte	$00
	.byte	$D0
	.byte	$AF
	.byte	$B6
	.byte	$00
	.byte	$00
	.byte	$00
	.byte	$00
	.byte	$00
	.byte	$00
	.byte	$00
	.byte	$00
	.byte	$00
	.byte	$00
	.byte	$00
	.byte	$00
	.byte	$00
	.byte	$00
	.byte	$00
	.byte	$00
	.byte	$00
	.byte	$00
	.byte	$00
	.byte	$00
	.byte	$00
	.byte	$00
	.byte	$00
	.byte	$B9
	.byte	$B6
	.byte	$B6
	.byte	$F0
	.byte	$00
	.byte	$00
	.byte	$E0
	.byte	$B6
	.byte	$B6
	.byte	$00
	.byte	$00
	.byte	$00
	.byte	$00
	.byte	$00
	.byte	$00
	.byte	$00
	.byte	$00
	.byte	$00
	.byte	$00
	.byte	$00
	.byte	$00
	.byte	$00
	.byte	$00
	.byte	$00
	.byte	$00
	.byte	$00
	.byte	$00
	.byte	$00
	.byte	$00
	.byte	$00
	.byte	$00
	.byte	$00
	.byte	$00
	.byte	$B6
	.byte	$B6
	.byte	$F0
	.byte	$00
	.byte	$00
	.byte	$F0
	.byte	$B6
	.byte	$B6
	.byte	$00
	.byte	$00
	.byte	$00
	.byte	$00
	.byte	$00
	.byte	$00
	.byte	$00
	.byte	$00
	.byte	$00
	.byte	$00
	.byte	$00
	.byte	$00
	.byte	$00
	.byte	$00
	.byte	$00
	.byte	$00
	.byte	$00
	.byte	$00
	.byte	$00
	.byte	$00
	.byte	$00
	.byte	$00
	.byte	$00
	.byte	$00
	.byte	$00
	.byte	$B6
	.byte	$F0
	.byte	$00
	.byte	$00
	.byte	$F0
	.byte	$BA
	.byte	$B6
	.byte	$B6
	.byte	$00
	.byte	$00
	.byte	$00
	.byte	$00
	.byte	$00
	.byte	$00
	.byte	$00
	.byte	$00
	.byte	$00
	.byte	$00
	.byte	$00
	.byte	$00
	.byte	$00
	.byte	$00
	.byte	$00
	.byte	$00
	.byte	$00
	.byte	$00
	.byte	$00
	.byte	$00
	.byte	$00
	.byte	$00
	.byte	$00
	.byte	$BA
	.byte	$B6
	.byte	$D0
	.byte	$00
	.byte	$00
	.byte	$C3
	.byte	$B6
	.byte	$B9
	.byte	$B7
	.byte	$00
	.byte	$00
	.byte	$00
	.byte	$00
	.byte	$00
	.byte	$00
	.byte	$00
	.byte	$00
	.byte	$00
	.byte	$00
	.byte	$00
	.byte	$00
	.byte	$00
	.byte	$00
	.byte	$00
	.byte	$00
	.byte	$00
	.byte	$00
	.byte	$00
	.byte	$00
	.byte	$00
	.byte	$00
	.byte	$00
	.byte	$B6
	.byte	$BA
	.byte	$E0
	.byte	$00
	.byte	$00
	.byte	$C3
	.byte	$AD
	.byte	$B6
	.byte	$AD
	.byte	$00
	.byte	$00
	.byte	$00
	.byte	$00
	.byte	$00
	.byte	$00
	.byte	$00
	.byte	$00
	.byte	$00
	.byte	$00
	.byte	$00
	.byte	$00
	.byte	$00
	.byte	$00
	.byte	$00
	.byte	$00
	.byte	$00
	.byte	$00
	.byte	$00
	.byte	$00
	.byte	$00
	.byte	$00
	.byte	$B6
	.byte	$B6
	.byte	$B6
	.byte	$F0
	.byte	$00
	.byte	$00
	.byte	$F0
	.byte	$B8
	.byte	$B7
	.byte	$00
	.byte	$00
	.byte	$00
	.byte	$00
	.byte	$00
	.byte	$00
	.byte	$00
	.byte	$00
	.byte	$00
	.byte	$00
	.byte	$00
	.byte	$00
	.byte	$00
	.byte	$00
	.byte	$00
	.byte	$00
	.byte	$00
	.byte	$00
	.byte	$00
	.byte	$00
	.byte	$00
	.byte	$00
	.byte	$00
	.byte	$00
	.byte	$AF
	.byte	$B6
	.byte	$F0
	.byte	$00
	.byte	$00
	.byte	$F0
	.byte	$B6
	.byte	$B6
	.byte	$00
	.byte	$00
	.byte	$00
	.byte	$00
	.byte	$00
	.byte	$00
	.byte	$00
	.byte	$00
	.byte	$00
	.byte	$00
	.byte	$00
	.byte	$00
	.byte	$00
	.byte	$00
	.byte	$00
	.byte	$00
	.byte	$00
	.byte	$00
	.byte	$00
	.byte	$00
	.byte	$00
	.byte	$00
	.byte	$00
	.byte	$AF
	.byte	$B6
	.byte	$AE
	.byte	$C3
	.byte	$00
	.byte	$00
	.byte	$D0
	.byte	$B6
	.byte	$B6
	.byte	$B7
	.byte	$00
	.byte	$00
	.byte	$B9
	.byte	$B6
	.byte	$00
	.byte	$00
	.byte	$00
	.byte	$00
	.byte	$00
	.byte	$00
	.byte	$00
	.byte	$00
	.byte	$00
	.byte	$00
	.byte	$00
	.byte	$00
	.byte	$00
	.byte	$00
	.byte	$AF
	.byte	$B6
	.byte	$00
	.byte	$00
	.byte	$B7
	.byte	$B6
	.byte	$B6
	.byte	$F0
	.byte	$00
	.byte	$00
	.byte	$F0
	.byte	$BA
	.byte	$B8
	.byte	$B6
	.byte	$B6
	.byte	$BA
	.byte	$B6
	.byte	$B6
	.byte	$B6
	.byte	$B6
	.byte	$00
	.byte	$00
	.byte	$00
	.byte	$00
	.byte	$00
	.byte	$00
	.byte	$00
	.byte	$AD
	.byte	$AF
	.byte	$BA
	.byte	$B8
	.byte	$B8
	.byte	$BA
	.byte	$BA
	.byte	$AE
	.byte	$B6
	.byte	$BA
	.byte	$B8
	.byte	$B6
	.byte	$C3
	.byte	$00
	.byte	$00
	.byte	$F0
	.byte	$AE
	.byte	$B6
	.byte	$B6
	.byte	$B6
	.byte	$BA
	.byte	$B6
	.byte	$B6
	.byte	$B6
	.byte	$B6
	.byte	$B6
	.byte	$BA
	.byte	$00
	.byte	$00
	.byte	$00
	.byte	$B6
	.byte	$B6
	.byte	$B6
	.byte	$B6
	.byte	$B6
	.byte	$B6
	.byte	$B4
	.byte	$B6
	.byte	$B6
	.byte	$B6
	.byte	$B6
	.byte	$B6
	.byte	$AE
	.byte	$AD
	.byte	$F0
	.byte	$00
	.byte	$00
	.byte	$D3
	.byte	$A0
	.byte	$A1
	.byte	$C2
	.byte	$C1
	.byte	$F2
	.byte	$C1
	.byte	$C1
	.byte	$E1
	.byte	$E2
	.byte	$E1
	.byte	$E2
	.byte	$C1
	.byte	$C1
	.byte	$C1
	.byte	$C1
	.byte	$C1
	.byte	$C1
	.byte	$C1
	.byte	$C1
	.byte	$C1
	.byte	$D5
	.byte	$C1
	.byte	$A0
	.byte	$A1
	.byte	$C1
	.byte	$E1
	.byte	$E2
	.byte	$C1
	.byte	$D4
	.byte	$00
	.byte	$00
	.byte	$00
	.byte	$B0
	.byte	$B1
	.byte	$00
	.byte	$00
	.byte	$00
	.byte	$00
	.byte	$00
	.byte	$00
	.byte	$00
	.byte	$00
	.byte	$00
	.byte	$00
	.byte	$00
	.byte	$00
	.byte	$00
	.byte	$00
	.byte	$00
	.byte	$00
	.byte	$00
	.byte	$00
	.byte	$00
	.byte	$00
	.byte	$B0
	.byte	$B1
	.byte	$00
	.byte	$00
	.byte	$00
	.byte	$00
	.byte	$00
	.byte	$00
	.byte	$3A
	.byte	$0A
	.byte	$8A
	.byte	$AA
	.byte	$AA
	.byte	$29
	.byte	$0B
	.byte	$8A
	.byte	$13
	.byte	$00
	.byte	$00
	.byte	$00
	.byte	$00
	.byte	$00
	.byte	$00
	.byte	$88
	.byte	$22
	.byte	$00
	.byte	$00
	.byte	$00
	.byte	$00
	.byte	$00
	.byte	$00
	.byte	$8C
	.byte	$22
	.byte	$00
	.byte	$00
	.byte	$00
	.byte	$00
	.byte	$00
	.byte	$00
	.byte	$88
	.byte	$22
	.byte	$00
	.byte	$00
	.byte	$00
	.byte	$00
	.byte	$00
	.byte	$00
	.byte	$88
	.byte	$22
	.byte	$00
	.byte	$00
	.byte	$00
	.byte	$00
	.byte	$00
	.byte	$00
	.byte	$88
	.byte	$22
	.byte	$00
	.byte	$00
	.byte	$00
	.byte	$00
	.byte	$00
	.byte	$00
	.byte	$C8
	.byte	$0A
	.byte	$09
	.byte	$0A
	.byte	$0A
	.byte	$0A
	.byte	$06
	.byte	$0A
	.byte	$0A
_title:
	.byte	$BE
	.byte	$BF
	.byte	$8C
	.byte	$B6
	.byte	$B6
	.byte	$B6
	.byte	$A7
	.byte	$B6
	.byte	$B6
	.byte	$B6
	.byte	$B6
	.byte	$B6
	.byte	$B6
	.byte	$B6
	.byte	$B6
	.byte	$B6
	.byte	$BA
	.byte	$B6
	.byte	$B6
	.byte	$B6
	.byte	$B6
	.byte	$B6
	.byte	$B6
	.byte	$B6
	.byte	$B6
	.byte	$B6
	.byte	$B6
	.byte	$A9
	.byte	$A7
	.byte	$BE
	.byte	$CD
	.byte	$BF
	.byte	$CE
	.byte	$CF
	.byte	$B6
	.byte	$B6
	.byte	$B6
	.byte	$B6
	.byte	$B6
	.byte	$BA
	.byte	$B6
	.byte	$B6
	.byte	$B6
	.byte	$B8
	.byte	$B6
	.byte	$B6
	.byte	$B6
	.byte	$B6
	.byte	$B6
	.byte	$B6
	.byte	$B6
	.byte	$B8
	.byte	$B6
	.byte	$B6
	.byte	$B6
	.byte	$B6
	.byte	$B6
	.byte	$B8
	.byte	$B6
	.byte	$B6
	.byte	$B6
	.byte	$DE
	.byte	$BB
	.byte	$CF
	.byte	$DE
	.byte	$DF
	.byte	$B6
	.byte	$B6
	.byte	$B6
	.byte	$B6
	.byte	$B6
	.byte	$B6
	.byte	$B6
	.byte	$B6
	.byte	$BA
	.byte	$B6
	.byte	$B6
	.byte	$B6
	.byte	$B6
	.byte	$B6
	.byte	$B6
	.byte	$B6
	.byte	$B6
	.byte	$B6
	.byte	$B6
	.byte	$B6
	.byte	$B6
	.byte	$B6
	.byte	$B6
	.byte	$B6
	.byte	$B6
	.byte	$B6
	.byte	$B6
	.byte	$B6
	.byte	$DE
	.byte	$DF
	.byte	$BE
	.byte	$D7
	.byte	$B6
	.byte	$B6
	.byte	$B6
	.byte	$8D
	.byte	$B6
	.byte	$B6
	.byte	$9C
	.byte	$B6
	.byte	$DA
	.byte	$BF
	.byte	$BE
	.byte	$D7
	.byte	$B6
	.byte	$BE
	.byte	$D7
	.byte	$B6
	.byte	$9C
	.byte	$B6
	.byte	$A7
	.byte	$9C
	.byte	$A7
	.byte	$B6
	.byte	$BE
	.byte	$E7
	.byte	$BF
	.byte	$B6
	.byte	$B6
	.byte	$B6
	.byte	$B6
	.byte	$99
	.byte	$DE
	.byte	$D8
	.byte	$BA
	.byte	$B6
	.byte	$B6
	.byte	$A7
	.byte	$B6
	.byte	$B6
	.byte	$8D
	.byte	$B6
	.byte	$DE
	.byte	$D8
	.byte	$D9
	.byte	$DF
	.byte	$B6
	.byte	$DE
	.byte	$DB
	.byte	$D7
	.byte	$8D
	.byte	$B6
	.byte	$A7
	.byte	$B6
	.byte	$B6
	.byte	$B6
	.byte	$D9
	.byte	$DD
	.byte	$D8
	.byte	$B6
	.byte	$BA
	.byte	$B6
	.byte	$B6
	.byte	$B6
	.byte	$8F
	.byte	$B6
	.byte	$B6
	.byte	$B6
	.byte	$B6
	.byte	$A7
	.byte	$F8
	.byte	$F9
	.byte	$A7
	.byte	$B6
	.byte	$9C
	.byte	$B6
	.byte	$B6
	.byte	$8F
	.byte	$B6
	.byte	$8D
	.byte	$D9
	.byte	$DB
	.byte	$BF
	.byte	$B6
	.byte	$A7
	.byte	$9C
	.byte	$A7
	.byte	$B6
	.byte	$B6
	.byte	$EB
	.byte	$B6
	.byte	$B6
	.byte	$B6
	.byte	$B6
	.byte	$B6
	.byte	$B6
	.byte	$B6
	.byte	$B6
	.byte	$BA
	.byte	$B6
	.byte	$B6
	.byte	$9E
	.byte	$B6
	.byte	$B6
	.byte	$9D
	.byte	$B6
	.byte	$BE
	.byte	$D7
	.byte	$DA
	.byte	$BF
	.byte	$B6
	.byte	$A7
	.byte	$B6
	.byte	$D9
	.byte	$DF
	.byte	$B6
	.byte	$A7
	.byte	$B6
	.byte	$B6
	.byte	$B6
	.byte	$B6
	.byte	$FB
	.byte	$B6
	.byte	$B6
	.byte	$B6
	.byte	$B6
	.byte	$B8
	.byte	$B6
	.byte	$B6
	.byte	$B6
	.byte	$B6
	.byte	$B6
	.byte	$B6
	.byte	$A7
	.byte	$B6
	.byte	$B6
	.byte	$A7
	.byte	$B4
	.byte	$D9
	.byte	$DF
	.byte	$DE
	.byte	$D8
	.byte	$B6
	.byte	$8F
	.byte	$B6
	.byte	$B6
	.byte	$8E
	.byte	$B6
	.byte	$A7
	.byte	$A7
	.byte	$9F
	.byte	$B6
	.byte	$B6
	.byte	$8F
	.byte	$B6
	.byte	$B6
	.byte	$B6
	.byte	$B6
	.byte	$B6
	.byte	$B6
	.byte	$B6
	.byte	$AB
	.byte	$B6
	.byte	$B6
	.byte	$D2
	.byte	$E1
	.byte	$C1
	.byte	$C1
	.byte	$C1
	.byte	$D5
	.byte	$C1
	.byte	$E2
	.byte	$C1
	.byte	$E2
	.byte	$C1
	.byte	$C1
	.byte	$C1
	.byte	$E2
	.byte	$C1
	.byte	$E2
	.byte	$C1
	.byte	$C1
	.byte	$E1
	.byte	$C1
	.byte	$C1
	.byte	$E1
	.byte	$E2
	.byte	$D1
	.byte	$B6
	.byte	$B6
	.byte	$BA
	.byte	$B6
	.byte	$B6
	.byte	$B6
	.byte	$B6
	.byte	$B6
	.byte	$A4
	.byte	$A4
	.byte	$A4
	.byte	$A4
	.byte	$A4
	.byte	$A4
	.byte	$A4
	.byte	$A4
	.byte	$A4
	.byte	$A4
	.byte	$A4
	.byte	$A4
	.byte	$A4
	.byte	$A4
	.byte	$A4
	.byte	$A4
	.byte	$A4
	.byte	$A4
	.byte	$A4
	.byte	$A4
	.byte	$A4
	.byte	$A4
	.byte	$A4
	.byte	$A4
	.byte	$B6
	.byte	$B6
	.byte	$B6
	.byte	$B6
	.byte	$B6
	.byte	$B6
	.byte	$B6
	.byte	$B6
	.byte	$B9
	.byte	$B8
	.byte	$B6
	.byte	$B6
	.byte	$B9
	.byte	$B6
	.byte	$B9
	.byte	$B6
	.byte	$B6
	.byte	$B6
	.byte	$B6
	.byte	$B6
	.byte	$B6
	.byte	$B6
	.byte	$B6
	.byte	$B6
	.byte	$B6
	.byte	$B6
	.byte	$B6
	.byte	$B6
	.byte	$B6
	.byte	$B6
	.byte	$B6
	.byte	$B6
	.byte	$B7
	.byte	$B6
	.byte	$B6
	.byte	$B6
	.byte	$B6
	.byte	$B6
	.byte	$B6
	.byte	$B6
	.byte	$B6
	.byte	$B6
	.byte	$B6
	.byte	$B6
	.byte	$B6
	.byte	$B6
	.byte	$B6
	.byte	$B6
	.byte	$B6
	.byte	$B6
	.byte	$B6
	.byte	$B9
	.byte	$B6
	.byte	$B6
	.byte	$B6
	.byte	$B6
	.byte	$B6
	.byte	$B6
	.byte	$B6
	.byte	$B6
	.byte	$B6
	.byte	$B6
	.byte	$B6
	.byte	$B6
	.byte	$B6
	.byte	$B6
	.byte	$B6
	.byte	$B6
	.byte	$B6
	.byte	$B6
	.byte	$A7
	.byte	$B6
	.byte	$B6
	.byte	$B6
	.byte	$A7
	.byte	$B6
	.byte	$A7
	.byte	$F8
	.byte	$F9
	.byte	$A7
	.byte	$B6
	.byte	$A7
	.byte	$A7
	.byte	$A7
	.byte	$AB
	.byte	$A7
	.byte	$B6
	.byte	$DA
	.byte	$BF
	.byte	$A7
	.byte	$BE
	.byte	$D7
	.byte	$B6
	.byte	$A7
	.byte	$A7
	.byte	$A7
	.byte	$A7
	.byte	$A7
	.byte	$B6
	.byte	$B6
	.byte	$B6
	.byte	$B6
	.byte	$EB
	.byte	$B6
	.byte	$B7
	.byte	$B6
	.byte	$EB
	.byte	$B6
	.byte	$A7
	.byte	$B6
	.byte	$B6
	.byte	$B6
	.byte	$B6
	.byte	$B6
	.byte	$B6
	.byte	$EB
	.byte	$B6
	.byte	$B6
	.byte	$B6
	.byte	$DE
	.byte	$D8
	.byte	$B6
	.byte	$D9
	.byte	$DF
	.byte	$B6
	.byte	$B6
	.byte	$B6
	.byte	$A7
	.byte	$B6
	.byte	$B6
	.byte	$B6
	.byte	$B6
	.byte	$B6
	.byte	$B6
	.byte	$FB
	.byte	$B6
	.byte	$B6
	.byte	$B6
	.byte	$FB
	.byte	$B6
	.byte	$A7
	.byte	$B6
	.byte	$B6
	.byte	$B6
	.byte	$B6
	.byte	$B6
	.byte	$B6
	.byte	$FB
	.byte	$B6
	.byte	$B6
	.byte	$B6
	.byte	$BE
	.byte	$D7
	.byte	$B6
	.byte	$B6
	.byte	$B6
	.byte	$B6
	.byte	$B6
	.byte	$B6
	.byte	$EB
	.byte	$B6
	.byte	$B6
	.byte	$B6
	.byte	$B6
	.byte	$B6
	.byte	$B6
	.byte	$A8
	.byte	$A7
	.byte	$A7
	.byte	$A7
	.byte	$A9
	.byte	$B6
	.byte	$A7
	.byte	$A7
	.byte	$A7
	.byte	$B6
	.byte	$B9
	.byte	$B6
	.byte	$B6
	.byte	$A7
	.byte	$B6
	.byte	$B6
	.byte	$B6
	.byte	$D9
	.byte	$DF
	.byte	$A9
	.byte	$BE
	.byte	$D7
	.byte	$B6
	.byte	$B6
	.byte	$B6
	.byte	$FB
	.byte	$B6
	.byte	$B6
	.byte	$B6
	.byte	$B6
	.byte	$B6
	.byte	$B6
	.byte	$A7
	.byte	$B6
	.byte	$B6
	.byte	$B6
	.byte	$A7
	.byte	$B6
	.byte	$A7
	.byte	$B6
	.byte	$B6
	.byte	$B6
	.byte	$B6
	.byte	$B6
	.byte	$B6
	.byte	$99
	.byte	$B6
	.byte	$B6
	.byte	$B6
	.byte	$B6
	.byte	$B6
	.byte	$B6
	.byte	$D9
	.byte	$DF
	.byte	$B7
	.byte	$B6
	.byte	$B6
	.byte	$A7
	.byte	$B6
	.byte	$B7
	.byte	$B6
	.byte	$B6
	.byte	$B6
	.byte	$B6
	.byte	$EB
	.byte	$B6
	.byte	$B6
	.byte	$B6
	.byte	$EB
	.byte	$B6
	.byte	$EB
	.byte	$B6
	.byte	$B9
	.byte	$B6
	.byte	$B6
	.byte	$B6
	.byte	$B6
	.byte	$EB
	.byte	$B6
	.byte	$B6
	.byte	$B6
	.byte	$B6
	.byte	$B6
	.byte	$B6
	.byte	$B6
	.byte	$A7
	.byte	$B6
	.byte	$B6
	.byte	$B6
	.byte	$EB
	.byte	$B6
	.byte	$B6
	.byte	$B6
	.byte	$B6
	.byte	$B6
	.byte	$B6
	.byte	$FB
	.byte	$B6
	.byte	$B8
	.byte	$B6
	.byte	$FB
	.byte	$B6
	.byte	$FB
	.byte	$B6
	.byte	$B6
	.byte	$B6
	.byte	$B6
	.byte	$B6
	.byte	$B6
	.byte	$FB
	.byte	$B6
	.byte	$B6
	.byte	$B6
	.byte	$BE
	.byte	$D7
	.byte	$B6
	.byte	$DA
	.byte	$BF
	.byte	$B6
	.byte	$B6
	.byte	$B6
	.byte	$FB
	.byte	$B6
	.byte	$B6
	.byte	$B6
	.byte	$B6
	.byte	$B8
	.byte	$B6
	.byte	$A7
	.byte	$B6
	.byte	$B6
	.byte	$B6
	.byte	$A7
	.byte	$B6
	.byte	$A7
	.byte	$F8
	.byte	$F9
	.byte	$A7
	.byte	$B6
	.byte	$A7
	.byte	$A7
	.byte	$A7
	.byte	$A7
	.byte	$A7
	.byte	$B6
	.byte	$D9
	.byte	$DF
	.byte	$A7
	.byte	$DE
	.byte	$D8
	.byte	$B6
	.byte	$B4
	.byte	$B6
	.byte	$A7
	.byte	$B6
	.byte	$B6
	.byte	$B6
	.byte	$B6
	.byte	$A4
	.byte	$D2
	.byte	$E2
	.byte	$C1
	.byte	$C1
	.byte	$C1
	.byte	$E1
	.byte	$E2
	.byte	$C1
	.byte	$C1
	.byte	$E1
	.byte	$C1
	.byte	$C1
	.byte	$C1
	.byte	$C1
	.byte	$C1
	.byte	$E2
	.byte	$C1
	.byte	$C1
	.byte	$C1
	.byte	$E2
	.byte	$C1
	.byte	$C1
	.byte	$C1
	.byte	$C1
	.byte	$D5
	.byte	$C1
	.byte	$C1
	.byte	$C1
	.byte	$E1
	.byte	$D1
	.byte	$A4
	.byte	$A4
	.byte	$A4
	.byte	$A4
	.byte	$A4
	.byte	$A4
	.byte	$A4
	.byte	$A4
	.byte	$A4
	.byte	$A4
	.byte	$A4
	.byte	$A4
	.byte	$A4
	.byte	$A4
	.byte	$A4
	.byte	$A4
	.byte	$A4
	.byte	$A4
	.byte	$A4
	.byte	$A4
	.byte	$A4
	.byte	$A4
	.byte	$A4
	.byte	$A4
	.byte	$A4
	.byte	$A4
	.byte	$A4
	.byte	$A4
	.byte	$A4
	.byte	$A4
	.byte	$A4
	.byte	$A4
	.byte	$A4
	.byte	$B6
	.byte	$B6
	.byte	$B6
	.byte	$B6
	.byte	$B8
	.byte	$B8
	.byte	$B6
	.byte	$B8
	.byte	$B6
	.byte	$B6
	.byte	$B6
	.byte	$B6
	.byte	$B6
	.byte	$B6
	.byte	$B6
	.byte	$B6
	.byte	$B6
	.byte	$B6
	.byte	$B6
	.byte	$B6
	.byte	$B6
	.byte	$B6
	.byte	$B6
	.byte	$B6
	.byte	$B6
	.byte	$B6
	.byte	$AB
	.byte	$B6
	.byte	$B6
	.byte	$B6
	.byte	$B6
	.byte	$A7
	.byte	$B6
	.byte	$99
	.byte	$B6
	.byte	$B6
	.byte	$B6
	.byte	$B6
	.byte	$B6
	.byte	$B8
	.byte	$B6
	.byte	$B5
	.byte	$50
	.byte	$52
	.byte	$45
	.byte	$53
	.byte	$53
	.byte	$B6
	.byte	$B6
	.byte	$53
	.byte	$54
	.byte	$41
	.byte	$52
	.byte	$54
	.byte	$B5
	.byte	$B6
	.byte	$B6
	.byte	$B6
	.byte	$B6
	.byte	$B6
	.byte	$B6
	.byte	$B6
	.byte	$B6
	.byte	$B6
	.byte	$B6
	.byte	$B6
	.byte	$B6
	.byte	$A9
	.byte	$BE
	.byte	$D7
	.byte	$B6
	.byte	$B6
	.byte	$B6
	.byte	$B6
	.byte	$B6
	.byte	$B6
	.byte	$B6
	.byte	$B6
	.byte	$B6
	.byte	$B6
	.byte	$B6
	.byte	$B6
	.byte	$B6
	.byte	$B6
	.byte	$B6
	.byte	$B6
	.byte	$B6
	.byte	$B6
	.byte	$B6
	.byte	$B6
	.byte	$B6
	.byte	$B6
	.byte	$BE
	.byte	$BF
	.byte	$B6
	.byte	$B6
	.byte	$B6
	.byte	$B6
	.byte	$B6
	.byte	$B6
	.byte	$DE
	.byte	$DF
	.byte	$B6
	.byte	$3B
	.byte	$32
	.byte	$30
	.byte	$32
	.byte	$35
	.byte	$B6
	.byte	$42
	.byte	$52
	.byte	$49
	.byte	$41
	.byte	$4E
	.byte	$B6
	.byte	$3C
	.byte	$B6
	.byte	$41
	.byte	$4C
	.byte	$41
	.byte	$4E
	.byte	$B6
	.byte	$B6
	.byte	$B6
	.byte	$CE
	.byte	$CF
	.byte	$B6
	.byte	$B6
	.byte	$B6
	.byte	$B6
	.byte	$B6
	.byte	$B6
	.byte	$B6
	.byte	$B6
	.byte	$B6
	.byte	$B6
	.byte	$B6
	.byte	$B6
	.byte	$B6
	.byte	$B6
	.byte	$B6
	.byte	$B6
	.byte	$B6
	.byte	$B6
	.byte	$B7
	.byte	$B6
	.byte	$B6
	.byte	$B6
	.byte	$B6
	.byte	$B6
	.byte	$B6
	.byte	$B6
	.byte	$B6
	.byte	$B6
	.byte	$B8
	.byte	$B6
	.byte	$DE
	.byte	$DF
	.byte	$B6
	.byte	$B6
	.byte	$A7
	.byte	$B6
	.byte	$B6
	.byte	$B8
	.byte	$B6
	.byte	$B6
	.byte	$B6
	.byte	$B8
	.byte	$B6
	.byte	$B6
	.byte	$B6
	.byte	$B6
	.byte	$B6
	.byte	$B6
	.byte	$B6
	.byte	$B6
	.byte	$B6
	.byte	$B8
	.byte	$B6
	.byte	$B6
	.byte	$B6
	.byte	$B6
	.byte	$B6
	.byte	$B6
	.byte	$B6
	.byte	$B6
	.byte	$B6
	.byte	$B6
	.byte	$B6
	.byte	$B6
	.byte	$B6
	.byte	$B9
	.byte	$A7
	.byte	$BE
	.byte	$BF
	.byte	$B6
	.byte	$B6
	.byte	$B6
	.byte	$B8
	.byte	$B6
	.byte	$B6
	.byte	$B6
	.byte	$B6
	.byte	$B6
	.byte	$BE
	.byte	$BF
	.byte	$B6
	.byte	$B6
	.byte	$B6
	.byte	$B6
	.byte	$B8
	.byte	$B6
	.byte	$B6
	.byte	$A7
	.byte	$B6
	.byte	$B6
	.byte	$B9
	.byte	$B8
	.byte	$B6
	.byte	$B6
	.byte	$B6
	.byte	$B6
	.byte	$B9
	.byte	$BF
	.byte	$A7
	.byte	$CE
	.byte	$CF
	.byte	$A7
	.byte	$B6
	.byte	$B6
	.byte	$B6
	.byte	$B6
	.byte	$B6
	.byte	$B6
	.byte	$B6
	.byte	$AB
	.byte	$CE
	.byte	$CF
	.byte	$A7
	.byte	$B6
	.byte	$B6
	.byte	$B6
	.byte	$B6
	.byte	$B6
	.byte	$B6
	.byte	$B6
	.byte	$B6
	.byte	$B6
	.byte	$B6
	.byte	$B6
	.byte	$A7
	.byte	$B6
	.byte	$B6
	.byte	$A7
	.byte	$CE
	.byte	$CF
	.byte	$00
	.byte	$00
	.byte	$00
	.byte	$00
	.byte	$00
	.byte	$00
	.byte	$00
	.byte	$00
	.byte	$00
	.byte	$00
	.byte	$00
	.byte	$00
	.byte	$00
	.byte	$00
	.byte	$00
	.byte	$00
	.byte	$00
	.byte	$05
	.byte	$05
	.byte	$05
	.byte	$05
	.byte	$05
	.byte	$05
	.byte	$00
	.byte	$00
	.byte	$00
	.byte	$00
	.byte	$00
	.byte	$00
	.byte	$00
	.byte	$00
	.byte	$00
	.byte	$00
	.byte	$00
	.byte	$00
	.byte	$00
	.byte	$00
	.byte	$00
	.byte	$00
	.byte	$00
	.byte	$05
	.byte	$05
	.byte	$05
	.byte	$05
	.byte	$05
	.byte	$05
	.byte	$05
	.byte	$05
	.byte	$00
	.byte	$00
	.byte	$00
	.byte	$00
	.byte	$00
	.byte	$00
	.byte	$00
	.byte	$00
	.byte	$00
	.byte	$00
	.byte	$00
	.byte	$00
	.byte	$00
	.byte	$00
	.byte	$00
	.byte	$00
_COMBS_FLOWER_X:
	.byte	$10
	.byte	$E2
	.byte	$10
	.byte	$E2
_COMBS_FLOWER_Y:
	.byte	$20
	.byte	$20
	.byte	$D0
	.byte	$D0
_VINES_FLOWER_X:
	.byte	$10
	.byte	$E0
	.byte	$10
	.byte	$E0
_VINES_FLOWER_Y:
	.byte	$20
	.byte	$20
	.byte	$D0
	.byte	$D0
_OUTDOORS_FLOWER_X:
	.byte	$20
	.byte	$D0
	.byte	$10
	.byte	$E0
_OUTDOORS_FLOWER_Y:
	.byte	$70
	.byte	$70
	.byte	$D0
	.byte	$D0
_palette_combsnplants_bg:
	.byte	$0F
	.byte	$30
	.byte	$27
	.byte	$07
	.byte	$0F
	.byte	$15
	.byte	$30
	.byte	$11
	.byte	$0F
	.byte	$0F
	.byte	$30
	.byte	$30
	.byte	$0F
	.byte	$11
	.byte	$21
	.byte	$30
_palette_outdoors_bg:
	.byte	$0F
	.byte	$30
	.byte	$17
	.byte	$28
	.byte	$0F
	.byte	$15
	.byte	$30
	.byte	$11
	.byte	$0F
	.byte	$30
	.byte	$2A
	.byte	$1B
	.byte	$0F
	.byte	$11
	.byte	$21
	.byte	$30
_palette_vineswoflowers_bg:
	.byte	$0F
	.byte	$30
	.byte	$27
	.byte	$07
	.byte	$0F
	.byte	$15
	.byte	$30
	.byte	$11
	.byte	$0F
	.byte	$30
	.byte	$1A
	.byte	$38
	.byte	$0F
	.byte	$11
	.byte	$21
	.byte	$30
_palette_sp:
	.byte	$0F
	.byte	$16
	.byte	$30
	.byte	$38
	.byte	$0F
	.byte	$28
	.byte	$07
	.byte	$30
	.byte	$0F
	.byte	$2C
	.byte	$30
	.byte	$38
	.byte	$0F
	.byte	$10
	.byte	$38
	.byte	$30
_palette_title_bg:
	.byte	$0F
	.byte	$30
	.byte	$27
	.byte	$07
	.byte	$0F
	.byte	$07
	.byte	$2A
	.byte	$1B
	.byte	$0F
	.byte	$30
	.byte	$2A
	.byte	$1B
	.byte	$0F
	.byte	$30
	.byte	$21
	.byte	$11
_palette_options_bg:
	.byte	$0F
	.byte	$30
	.byte	$27
	.byte	$07
	.byte	$0F
	.byte	$24
	.byte	$2A
	.byte	$1B
	.byte	$0F
	.byte	$30
	.byte	$2A
	.byte	$1B
	.byte	$0F
	.byte	$27
	.byte	$2A
	.byte	$1B
_metatiles1:
	.byte	$02
	.byte	$02
	.byte	$02
	.byte	$02
	.byte	$03
	.byte	$04
	.byte	$04
	.byte	$04
	.byte	$04
	.byte	$01
	.byte	$09
	.byte	$09
	.byte	$09
	.byte	$09
	.byte	$02
	.byte	$05
	.byte	$06
	.byte	$08
	.byte	$07
	.byte	$01
	.byte	$05
	.byte	$06
	.byte	$08
	.byte	$07
	.byte	$00
_pellet_tiles:
	.byte	$C6
	.byte	$C7
	.byte	$C8
	.byte	$C9
	.byte	$CA
	.byte	$A5
_blank_tiles:
	.byte	$B6
	.byte	$B7
	.byte	$B8
	.byte	$B9
	.byte	$BA
	.byte	$00
	.byte	$69
	.byte	$6A
	.byte	$6B
L27E0:
	.byte	$20,$20,$20,$20,$20,$20,$20,$20,$20,$20,$20,$20,$20,$20,$20,$20
	.byte	$20,$20,$20,$20,$20,$20,$00
L287B:
	.byte	$45,$4E,$45,$4D,$59,$20,$41,$54,$45,$20,$54,$48,$45,$49,$52,$20
	.byte	$44,$55,$43,$4B,$00
L2758:
	.byte	$50,$52,$45,$53,$53,$20,$53,$45,$4C,$45,$43,$54,$20,$54,$4F,$20
	.byte	$4A,$4F,$49,$4E,$00
L28A5:
	.byte	$43,$4F,$4C,$4C,$45,$43,$54,$45,$44,$20,$4D,$4F,$52,$45,$20,$48
	.byte	$4F,$4E,$45,$59,$00
L282D	:=	L28A5+0
L286D:
	.byte	$45,$4E,$45,$4D,$59,$20,$41,$54,$45,$20,$54,$48,$45,$49,$52,$20
	.byte	$42,$45,$45,$00
L285F:
	.byte	$31,$30,$30,$20,$48,$4F,$4E,$45,$59,$20,$43,$4F,$4C,$4C,$45,$43
	.byte	$54,$45,$44,$00
L2806:
	.byte	$46,$52,$49,$45,$4E,$44,$4C,$59,$20,$44,$55,$43,$4B,$20,$45,$41
	.byte	$54,$45,$4E,$00
L27EC:
	.byte	$43,$4F,$4C,$4C,$45,$43,$54,$45,$44,$20,$31,$30,$30,$20,$48,$4F
	.byte	$4E,$45,$59,$00
L27F9:
	.byte	$46,$52,$49,$45,$4E,$44,$4C,$59,$20,$42,$45,$45,$20,$45,$41,$54
	.byte	$45,$4E,$00
L2820:
	.byte	$42,$49,$47,$42,$45,$45,$20,$41,$54,$45,$20,$44,$55,$43,$4B,$21
	.byte	$00
L2897:
	.byte	$45,$4E,$45,$4D,$59,$20,$44,$55,$43,$4B,$20,$45,$41,$54,$45,$4E
	.byte	$00
L2889:
	.byte	$45,$4E,$45,$4D,$59,$20,$42,$45,$45,$20,$45,$41,$54,$45,$4E,$00
L2813	:=	L2889+0
L28CC:
	.byte	$42,$4C,$55,$45,$20,$54,$45,$41,$4D,$20,$57,$49,$4E,$53,$00
L28BD:
	.byte	$52,$45,$44,$20,$54,$45,$41,$4D,$20,$57,$49,$4E,$53,$00
L2966:
	.byte	$50,$52,$45,$53,$53,$20,$53,$54,$41,$52,$54,$00
L2838:
	.byte	$44,$52,$41,$57,$20,$47,$41,$4D,$45,$21,$00
L2920:
	.byte	$52,$4F,$55,$4E,$44,$20,$32,$3A,$00
L2931:
	.byte	$52,$4F,$55,$4E,$44,$20,$33,$3A,$00
L2957:
	.byte	$52,$4F,$55,$4E,$44,$20,$35,$3A,$00
L290F:
	.byte	$52,$4F,$55,$4E,$44,$20,$31,$3A,$00
L26BA:
	.byte	$52,$41,$4E,$44,$4F,$4D,$20,$20,$00
L26C7:
	.byte	$4F,$55,$54,$44,$4F,$4F,$52,$53,$00
L26D4:
	.byte	$43,$4F,$4D,$42,$53,$20,$20,$20,$00
L26E1:
	.byte	$56,$49,$4E,$45,$53,$20,$20,$20,$00
L2944:
	.byte	$52,$4F,$55,$4E,$44,$20,$34,$3A,$00
L26A1:
	.byte	$52,$45,$47,$55,$4C,$41,$52,$00
L26AE:
	.byte	$46,$41,$53,$54,$20,$20,$20,$00
L2694:
	.byte	$53,$4C,$4F,$57,$20,$20,$20,$00
L270B:
	.byte	$48,$4F,$4E,$45,$59,$20,$00
L26FC:
	.byte	$4C,$41,$4B,$45,$20,$20,$00
L271A:
	.byte	$52,$41,$4E,$44,$4F,$4D,$00
L26ED:
	.byte	$42,$45,$45,$20,$20,$20,$00
L274E:
	.byte	$4D,$55,$53,$49,$43,$3A,$00
L273A:
	.byte	$53,$50,$45,$45,$44,$3A,$00
L2852:
	.byte	$42,$4C,$55,$45,$00
L2744:
	.byte	$4D,$41,$50,$3A,$00
L2845:
	.byte	$52,$45,$44,$00

.segment	"BSS"

_tick_frequency:
	.res	1,$00
.segment	"ZEROPAGE"
_doublepad:
	.res	2,$00
_generic_pad:
	.res	1,$00
_turbo_p1:
	.res	1,$00
_turbo_p2:
	.res	1,$00
_turbo_p3:
	.res	1,$00
_turbo_p4:
	.res	1,$00
_prev_pad1:
	.res	1,$00
_prev_pad2:
	.res	1,$00
_prev_pad3:
	.res	1,$00
_prev_pad4:
	.res	1,$00
_pad1:
	.res	1,$00
_pad2:
	.res	1,$00
_pad3:
	.res	1,$00
_pad4:
	.res	1,$00
_pad1_new:
	.res	1,$00
_pad2_new:
	.res	1,$00
_pad3_new:
	.res	1,$00
_pad4_new:
	.res	1,$00
_game_mode:
	.res	1,$00
_winner:
	.res	1,$00
_game_frame_timer:
	.res	1,$00
_game_timer:
	.res	1,$00
_speed_option:
	.res	2,$00
_current_speed:
	.res	2,$00
_force_redraw:
	.res	1,$00
_use_turbo:
	.res	1,$00
_turbo_amount:
	.res	1,$00
_ducks_go_faster_over_time:
	.res	1,$00
_map_positions:
	.res	1,$00
_collision:
	.res	1,$00
_collision_L:
	.res	1,$00
_collision_R:
	.res	1,$00
_collision_U:
	.res	1,$00
_collision_D:
	.res	1,$00
_coordinates:
	.res	1,$00
_temp1:
	.res	1,$00
_temp2:
	.res	1,$00
_temp3:
	.res	1,$00
_temp4:
	.res	1,$00
_temp5:
	.res	2,$00
_temp6:
	.res	2,$00
_tempint:
	.res	2,$00
_eject_L:
	.res	1,$00
_eject_R:
	.res	1,$00
_eject_D:
	.res	1,$00
_eject_U:
	.res	1,$00
_address:
	.res	2,$00
_x:
	.res	1,$00
_y:
	.res	1,$00
_index:
	.res	1,$00
_map:
	.res	1,$00
_scroll_x:
	.res	2,$00
_scroll_y:
	.res	2,$00
_hero_velocity_x:
	.res	2,$00
_hero_velocity_y:
	.res	2,$00
_old_x:
	.res	2,$00
_old_y:
	.res	2,$00
_signed_temp:
	.res	1,$00
_signed_temp2:
	.res	1,$00
_temp:
	.res	1,$00
_temp_x:
	.res	1,$00
_temp_y:
	.res	1,$00
_temp_x2:
	.res	1,$00
_temp_y2:
	.res	1,$00
_largeindex:
	.res	2,$00
_song:
	.res	1,$00
_collision_box_size:
	.res	1,$00
_current_settings_choice:
	.res	1,$00
_settings_map:
	.res	1,$00
_settings_speed:
	.res	1,$00
_settings_song:
	.res	1,$00
_map_ptr:
	.res	2,$00
_bit_index:
	.res	1,$00
_bit_offset:
	.res	1,$00
_frame_counter:
	.res	1,$00
_ai_counter:
	.res	1,$00
_use_ai_player_1:
	.res	1,$00
_use_ai_player_2:
	.res	1,$00
_use_ai_player_3:
	.res	1,$00
_use_ai_player_4:
	.res	1,$00
_ai_timer_p1:
	.res	1,$00
_ai_timer_p2:
	.res	1,$00
_ai_timer_p3:
	.res	1,$00
_ai_timer_p4:
	.res	1,$00
_ai_dir_p1:
	.res	1,$00
_ai_dir_p2:
	.res	1,$00
_ai_dir_p3:
	.res	1,$00
_ai_dir_p4:
	.res	1,$00
_ai_timer_work:
	.res	1,$00
_ai_dir_work:
	.res	1,$00
_ai_collision_work:
	.res	1,$00
_ai_pad_work:
	.res	1,$00
_current_player:
	.res	1,$00
_team1_score:
	.res	1,$00
_team2_score:
	.res	1,$00
_temp_win_reason:
	.res	1,$00
_temp_win_team:
	.res	1,$00
_team1_wins:
	.res	1,$00
_team2_wins:
	.res	1,$00
_team1_win1:
	.res	1,$00
_team1_win2:
	.res	1,$00
_team1_win3:
	.res	1,$00
_team2_win1:
	.res	1,$00
_team2_win2:
	.res	1,$00
_team2_win3:
	.res	1,$00
_round_1_winner:
	.res	1,$00
_round_2_winner:
	.res	1,$00
_round_3_winner:
	.res	1,$00
_round_4_winner:
	.res	1,$00
_round_5_winner:
	.res	1,$00
_round_1:
	.res	1,$00
_round_2:
	.res	1,$00
_round_3:
	.res	1,$00
_round_4:
	.res	1,$00
_round_5:
	.res	1,$00
_temp_round:
	.res	1,$00
_temp_winner:
	.res	1,$00
_current_round:
	.res	1,$00
_win_reason:
	.res	1,$00
_powerup1:
	.res	1,$00
_powerup2:
	.res	1,$00
_powerup3:
	.res	1,$00
_powerup4:
	.res	1,$00
_bee1_bigbee_timer:
	.res	1,$00
_bee3_bigbee_timer:
	.res	1,$00
_sprite_rotation:
	.res	1,$00
_anim_frame_1:
	.res	1,$00
_anim_frame_2:
	.res	1,$00
_anim_frame_3:
	.res	1,$00
_anim_frame_4:
	.res	1,$00
.segment	"BSS"
_consumed_dots:
	.res	128,$00
_start_hold_timer:
	.res	1,$00
_start_held:
	.res	1,$00
_Generic:
	.res	4,$00
_quack2:
	.res	7,$00
_quack4:
	.res	7,$00
_quack2_cooldown:
	.res	1,$00
_quack4_cooldown:
	.res	1,$00
_stun_p1:
	.res	1,$00
_stun_p2:
	.res	1,$00
_stun_p3:
	.res	1,$00
_stun_p4:
	.res	1,$00
_GenericBoxGuy:
	.res	7,$00
_anim_tick_p1:
	.res	1,$00
_anim_tick_p2:
	.res	1,$00
_anim_tick_p3:
	.res	1,$00
_anim_tick_p4:
	.res	1,$00
_options_anim_tick:
	.res	1,$00
_four_score_present:
	.res	1,$00
_controller1_slot:
	.res	1,$00
_controller2_slot:
	.res	1,$00

; ---------------------------------------------------------------
; void __near__ load_room (void)
; ---------------------------------------------------------------

.segment	"CODE"

.proc	_load_room: near

.segment	"CODE"

;
; ppu_off();
;
	jsr     _ppu_off
;
; vram_adr(NAMETABLE_A);
;
	ldx     #$20
	lda     #$00
	jsr     _vram_adr
;
; for (largeindex = 0; largeindex < 1024; ++largeindex)
;
	lda     #$00
	sta     _largeindex
	sta     _largeindex+1
L1924:	ldx     _largeindex+1
	cpx     #$04
	bcs     L1925
;
; if (game_mode == MODE_TITLE)
;
	lda     _game_mode
	bne     L2A23
;
; vram_put(title[largeindex]);
;
	lda     #<(_title)
	sta     ptr1
	lda     #>(_title)
	clc
	adc     _largeindex+1
	sta     ptr1+1
	ldy     _largeindex
;
; else if (game_mode == MODE_OPTIONS)
;
	jmp     L2A24
L2A23:	lda     _game_mode
	cmp     #$01
	bne     L1933
;
; vram_put(settings[largeindex]);
;
	lda     #<(_settings)
	sta     ptr1
	lda     #>(_settings)
	clc
	adc     _largeindex+1
	sta     ptr1+1
	ldy     _largeindex
;
; else
;
	jmp     L2A24
;
; vram_put(map_ptr[largeindex]);
;
L1933:	lda     _map_ptr
	clc
	adc     _largeindex
	sta     ptr1
	lda     _map_ptr+1
	adc     _largeindex+1
	sta     ptr1+1
	ldy     #$00
L2A24:	lda     (ptr1),y
	jsr     _vram_put
;
; for (largeindex = 0; largeindex < 1024; ++largeindex)
;
	inc     _largeindex
	bne     L1924
	inc     _largeindex+1
	jmp     L1924
;
; ppu_on_all();
;
L1925:	jmp     _ppu_on_all

.endproc

; ---------------------------------------------------------------
; void __near__ draw_sprites (void)
; ---------------------------------------------------------------

.segment	"CODE"

.proc	_draw_sprites: near

.segment	"CODE"

;
; oam_clear();
;
	jsr     _oam_clear
;
; if (powerup1 == 1)
;
	lda     _powerup1
	cmp     #$01
	bne     L2A2D
;
; if (map == MAP_COMBS)
;
	lda     _map
	bne     L2A2B
;
; oam_meta_spr(COMBS_FLOWER_X[0], COMBS_FLOWER_Y[0], gamesprites_powerup_data);
;
	jsr     decsp2
	lda     _COMBS_FLOWER_X
	ldy     #$01
	sta     (sp),y
	lda     _COMBS_FLOWER_Y
;
; else if (map == MAP_VINES)
;
	jmp     L2A49
L2A2B:	lda     _map
	cmp     #$02
	bne     L2A2C
;
; oam_meta_spr(VINES_FLOWER_X[0], VINES_FLOWER_Y[0], gamesprites_powerup_data);
;
	jsr     decsp2
	lda     _VINES_FLOWER_X
	ldy     #$01
	sta     (sp),y
	lda     _VINES_FLOWER_Y
;
; else if (map == MAP_OUTDOORS)
;
	jmp     L2A49
L2A2C:	lda     _map
	cmp     #$01
	bne     L2A2D
;
; oam_meta_spr(OUTDOORS_FLOWER_X[0], OUTDOORS_FLOWER_Y[0], gamesprites_powerup_data);
;
	jsr     decsp2
	lda     _OUTDOORS_FLOWER_X
	ldy     #$01
	sta     (sp),y
	lda     _OUTDOORS_FLOWER_Y
L2A49:	dey
	sta     (sp),y
	lda     #<(_gamesprites_powerup_data)
	ldx     #>(_gamesprites_powerup_data)
	jsr     _oam_meta_spr
;
; if (powerup2 == 1)
;
L2A2D:	lda     _powerup2
	cmp     #$01
	bne     L2A30
;
; if (map == MAP_COMBS)
;
	lda     _map
	bne     L2A2E
;
; oam_meta_spr(COMBS_FLOWER_X[1], COMBS_FLOWER_Y[1], gamesprites_powerup_data);
;
	jsr     decsp2
	lda     _COMBS_FLOWER_X+1
	ldy     #$01
	sta     (sp),y
	lda     _COMBS_FLOWER_Y+1
;
; else if (map == MAP_VINES)
;
	jmp     L2A4A
L2A2E:	lda     _map
	cmp     #$02
	bne     L2A2F
;
; oam_meta_spr(VINES_FLOWER_X[1], VINES_FLOWER_Y[1], gamesprites_powerup_data);
;
	jsr     decsp2
	lda     _VINES_FLOWER_X+1
	ldy     #$01
	sta     (sp),y
	lda     _VINES_FLOWER_Y+1
;
; else if (map == MAP_OUTDOORS)
;
	jmp     L2A4A
L2A2F:	lda     _map
	cmp     #$01
	bne     L2A30
;
; oam_meta_spr(OUTDOORS_FLOWER_X[1], OUTDOORS_FLOWER_Y[1], gamesprites_powerup_data);
;
	jsr     decsp2
	lda     _OUTDOORS_FLOWER_X+1
	ldy     #$01
	sta     (sp),y
	lda     _OUTDOORS_FLOWER_Y+1
L2A4A:	dey
	sta     (sp),y
	lda     #<(_gamesprites_powerup_data)
	ldx     #>(_gamesprites_powerup_data)
	jsr     _oam_meta_spr
;
; if (powerup3 == 1)
;
L2A30:	lda     _powerup3
	cmp     #$01
	bne     L2A33
;
; if (map == MAP_COMBS)
;
	lda     _map
	bne     L2A31
;
; oam_meta_spr(COMBS_FLOWER_X[2], COMBS_FLOWER_Y[2], gamesprites_powerup_data);
;
	jsr     decsp2
	lda     _COMBS_FLOWER_X+2
	ldy     #$01
	sta     (sp),y
	lda     _COMBS_FLOWER_Y+2
;
; else if (map == MAP_VINES)
;
	jmp     L2A4B
L2A31:	lda     _map
	cmp     #$02
	bne     L2A32
;
; oam_meta_spr(VINES_FLOWER_X[2], VINES_FLOWER_Y[2], gamesprites_powerup_data);
;
	jsr     decsp2
	lda     _VINES_FLOWER_X+2
	ldy     #$01
	sta     (sp),y
	lda     _VINES_FLOWER_Y+2
;
; else if (map == MAP_OUTDOORS)
;
	jmp     L2A4B
L2A32:	lda     _map
	cmp     #$01
	bne     L2A33
;
; oam_meta_spr(OUTDOORS_FLOWER_X[2], OUTDOORS_FLOWER_Y[2], gamesprites_powerup_data);
;
	jsr     decsp2
	lda     _OUTDOORS_FLOWER_X+2
	ldy     #$01
	sta     (sp),y
	lda     _OUTDOORS_FLOWER_Y+2
L2A4B:	dey
	sta     (sp),y
	lda     #<(_gamesprites_powerup_data)
	ldx     #>(_gamesprites_powerup_data)
	jsr     _oam_meta_spr
;
; if (powerup4 == 1)
;
L2A33:	lda     _powerup4
	cmp     #$01
	bne     L19A7
;
; if (map == MAP_COMBS)
;
	lda     _map
	bne     L2A34
;
; oam_meta_spr(COMBS_FLOWER_X[3], COMBS_FLOWER_Y[3], gamesprites_powerup_data);
;
	jsr     decsp2
	lda     _COMBS_FLOWER_X+3
	ldy     #$01
	sta     (sp),y
	lda     _COMBS_FLOWER_Y+3
;
; else if (map == MAP_VINES)
;
	jmp     L2A4C
L2A34:	lda     _map
	cmp     #$02
	bne     L2A35
;
; oam_meta_spr(VINES_FLOWER_X[3], VINES_FLOWER_Y[3], gamesprites_powerup_data);
;
	jsr     decsp2
	lda     _VINES_FLOWER_X+3
	ldy     #$01
	sta     (sp),y
	lda     _VINES_FLOWER_Y+3
;
; else if (map == MAP_OUTDOORS)
;
	jmp     L2A4C
L2A35:	lda     _map
	cmp     #$01
	bne     L19A7
;
; oam_meta_spr(OUTDOORS_FLOWER_X[3], OUTDOORS_FLOWER_Y[3], gamesprites_powerup_data);
;
	jsr     decsp2
	lda     _OUTDOORS_FLOWER_X+3
	ldy     #$01
	sta     (sp),y
	lda     _OUTDOORS_FLOWER_Y+3
L2A4C:	dey
	sta     (sp),y
	lda     #<(_gamesprites_powerup_data)
	ldx     #>(_gamesprites_powerup_data)
	jsr     _oam_meta_spr
;
; if (quack2.moving)
;
L19A7:	lda     _quack2+5
	jeq     L19CA
;
; temp_x = quack2.x >> 8;
;
	lda     _quack2+1
	sta     _temp_x
;
; temp_y = quack2.y >> 8;
;
	lda     _quack2+3
	sta     _temp_y
;
; if (quack2.direction == DIR_LEFT)
;
	lda     _quack2+4
	cmp     #$02
	bne     L2A36
;
; oam_meta_spr(temp_x, temp_y, gamesprites_quackleft_data);
;
	jsr     decsp2
	lda     _temp_x
	ldy     #$01
	sta     (sp),y
	lda     _temp_y
	dey
	sta     (sp),y
	lda     #<(_gamesprites_quackleft_data)
	ldx     #>(_gamesprites_quackleft_data)
;
; else if (quack2.direction == DIR_RIGHT)
;
	jmp     L2A29
L2A36:	lda     _quack2+4
	cmp     #$03
	bne     L2A37
;
; oam_meta_spr(temp_x, temp_y, gamesprites_quackright_data);
;
	jsr     decsp2
	lda     _temp_x
	ldy     #$01
	sta     (sp),y
	lda     _temp_y
	dey
	sta     (sp),y
	lda     #<(_gamesprites_quackright_data)
	ldx     #>(_gamesprites_quackright_data)
;
; else if (quack2.direction == DIR_DOWN)
;
	jmp     L2A29
L2A37:	lda     _quack2+4
	cmp     #$01
	bne     L2A38
;
; oam_meta_spr(temp_x, temp_y, gamesprites_quackdown_data);
;
	jsr     decsp2
	lda     _temp_x
	ldy     #$01
	sta     (sp),y
	lda     _temp_y
	dey
	sta     (sp),y
	lda     #<(_gamesprites_quackdown_data)
	ldx     #>(_gamesprites_quackdown_data)
;
; else if (quack2.direction == DIR_UP)
;
	jmp     L2A29
L2A38:	lda     _quack2+4
	bne     L19CA
;
; oam_meta_spr(temp_x, temp_y, gamesprites_quackup_data);
;
	jsr     decsp2
	lda     _temp_x
	ldy     #$01
	sta     (sp),y
	lda     _temp_y
	dey
	sta     (sp),y
	lda     #<(_gamesprites_quackup_data)
	ldx     #>(_gamesprites_quackup_data)
L2A29:	jsr     _oam_meta_spr
;
; if (quack4.moving)
;
L19CA:	lda     _quack4+5
	jeq     L2A3C
;
; temp_x = quack4.x >> 8;
;
	lda     _quack4+1
	sta     _temp_x
;
; temp_y = quack4.y >> 8;
;
	lda     _quack4+3
	sta     _temp_y
;
; if (quack4.direction == DIR_LEFT)
;
	lda     _quack4+4
	cmp     #$02
	bne     L2A39
;
; oam_meta_spr(temp_x, temp_y, gamesprites_quackleft_data);
;
	jsr     decsp2
	lda     _temp_x
	ldy     #$01
	sta     (sp),y
	lda     _temp_y
	dey
	sta     (sp),y
	lda     #<(_gamesprites_quackleft_data)
	ldx     #>(_gamesprites_quackleft_data)
;
; else if (quack4.direction == DIR_RIGHT)
;
	jmp     L2A2A
L2A39:	lda     _quack4+4
	cmp     #$03
	bne     L2A3A
;
; oam_meta_spr(temp_x, temp_y, gamesprites_quackright_data);
;
	jsr     decsp2
	lda     _temp_x
	ldy     #$01
	sta     (sp),y
	lda     _temp_y
	dey
	sta     (sp),y
	lda     #<(_gamesprites_quackright_data)
	ldx     #>(_gamesprites_quackright_data)
;
; else if (quack4.direction == DIR_DOWN)
;
	jmp     L2A2A
L2A3A:	lda     _quack4+4
	cmp     #$01
	bne     L2A3B
;
; oam_meta_spr(temp_x, temp_y, gamesprites_quackdown_data);
;
	jsr     decsp2
	lda     _temp_x
	ldy     #$01
	sta     (sp),y
	lda     _temp_y
	dey
	sta     (sp),y
	lda     #<(_gamesprites_quackdown_data)
	ldx     #>(_gamesprites_quackdown_data)
;
; else if (quack4.direction == DIR_UP)
;
	jmp     L2A2A
L2A3B:	lda     _quack4+4
	bne     L2A3C
;
; oam_meta_spr(temp_x, temp_y, gamesprites_quackup_data);
;
	jsr     decsp2
	lda     _temp_x
	ldy     #$01
	sta     (sp),y
	lda     _temp_y
	dey
	sta     (sp),y
	lda     #<(_gamesprites_quackup_data)
	ldx     #>(_gamesprites_quackup_data)
L2A2A:	jsr     _oam_meta_spr
;
; switch (sprite_rotation & 0x03)
;
L2A3C:	lda     _sprite_rotation
	and     #$03
;
; }
;
	beq     L19F5
	cmp     #$01
	beq     L19FB
	cmp     #$02
	beq     L1A01
	cmp     #$03
	beq     L1A07
	rts
;
; draw_player_1();
;
L19F5:	jsr     _draw_player_1
;
; draw_player_2();
;
	jsr     _draw_player_2
;
; draw_player_3();
;
	jsr     _draw_player_3
;
; draw_player_4();
;
	jmp     _draw_player_4
;
; draw_player_2();
;
L19FB:	jsr     _draw_player_2
;
; draw_player_1();
;
	jsr     _draw_player_1
;
; draw_player_4();
;
	jsr     _draw_player_4
;
; draw_player_3();
;
	jmp     _draw_player_3
;
; draw_player_3();
;
L1A01:	jsr     _draw_player_3
;
; draw_player_4();
;
	jsr     _draw_player_4
;
; draw_player_1();
;
	jsr     _draw_player_1
;
; draw_player_2();
;
	jmp     _draw_player_2
;
; draw_player_4();
;
L1A07:	jsr     _draw_player_4
;
; draw_player_3();
;
	jsr     _draw_player_3
;
; draw_player_2();
;
	jsr     _draw_player_2
;
; draw_player_1();
;
	jmp     _draw_player_1

.endproc

; ---------------------------------------------------------------
; void __near__ draw_player_1 (void)
; ---------------------------------------------------------------

.segment	"CODE"

.proc	_draw_player_1: near

.segment	"CODE"

;
; temp_x = BoxGuy1.x >> 8;
;
	lda     _BoxGuy1+1
	sta     _temp_x
;
; temp_y = BoxGuy1.y >> 8;
;
	lda     _BoxGuy1+3
	sta     _temp_y
;
; if (winner == THREEFOUR_WINNER)
;
	lda     _winner
	cmp     #$02
	bne     L2A50
;
; if (BoxGuy1.direction == DIR_LEFT)
;
	lda     _BoxGuy1+4
	cmp     #$02
	bne     L2A4F
;
; if (bee1_bigbee_timer > 0)
;
	lda     _bee1_bigbee_timer
	beq     L1A1B
;
; oam_meta_spr(temp_x, temp_y, gamesprites_bigbeeleft0_data);
;
	jsr     decsp2
	lda     _temp_x
	ldy     #$01
	sta     (sp),y
	lda     _temp_y
	dey
	sta     (sp),y
	lda     #<(_gamesprites_bigbeeleft0_data)
	ldx     #>(_gamesprites_bigbeeleft0_data)
;
; else
;
	jmp     _oam_meta_spr
;
; oam_meta_spr(temp_x, temp_y, gamesprites_smallbeeleft0_data);
;
L1A1B:	jsr     decsp2
	lda     _temp_x
	ldy     #$01
	sta     (sp),y
	lda     _temp_y
	dey
	sta     (sp),y
	lda     #<(_gamesprites_smallbeeleft0_data)
	ldx     #>(_gamesprites_smallbeeleft0_data)
	jmp     _oam_meta_spr
;
; if (bee1_bigbee_timer > 0)
;
L2A4F:	lda     _bee1_bigbee_timer
	beq     L1A27
;
; oam_meta_spr(temp_x, temp_y, gamesprites_bigbeeright0_data);
;
	jsr     decsp2
	lda     _temp_x
	ldy     #$01
	sta     (sp),y
	lda     _temp_y
	dey
	sta     (sp),y
	lda     #<(_gamesprites_bigbeeright0_data)
	ldx     #>(_gamesprites_bigbeeright0_data)
	jmp     _oam_meta_spr
;
; oam_meta_spr(temp_x, temp_y, gamesprites_smallbeeright0_data);
;
L1A27:	jsr     decsp2
	lda     _temp_x
	ldy     #$01
	sta     (sp),y
	lda     _temp_y
	dey
	sta     (sp),y
	lda     #<(_gamesprites_smallbeeright0_data)
	ldx     #>(_gamesprites_smallbeeright0_data)
	jmp     _oam_meta_spr
;
; if (stun_p1 > 0 && (frame_counter & 0x01) == 0 && winner == UNDEFINED_WINNER)
;
L2A50:	lda     _stun_p1
	beq     L2A54
	lda     _frame_counter
	and     #$01
	bne     L2A54
	lda     _winner
	bne     L2A54
;
; return; // flash when stunned (only if game is still ongoing)
;
	rts
;
; if (++anim_tick_p1 >= 10)
;
L2A54:	inc     _anim_tick_p1
	lda     _anim_tick_p1
	cmp     #$0A
	bcc     L2A55
;
; anim_tick_p1 = 0;
;
	lda     #$00
	sta     _anim_tick_p1
;
; if (++anim_frame_1 >= 3)
;
	inc     _anim_frame_1
	lda     _anim_frame_1
	cmp     #$03
	bcc     L2A55
;
; anim_frame_1 = 0;
;
	lda     #$00
	sta     _anim_frame_1
;
; if (bee1_bigbee_timer > 0)
;
L2A55:	lda     _bee1_bigbee_timer
	jeq     L2A5B
;
; if (bee1_bigbee_timer < BIGBEE_FLICKER_START)
;
	cmp     #$04
	bcs     L2A58
;
; if ((frame_counter & 0x03) < 2 && winner == UNDEFINED_WINNER)
;
	lda     _frame_counter
	and     #$03
	cmp     #$02
	bcs     L2A58
	lda     _winner
	bne     L2A58
;
; return; // Skip drawing this frame
;
	rts
;
; if (BoxGuy1.direction == DIR_LEFT)
;
L2A58:	lda     _BoxGuy1+4
	cmp     #$02
	bne     L2A59
;
; switch (anim_frame_1)
;
	lda     _anim_frame_1
;
; }
;
	beq     L1A50
	cmp     #$01
	beq     L1A56
	cmp     #$02
	beq     L1A5C
	rts
;
; oam_meta_spr(temp_x, temp_y, gamesprites_bigbeeleft0_data);
;
L1A50:	jsr     decsp2
	lda     _temp_x
	ldy     #$01
	sta     (sp),y
	lda     _temp_y
	dey
	sta     (sp),y
	lda     #<(_gamesprites_bigbeeleft0_data)
	ldx     #>(_gamesprites_bigbeeleft0_data)
	jmp     _oam_meta_spr
;
; oam_meta_spr(temp_x, temp_y, gamesprites_bigbeeleft1_data);
;
L1A56:	jsr     decsp2
	lda     _temp_x
	ldy     #$01
	sta     (sp),y
	lda     _temp_y
	dey
	sta     (sp),y
	lda     #<(_gamesprites_bigbeeleft1_data)
	ldx     #>(_gamesprites_bigbeeleft1_data)
	jmp     _oam_meta_spr
;
; oam_meta_spr(temp_x, temp_y, gamesprites_bigbeeleft2_data);
;
L1A5C:	jsr     decsp2
	lda     _temp_x
	ldy     #$01
	sta     (sp),y
	lda     _temp_y
	dey
	sta     (sp),y
	lda     #<(_gamesprites_bigbeeleft2_data)
	ldx     #>(_gamesprites_bigbeeleft2_data)
	jmp     _oam_meta_spr
;
; else if (BoxGuy1.direction == DIR_RIGHT)
;
L2A59:	lda     _BoxGuy1+4
	cmp     #$03
	bne     L2A5A
;
; switch (anim_frame_1)
;
	lda     _anim_frame_1
;
; }
;
	beq     L1A68
	cmp     #$01
	beq     L1A6E
	cmp     #$02
	beq     L1A74
	rts
;
; oam_meta_spr(temp_x, temp_y, gamesprites_bigbeeright0_data);
;
L1A68:	jsr     decsp2
	lda     _temp_x
	ldy     #$01
	sta     (sp),y
	lda     _temp_y
	dey
	sta     (sp),y
	lda     #<(_gamesprites_bigbeeright0_data)
	ldx     #>(_gamesprites_bigbeeright0_data)
	jmp     _oam_meta_spr
;
; oam_meta_spr(temp_x, temp_y, gamesprites_bigbeeright1_data);
;
L1A6E:	jsr     decsp2
	lda     _temp_x
	ldy     #$01
	sta     (sp),y
	lda     _temp_y
	dey
	sta     (sp),y
	lda     #<(_gamesprites_bigbeeright1_data)
	ldx     #>(_gamesprites_bigbeeright1_data)
	jmp     _oam_meta_spr
;
; oam_meta_spr(temp_x, temp_y, gamesprites_bigbeeright2_data);
;
L1A74:	jsr     decsp2
	lda     _temp_x
	ldy     #$01
	sta     (sp),y
	lda     _temp_y
	dey
	sta     (sp),y
	lda     #<(_gamesprites_bigbeeright2_data)
	ldx     #>(_gamesprites_bigbeeright2_data)
	jmp     _oam_meta_spr
;
; switch (anim_frame_1)
;
L2A5A:	lda     _anim_frame_1
;
; }
;
	beq     L1A7E
	cmp     #$01
	beq     L1A84
	cmp     #$02
	beq     L1A8A
	rts
;
; oam_meta_spr(temp_x, temp_y, gamesprites_bigbeeleft0_data);
;
L1A7E:	jsr     decsp2
	lda     _temp_x
	ldy     #$01
	sta     (sp),y
	lda     _temp_y
	dey
	sta     (sp),y
	lda     #<(_gamesprites_bigbeeleft0_data)
	ldx     #>(_gamesprites_bigbeeleft0_data)
	jmp     _oam_meta_spr
;
; oam_meta_spr(temp_x, temp_y, gamesprites_bigbeeleft1_data);
;
L1A84:	jsr     decsp2
	lda     _temp_x
	ldy     #$01
	sta     (sp),y
	lda     _temp_y
	dey
	sta     (sp),y
	lda     #<(_gamesprites_bigbeeleft1_data)
	ldx     #>(_gamesprites_bigbeeleft1_data)
	jmp     _oam_meta_spr
;
; oam_meta_spr(temp_x, temp_y, gamesprites_bigbeeleft2_data);
;
L1A8A:	jsr     decsp2
	lda     _temp_x
	ldy     #$01
	sta     (sp),y
	lda     _temp_y
	dey
	sta     (sp),y
	lda     #<(_gamesprites_bigbeeleft2_data)
	ldx     #>(_gamesprites_bigbeeleft2_data)
	jmp     _oam_meta_spr
;
; if (BoxGuy1.direction == DIR_LEFT)
;
L2A5B:	lda     _BoxGuy1+4
	cmp     #$02
	bne     L2A5C
;
; switch (anim_frame_1)
;
	lda     _anim_frame_1
;
; }
;
	beq     L1A96
	cmp     #$01
	beq     L1A9C
	cmp     #$02
	beq     L1AA2
	rts
;
; oam_meta_spr(temp_x, temp_y, gamesprites_smallbeeleft0_data);
;
L1A96:	jsr     decsp2
	lda     _temp_x
	ldy     #$01
	sta     (sp),y
	lda     _temp_y
	dey
	sta     (sp),y
	lda     #<(_gamesprites_smallbeeleft0_data)
	ldx     #>(_gamesprites_smallbeeleft0_data)
	jmp     _oam_meta_spr
;
; oam_meta_spr(temp_x, temp_y, gamesprites_smallbeeleft1_data);
;
L1A9C:	jsr     decsp2
	lda     _temp_x
	ldy     #$01
	sta     (sp),y
	lda     _temp_y
	dey
	sta     (sp),y
	lda     #<(_gamesprites_smallbeeleft1_data)
	ldx     #>(_gamesprites_smallbeeleft1_data)
	jmp     _oam_meta_spr
;
; oam_meta_spr(temp_x, temp_y, gamesprites_smallbeeleft2_data);
;
L1AA2:	jsr     decsp2
	lda     _temp_x
	ldy     #$01
	sta     (sp),y
	lda     _temp_y
	dey
	sta     (sp),y
	lda     #<(_gamesprites_smallbeeleft2_data)
	ldx     #>(_gamesprites_smallbeeleft2_data)
	jmp     _oam_meta_spr
;
; else if (BoxGuy1.direction == DIR_RIGHT)
;
L2A5C:	lda     _BoxGuy1+4
	cmp     #$03
	bne     L2A5D
;
; switch (anim_frame_1)
;
	lda     _anim_frame_1
;
; }
;
	beq     L1AAE
	cmp     #$01
	beq     L1AB4
	cmp     #$02
	beq     L1ABA
	rts
;
; oam_meta_spr(temp_x, temp_y, gamesprites_smallbeeright0_data);
;
L1AAE:	jsr     decsp2
	lda     _temp_x
	ldy     #$01
	sta     (sp),y
	lda     _temp_y
	dey
	sta     (sp),y
	lda     #<(_gamesprites_smallbeeright0_data)
	ldx     #>(_gamesprites_smallbeeright0_data)
	jmp     _oam_meta_spr
;
; oam_meta_spr(temp_x, temp_y, gamesprites_smallbeeright1_data);
;
L1AB4:	jsr     decsp2
	lda     _temp_x
	ldy     #$01
	sta     (sp),y
	lda     _temp_y
	dey
	sta     (sp),y
	lda     #<(_gamesprites_smallbeeright1_data)
	ldx     #>(_gamesprites_smallbeeright1_data)
	jmp     _oam_meta_spr
;
; oam_meta_spr(temp_x, temp_y, gamesprites_smallbeeright2_data);
;
L1ABA:	jsr     decsp2
	lda     _temp_x
	ldy     #$01
	sta     (sp),y
	lda     _temp_y
	dey
	sta     (sp),y
	lda     #<(_gamesprites_smallbeeright2_data)
	ldx     #>(_gamesprites_smallbeeright2_data)
	jmp     _oam_meta_spr
;
; switch (anim_frame_1)
;
L2A5D:	lda     _anim_frame_1
;
; }
;
	beq     L1AC4
	cmp     #$01
	beq     L1ACA
	cmp     #$02
	beq     L1AD0
	rts
;
; oam_meta_spr(temp_x, temp_y, gamesprites_smallbeeleft0_data);
;
L1AC4:	jsr     decsp2
	lda     _temp_x
	ldy     #$01
	sta     (sp),y
	lda     _temp_y
	dey
	sta     (sp),y
	lda     #<(_gamesprites_smallbeeleft0_data)
	ldx     #>(_gamesprites_smallbeeleft0_data)
	jmp     _oam_meta_spr
;
; oam_meta_spr(temp_x, temp_y, gamesprites_smallbeeleft1_data);
;
L1ACA:	jsr     decsp2
	lda     _temp_x
	ldy     #$01
	sta     (sp),y
	lda     _temp_y
	dey
	sta     (sp),y
	lda     #<(_gamesprites_smallbeeleft1_data)
	ldx     #>(_gamesprites_smallbeeleft1_data)
	jmp     _oam_meta_spr
;
; oam_meta_spr(temp_x, temp_y, gamesprites_smallbeeleft2_data);
;
L1AD0:	jsr     decsp2
	lda     _temp_x
	ldy     #$01
	sta     (sp),y
	lda     _temp_y
	dey
	sta     (sp),y
	lda     #<(_gamesprites_smallbeeleft2_data)
	ldx     #>(_gamesprites_smallbeeleft2_data)
	jmp     _oam_meta_spr

.endproc

; ---------------------------------------------------------------
; void __near__ draw_player_2 (void)
; ---------------------------------------------------------------

.segment	"CODE"

.proc	_draw_player_2: near

.segment	"CODE"

;
; temp_x = BoxGuy2.x >> 8;
;
	lda     _BoxGuy2+1
	sta     _temp_x
;
; temp_y = BoxGuy2.y >> 8;
;
	lda     _BoxGuy2+3
	sta     _temp_y
;
; if (winner == THREEFOUR_WINNER)
;
	lda     _winner
	cmp     #$02
	bne     L2A5F
;
; if (BoxGuy2.direction == DIR_LEFT)
;
	lda     _BoxGuy2+4
	cmp     #$02
	bne     L1AE2
;
; oam_meta_spr(temp_x, temp_y, gamesprites_smallduckleft0_data);
;
	jsr     decsp2
	lda     _temp_x
	ldy     #$01
	sta     (sp),y
	lda     _temp_y
	dey
	sta     (sp),y
	lda     #<(_gamesprites_smallduckleft0_data)
	ldx     #>(_gamesprites_smallduckleft0_data)
	jmp     _oam_meta_spr
;
; oam_meta_spr(temp_x, temp_y, gamesprites_smallduckright0_data);
;
L1AE2:	jsr     decsp2
	lda     _temp_x
	ldy     #$01
	sta     (sp),y
	lda     _temp_y
	dey
	sta     (sp),y
	lda     #<(_gamesprites_smallduckright0_data)
	ldx     #>(_gamesprites_smallduckright0_data)
	jmp     _oam_meta_spr
;
; if (stun_p2 > 0 && (frame_counter & 0x01) == 0 && winner == UNDEFINED_WINNER)
;
L2A5F:	lda     _stun_p2
	beq     L1AED
	lda     _frame_counter
	and     #$01
	bne     L1AED
	lda     _winner
	bne     L1AED
;
; return; // flash when stunned
;
	rts
;
; if (BoxGuy2.moving)
;
L1AED:	lda     _BoxGuy2+5
	beq     L2A63
;
; if (++anim_tick_p2 >= 10)
;
	inc     _anim_tick_p2
	lda     _anim_tick_p2
	cmp     #$0A
	bcc     L2A63
;
; anim_tick_p2 = 0;
;
	lda     #$00
	sta     _anim_tick_p2
;
; if (++anim_frame_2 >= 3)
;
	inc     _anim_frame_2
	lda     _anim_frame_2
	cmp     #$03
	bcc     L2A63
;
; anim_frame_2 = 0;
;
	lda     #$00
	sta     _anim_frame_2
;
; if (BoxGuy2.direction == DIR_LEFT)
;
L2A63:	lda     _BoxGuy2+4
	cmp     #$02
	bne     L2A64
;
; switch (anim_frame_2)
;
	lda     _anim_frame_2
;
; }
;
	beq     L1B03
	cmp     #$01
	beq     L1B09
	cmp     #$02
	beq     L1B0F
	rts
;
; oam_meta_spr(temp_x, temp_y, gamesprites_smallduckleft0_data);
;
L1B03:	jsr     decsp2
	lda     _temp_x
	ldy     #$01
	sta     (sp),y
	lda     _temp_y
	dey
	sta     (sp),y
	lda     #<(_gamesprites_smallduckleft0_data)
	ldx     #>(_gamesprites_smallduckleft0_data)
	jmp     _oam_meta_spr
;
; oam_meta_spr(temp_x, temp_y, gamesprites_smallduckleft1_data);
;
L1B09:	jsr     decsp2
	lda     _temp_x
	ldy     #$01
	sta     (sp),y
	lda     _temp_y
	dey
	sta     (sp),y
	lda     #<(_gamesprites_smallduckleft1_data)
	ldx     #>(_gamesprites_smallduckleft1_data)
	jmp     _oam_meta_spr
;
; oam_meta_spr(temp_x, temp_y, gamesprites_smallduckleft2_data);
;
L1B0F:	jsr     decsp2
	lda     _temp_x
	ldy     #$01
	sta     (sp),y
	lda     _temp_y
	dey
	sta     (sp),y
	lda     #<(_gamesprites_smallduckleft2_data)
	ldx     #>(_gamesprites_smallduckleft2_data)
	jmp     _oam_meta_spr
;
; else if (BoxGuy2.direction == DIR_RIGHT)
;
L2A64:	lda     _BoxGuy2+4
	cmp     #$03
	bne     L2A65
;
; switch (anim_frame_2)
;
	lda     _anim_frame_2
;
; }
;
	beq     L1B1B
	cmp     #$01
	beq     L1B21
	cmp     #$02
	beq     L1B27
	rts
;
; oam_meta_spr(temp_x, temp_y, gamesprites_smallduckright0_data);
;
L1B1B:	jsr     decsp2
	lda     _temp_x
	ldy     #$01
	sta     (sp),y
	lda     _temp_y
	dey
	sta     (sp),y
	lda     #<(_gamesprites_smallduckright0_data)
	ldx     #>(_gamesprites_smallduckright0_data)
	jmp     _oam_meta_spr
;
; oam_meta_spr(temp_x, temp_y, gamesprites_smallduckright1_data);
;
L1B21:	jsr     decsp2
	lda     _temp_x
	ldy     #$01
	sta     (sp),y
	lda     _temp_y
	dey
	sta     (sp),y
	lda     #<(_gamesprites_smallduckright1_data)
	ldx     #>(_gamesprites_smallduckright1_data)
	jmp     _oam_meta_spr
;
; oam_meta_spr(temp_x, temp_y, gamesprites_smallduckright2_data);
;
L1B27:	jsr     decsp2
	lda     _temp_x
	ldy     #$01
	sta     (sp),y
	lda     _temp_y
	dey
	sta     (sp),y
	lda     #<(_gamesprites_smallduckright2_data)
	ldx     #>(_gamesprites_smallduckright2_data)
	jmp     _oam_meta_spr
;
; switch (anim_frame_2)
;
L2A65:	lda     _anim_frame_2
;
; }
;
	beq     L1B31
	cmp     #$01
	beq     L1B37
	cmp     #$02
	beq     L1B3D
	rts
;
; oam_meta_spr(temp_x, temp_y, gamesprites_smallduckleft0_data);
;
L1B31:	jsr     decsp2
	lda     _temp_x
	ldy     #$01
	sta     (sp),y
	lda     _temp_y
	dey
	sta     (sp),y
	lda     #<(_gamesprites_smallduckleft0_data)
	ldx     #>(_gamesprites_smallduckleft0_data)
	jmp     _oam_meta_spr
;
; oam_meta_spr(temp_x, temp_y, gamesprites_smallduckleft1_data);
;
L1B37:	jsr     decsp2
	lda     _temp_x
	ldy     #$01
	sta     (sp),y
	lda     _temp_y
	dey
	sta     (sp),y
	lda     #<(_gamesprites_smallduckleft1_data)
	ldx     #>(_gamesprites_smallduckleft1_data)
	jmp     _oam_meta_spr
;
; oam_meta_spr(temp_x, temp_y, gamesprites_smallduckleft2_data);
;
L1B3D:	jsr     decsp2
	lda     _temp_x
	ldy     #$01
	sta     (sp),y
	lda     _temp_y
	dey
	sta     (sp),y
	lda     #<(_gamesprites_smallduckleft2_data)
	ldx     #>(_gamesprites_smallduckleft2_data)
	jmp     _oam_meta_spr

.endproc

; ---------------------------------------------------------------
; void __near__ draw_player_3 (void)
; ---------------------------------------------------------------

.segment	"CODE"

.proc	_draw_player_3: near

.segment	"CODE"

;
; temp_x = BoxGuy3.x >> 8;
;
	lda     _BoxGuy3+1
	sta     _temp_x
;
; temp_y = BoxGuy3.y >> 8;
;
	lda     _BoxGuy3+3
	sta     _temp_y
;
; if (winner == ONETWO_WINNER)
;
	lda     _winner
	cmp     #$01
	bne     L2A68
;
; if (BoxGuy3.direction == DIR_LEFT)
;
	lda     _BoxGuy3+4
	cmp     #$02
	bne     L2A67
;
; if (bee3_bigbee_timer > 0)
;
	lda     _bee3_bigbee_timer
	beq     L1B51
;
; oam_meta_spr(temp_x, temp_y, gamesprites_bigbee2left0_data);
;
	jsr     decsp2
	lda     _temp_x
	ldy     #$01
	sta     (sp),y
	lda     _temp_y
	dey
	sta     (sp),y
	lda     #<(_gamesprites_bigbee2left0_data)
	ldx     #>(_gamesprites_bigbee2left0_data)
;
; else
;
	jmp     _oam_meta_spr
;
; oam_meta_spr(temp_x, temp_y, gamesprites_smallbee2left0_data);
;
L1B51:	jsr     decsp2
	lda     _temp_x
	ldy     #$01
	sta     (sp),y
	lda     _temp_y
	dey
	sta     (sp),y
	lda     #<(_gamesprites_smallbee2left0_data)
	ldx     #>(_gamesprites_smallbee2left0_data)
	jmp     _oam_meta_spr
;
; if (bee3_bigbee_timer > 0)
;
L2A67:	lda     _bee3_bigbee_timer
	beq     L1B5D
;
; oam_meta_spr(temp_x, temp_y, gamesprites_bigbee2right0_data);
;
	jsr     decsp2
	lda     _temp_x
	ldy     #$01
	sta     (sp),y
	lda     _temp_y
	dey
	sta     (sp),y
	lda     #<(_gamesprites_bigbee2right0_data)
	ldx     #>(_gamesprites_bigbee2right0_data)
	jmp     _oam_meta_spr
;
; oam_meta_spr(temp_x, temp_y, gamesprites_smallbee2right0_data);
;
L1B5D:	jsr     decsp2
	lda     _temp_x
	ldy     #$01
	sta     (sp),y
	lda     _temp_y
	dey
	sta     (sp),y
	lda     #<(_gamesprites_smallbee2right0_data)
	ldx     #>(_gamesprites_smallbee2right0_data)
	jmp     _oam_meta_spr
;
; if (stun_p3 > 0 && (frame_counter & 0x01) == 0 && winner == UNDEFINED_WINNER)
;
L2A68:	lda     _stun_p3
	beq     L2A6C
	lda     _frame_counter
	and     #$01
	bne     L2A6C
	lda     _winner
	bne     L2A6C
;
; return; // flash when stunned
;
	rts
;
; if (++anim_tick_p3 >= 10)
;
L2A6C:	inc     _anim_tick_p3
	lda     _anim_tick_p3
	cmp     #$0A
	bcc     L2A6D
;
; anim_tick_p3 = 0;
;
	lda     #$00
	sta     _anim_tick_p3
;
; if (++anim_frame_3 >= 3)
;
	inc     _anim_frame_3
	lda     _anim_frame_3
	cmp     #$03
	bcc     L2A6D
;
; anim_frame_3 = 0;
;
	lda     #$00
	sta     _anim_frame_3
;
; if (bee3_bigbee_timer > 0)
;
L2A6D:	lda     _bee3_bigbee_timer
	jeq     L2A73
;
; if (bee3_bigbee_timer < BIGBEE_FLICKER_START)
;
	cmp     #$04
	bcs     L2A70
;
; if ((frame_counter & 0x03) < 2 && winner == UNDEFINED_WINNER)
;
	lda     _frame_counter
	and     #$03
	cmp     #$02
	bcs     L2A70
	lda     _winner
	bne     L2A70
;
; return; // Skip drawing this frame
;
	rts
;
; if (BoxGuy3.direction == DIR_LEFT)
;
L2A70:	lda     _BoxGuy3+4
	cmp     #$02
	bne     L2A71
;
; switch (anim_frame_3)
;
	lda     _anim_frame_3
;
; }
;
	beq     L1B86
	cmp     #$01
	beq     L1B8C
	cmp     #$02
	beq     L1B92
	rts
;
; oam_meta_spr(temp_x, temp_y, gamesprites_bigbee2left0_data);
;
L1B86:	jsr     decsp2
	lda     _temp_x
	ldy     #$01
	sta     (sp),y
	lda     _temp_y
	dey
	sta     (sp),y
	lda     #<(_gamesprites_bigbee2left0_data)
	ldx     #>(_gamesprites_bigbee2left0_data)
	jmp     _oam_meta_spr
;
; oam_meta_spr(temp_x, temp_y, gamesprites_bigbee2left1_data);
;
L1B8C:	jsr     decsp2
	lda     _temp_x
	ldy     #$01
	sta     (sp),y
	lda     _temp_y
	dey
	sta     (sp),y
	lda     #<(_gamesprites_bigbee2left1_data)
	ldx     #>(_gamesprites_bigbee2left1_data)
	jmp     _oam_meta_spr
;
; oam_meta_spr(temp_x, temp_y, gamesprites_bigbee2left2_data);
;
L1B92:	jsr     decsp2
	lda     _temp_x
	ldy     #$01
	sta     (sp),y
	lda     _temp_y
	dey
	sta     (sp),y
	lda     #<(_gamesprites_bigbee2left2_data)
	ldx     #>(_gamesprites_bigbee2left2_data)
	jmp     _oam_meta_spr
;
; else if (BoxGuy3.direction == DIR_RIGHT)
;
L2A71:	lda     _BoxGuy3+4
	cmp     #$03
	bne     L2A72
;
; switch (anim_frame_3)
;
	lda     _anim_frame_3
;
; }
;
	beq     L1B9E
	cmp     #$01
	beq     L1BA4
	cmp     #$02
	beq     L1BAA
	rts
;
; oam_meta_spr(temp_x, temp_y, gamesprites_bigbee2right0_data);
;
L1B9E:	jsr     decsp2
	lda     _temp_x
	ldy     #$01
	sta     (sp),y
	lda     _temp_y
	dey
	sta     (sp),y
	lda     #<(_gamesprites_bigbee2right0_data)
	ldx     #>(_gamesprites_bigbee2right0_data)
	jmp     _oam_meta_spr
;
; oam_meta_spr(temp_x, temp_y, gamesprites_bigbee2right1_data);
;
L1BA4:	jsr     decsp2
	lda     _temp_x
	ldy     #$01
	sta     (sp),y
	lda     _temp_y
	dey
	sta     (sp),y
	lda     #<(_gamesprites_bigbee2right1_data)
	ldx     #>(_gamesprites_bigbee2right1_data)
	jmp     _oam_meta_spr
;
; oam_meta_spr(temp_x, temp_y, gamesprites_bigbee2right2_data);
;
L1BAA:	jsr     decsp2
	lda     _temp_x
	ldy     #$01
	sta     (sp),y
	lda     _temp_y
	dey
	sta     (sp),y
	lda     #<(_gamesprites_bigbee2right2_data)
	ldx     #>(_gamesprites_bigbee2right2_data)
	jmp     _oam_meta_spr
;
; switch (anim_frame_3)
;
L2A72:	lda     _anim_frame_3
;
; }
;
	beq     L1BB4
	cmp     #$01
	beq     L1BBA
	cmp     #$02
	beq     L1BC0
	rts
;
; oam_meta_spr(temp_x, temp_y, gamesprites_bigbee2left0_data);
;
L1BB4:	jsr     decsp2
	lda     _temp_x
	ldy     #$01
	sta     (sp),y
	lda     _temp_y
	dey
	sta     (sp),y
	lda     #<(_gamesprites_bigbee2left0_data)
	ldx     #>(_gamesprites_bigbee2left0_data)
	jmp     _oam_meta_spr
;
; oam_meta_spr(temp_x, temp_y, gamesprites_bigbee2left1_data);
;
L1BBA:	jsr     decsp2
	lda     _temp_x
	ldy     #$01
	sta     (sp),y
	lda     _temp_y
	dey
	sta     (sp),y
	lda     #<(_gamesprites_bigbee2left1_data)
	ldx     #>(_gamesprites_bigbee2left1_data)
	jmp     _oam_meta_spr
;
; oam_meta_spr(temp_x, temp_y, gamesprites_bigbee2left2_data);
;
L1BC0:	jsr     decsp2
	lda     _temp_x
	ldy     #$01
	sta     (sp),y
	lda     _temp_y
	dey
	sta     (sp),y
	lda     #<(_gamesprites_bigbee2left2_data)
	ldx     #>(_gamesprites_bigbee2left2_data)
	jmp     _oam_meta_spr
;
; if (BoxGuy3.direction == DIR_LEFT)
;
L2A73:	lda     _BoxGuy3+4
	cmp     #$02
	bne     L2A74
;
; switch (anim_frame_3)
;
	lda     _anim_frame_3
;
; }
;
	beq     L1BCC
	cmp     #$01
	beq     L1BD2
	cmp     #$02
	beq     L1BD8
	rts
;
; oam_meta_spr(temp_x, temp_y, gamesprites_smallbee2left0_data);
;
L1BCC:	jsr     decsp2
	lda     _temp_x
	ldy     #$01
	sta     (sp),y
	lda     _temp_y
	dey
	sta     (sp),y
	lda     #<(_gamesprites_smallbee2left0_data)
	ldx     #>(_gamesprites_smallbee2left0_data)
	jmp     _oam_meta_spr
;
; oam_meta_spr(temp_x, temp_y, gamesprites_smallbee2left1_data);
;
L1BD2:	jsr     decsp2
	lda     _temp_x
	ldy     #$01
	sta     (sp),y
	lda     _temp_y
	dey
	sta     (sp),y
	lda     #<(_gamesprites_smallbee2left1_data)
	ldx     #>(_gamesprites_smallbee2left1_data)
	jmp     _oam_meta_spr
;
; oam_meta_spr(temp_x, temp_y, gamesprites_smallbee2left2_data);
;
L1BD8:	jsr     decsp2
	lda     _temp_x
	ldy     #$01
	sta     (sp),y
	lda     _temp_y
	dey
	sta     (sp),y
	lda     #<(_gamesprites_smallbee2left2_data)
	ldx     #>(_gamesprites_smallbee2left2_data)
	jmp     _oam_meta_spr
;
; else if (BoxGuy3.direction == DIR_RIGHT)
;
L2A74:	lda     _BoxGuy3+4
	cmp     #$03
	bne     L2A75
;
; switch (anim_frame_3)
;
	lda     _anim_frame_3
;
; }
;
	beq     L1BE4
	cmp     #$01
	beq     L1BEA
	cmp     #$02
	beq     L1BF0
	rts
;
; oam_meta_spr(temp_x, temp_y, gamesprites_smallbee2right0_data);
;
L1BE4:	jsr     decsp2
	lda     _temp_x
	ldy     #$01
	sta     (sp),y
	lda     _temp_y
	dey
	sta     (sp),y
	lda     #<(_gamesprites_smallbee2right0_data)
	ldx     #>(_gamesprites_smallbee2right0_data)
	jmp     _oam_meta_spr
;
; oam_meta_spr(temp_x, temp_y, gamesprites_smallbee2right1_data);
;
L1BEA:	jsr     decsp2
	lda     _temp_x
	ldy     #$01
	sta     (sp),y
	lda     _temp_y
	dey
	sta     (sp),y
	lda     #<(_gamesprites_smallbee2right1_data)
	ldx     #>(_gamesprites_smallbee2right1_data)
	jmp     _oam_meta_spr
;
; oam_meta_spr(temp_x, temp_y, gamesprites_smallbee2right2_data);
;
L1BF0:	jsr     decsp2
	lda     _temp_x
	ldy     #$01
	sta     (sp),y
	lda     _temp_y
	dey
	sta     (sp),y
	lda     #<(_gamesprites_smallbee2right2_data)
	ldx     #>(_gamesprites_smallbee2right2_data)
	jmp     _oam_meta_spr
;
; switch (anim_frame_3)
;
L2A75:	lda     _anim_frame_3
;
; }
;
	beq     L1BFA
	cmp     #$01
	beq     L1C00
	cmp     #$02
	beq     L1C06
	rts
;
; oam_meta_spr(temp_x, temp_y, gamesprites_smallbee2left0_data);
;
L1BFA:	jsr     decsp2
	lda     _temp_x
	ldy     #$01
	sta     (sp),y
	lda     _temp_y
	dey
	sta     (sp),y
	lda     #<(_gamesprites_smallbee2left0_data)
	ldx     #>(_gamesprites_smallbee2left0_data)
	jmp     _oam_meta_spr
;
; oam_meta_spr(temp_x, temp_y, gamesprites_smallbee2left1_data);
;
L1C00:	jsr     decsp2
	lda     _temp_x
	ldy     #$01
	sta     (sp),y
	lda     _temp_y
	dey
	sta     (sp),y
	lda     #<(_gamesprites_smallbee2left1_data)
	ldx     #>(_gamesprites_smallbee2left1_data)
	jmp     _oam_meta_spr
;
; oam_meta_spr(temp_x, temp_y, gamesprites_smallbee2left2_data);
;
L1C06:	jsr     decsp2
	lda     _temp_x
	ldy     #$01
	sta     (sp),y
	lda     _temp_y
	dey
	sta     (sp),y
	lda     #<(_gamesprites_smallbee2left2_data)
	ldx     #>(_gamesprites_smallbee2left2_data)
	jmp     _oam_meta_spr

.endproc

; ---------------------------------------------------------------
; void __near__ draw_player_4 (void)
; ---------------------------------------------------------------

.segment	"CODE"

.proc	_draw_player_4: near

.segment	"CODE"

;
; temp_x = BoxGuy4.x >> 8;
;
	lda     _BoxGuy4+1
	sta     _temp_x
;
; temp_y = BoxGuy4.y >> 8;
;
	lda     _BoxGuy4+3
	sta     _temp_y
;
; if (winner == ONETWO_WINNER)
;
	lda     _winner
	cmp     #$01
	bne     L2A77
;
; if (BoxGuy4.direction == DIR_LEFT)
;
	lda     _BoxGuy4+4
	cmp     #$02
	bne     L1C18
;
; oam_meta_spr(temp_x, temp_y, gamesprites_smallduck2left0_data);
;
	jsr     decsp2
	lda     _temp_x
	ldy     #$01
	sta     (sp),y
	lda     _temp_y
	dey
	sta     (sp),y
	lda     #<(_gamesprites_smallduck2left0_data)
	ldx     #>(_gamesprites_smallduck2left0_data)
	jmp     _oam_meta_spr
;
; oam_meta_spr(temp_x, temp_y, gamesprites_smallduck2right0_data);
;
L1C18:	jsr     decsp2
	lda     _temp_x
	ldy     #$01
	sta     (sp),y
	lda     _temp_y
	dey
	sta     (sp),y
	lda     #<(_gamesprites_smallduck2right0_data)
	ldx     #>(_gamesprites_smallduck2right0_data)
	jmp     _oam_meta_spr
;
; if (stun_p4 > 0 && (frame_counter & 0x01) == 0 && winner == UNDEFINED_WINNER)
;
L2A77:	lda     _stun_p4
	beq     L1C23
	lda     _frame_counter
	and     #$01
	bne     L1C23
	lda     _winner
	bne     L1C23
;
; return; // flash when stunned
;
	rts
;
; if (BoxGuy4.moving)
;
L1C23:	lda     _BoxGuy4+5
	beq     L2A7B
;
; if (++anim_tick_p4 >= 10)
;
	inc     _anim_tick_p4
	lda     _anim_tick_p4
	cmp     #$0A
	bcc     L2A7B
;
; anim_tick_p4 = 0;
;
	lda     #$00
	sta     _anim_tick_p4
;
; if (++anim_frame_4 >= 3)
;
	inc     _anim_frame_4
	lda     _anim_frame_4
	cmp     #$03
	bcc     L2A7B
;
; anim_frame_4 = 0;
;
	lda     #$00
	sta     _anim_frame_4
;
; if (BoxGuy4.direction == DIR_LEFT)
;
L2A7B:	lda     _BoxGuy4+4
	cmp     #$02
	bne     L2A7C
;
; switch (anim_frame_4)
;
	lda     _anim_frame_4
;
; }
;
	beq     L1C39
	cmp     #$01
	beq     L1C3F
	cmp     #$02
	beq     L1C45
	rts
;
; oam_meta_spr(temp_x, temp_y, gamesprites_smallduck2left0_data);
;
L1C39:	jsr     decsp2
	lda     _temp_x
	ldy     #$01
	sta     (sp),y
	lda     _temp_y
	dey
	sta     (sp),y
	lda     #<(_gamesprites_smallduck2left0_data)
	ldx     #>(_gamesprites_smallduck2left0_data)
	jmp     _oam_meta_spr
;
; oam_meta_spr(temp_x, temp_y, gamesprites_smallduck2left1_data);
;
L1C3F:	jsr     decsp2
	lda     _temp_x
	ldy     #$01
	sta     (sp),y
	lda     _temp_y
	dey
	sta     (sp),y
	lda     #<(_gamesprites_smallduck2left1_data)
	ldx     #>(_gamesprites_smallduck2left1_data)
	jmp     _oam_meta_spr
;
; oam_meta_spr(temp_x, temp_y, gamesprites_smallduck2left2_data);
;
L1C45:	jsr     decsp2
	lda     _temp_x
	ldy     #$01
	sta     (sp),y
	lda     _temp_y
	dey
	sta     (sp),y
	lda     #<(_gamesprites_smallduck2left2_data)
	ldx     #>(_gamesprites_smallduck2left2_data)
	jmp     _oam_meta_spr
;
; else if (BoxGuy4.direction == DIR_RIGHT)
;
L2A7C:	lda     _BoxGuy4+4
	cmp     #$03
	bne     L2A7D
;
; switch (anim_frame_4)
;
	lda     _anim_frame_4
;
; }
;
	beq     L1C51
	cmp     #$01
	beq     L1C57
	cmp     #$02
	beq     L1C5D
	rts
;
; oam_meta_spr(temp_x, temp_y, gamesprites_smallduck2right0_data);
;
L1C51:	jsr     decsp2
	lda     _temp_x
	ldy     #$01
	sta     (sp),y
	lda     _temp_y
	dey
	sta     (sp),y
	lda     #<(_gamesprites_smallduck2right0_data)
	ldx     #>(_gamesprites_smallduck2right0_data)
	jmp     _oam_meta_spr
;
; oam_meta_spr(temp_x, temp_y, gamesprites_smallduck2right1_data);
;
L1C57:	jsr     decsp2
	lda     _temp_x
	ldy     #$01
	sta     (sp),y
	lda     _temp_y
	dey
	sta     (sp),y
	lda     #<(_gamesprites_smallduck2right1_data)
	ldx     #>(_gamesprites_smallduck2right1_data)
	jmp     _oam_meta_spr
;
; oam_meta_spr(temp_x, temp_y, gamesprites_smallduck2right2_data);
;
L1C5D:	jsr     decsp2
	lda     _temp_x
	ldy     #$01
	sta     (sp),y
	lda     _temp_y
	dey
	sta     (sp),y
	lda     #<(_gamesprites_smallduck2right2_data)
	ldx     #>(_gamesprites_smallduck2right2_data)
	jmp     _oam_meta_spr
;
; switch (anim_frame_4)
;
L2A7D:	lda     _anim_frame_4
;
; }
;
	beq     L1C67
	cmp     #$01
	beq     L1C6D
	cmp     #$02
	beq     L1C73
	rts
;
; oam_meta_spr(temp_x, temp_y, gamesprites_smallduck2left0_data);
;
L1C67:	jsr     decsp2
	lda     _temp_x
	ldy     #$01
	sta     (sp),y
	lda     _temp_y
	dey
	sta     (sp),y
	lda     #<(_gamesprites_smallduck2left0_data)
	ldx     #>(_gamesprites_smallduck2left0_data)
	jmp     _oam_meta_spr
;
; oam_meta_spr(temp_x, temp_y, gamesprites_smallduck2left1_data);
;
L1C6D:	jsr     decsp2
	lda     _temp_x
	ldy     #$01
	sta     (sp),y
	lda     _temp_y
	dey
	sta     (sp),y
	lda     #<(_gamesprites_smallduck2left1_data)
	ldx     #>(_gamesprites_smallduck2left1_data)
	jmp     _oam_meta_spr
;
; oam_meta_spr(temp_x, temp_y, gamesprites_smallduck2left2_data);
;
L1C73:	jsr     decsp2
	lda     _temp_x
	ldy     #$01
	sta     (sp),y
	lda     _temp_y
	dey
	sta     (sp),y
	lda     #<(_gamesprites_smallduck2left2_data)
	ldx     #>(_gamesprites_smallduck2left2_data)
	jmp     _oam_meta_spr

.endproc

; ---------------------------------------------------------------
; void __near__ movement (void)
; ---------------------------------------------------------------

.segment	"CODE"

.proc	_movement: near

.segment	"CODE"

;
; collision = 0;
;
	lda     #$00
	sta     _collision
;
; GenericBoxGuy.collision = 0;
;
	sta     _GenericBoxGuy+6
;
; if ((current_player == 1 && stun_p1 > 0) ||
;
	lda     _current_player
	cmp     #$01
	bne     L2A8F
	lda     _stun_p1
	bne     L2A9C
;
; (current_player == 2 && stun_p2 > 0) ||
;
L2A8F:	lda     _current_player
	cmp     #$02
	bne     L2A92
	lda     _stun_p2
	bne     L2A9C
;
; (current_player == 3 && stun_p3 > 0) ||
;
L2A92:	lda     _current_player
	cmp     #$03
	bne     L2A95
	lda     _stun_p3
	bne     L2A9C
;
; (current_player == 4 && stun_p4 > 0))
;
L2A95:	lda     _current_player
	cmp     #$04
	bne     L1E96
	lda     _stun_p4
	beq     L1E96
;
; switch (current_player)
;
L2A9C:	lda     _current_player
;
; }
;
	cmp     #$01
	beq     L1EA9
	cmp     #$02
	beq     L1EAD
	cmp     #$03
	beq     L1EB1
	cmp     #$04
	beq     L1EB5
	rts
;
; BoxGuy1 = GenericBoxGuy;
;
L1EA9:	lda     #<(_BoxGuy1)
	ldx     #>(_BoxGuy1)
	jsr     pushax
	lda     #<(_GenericBoxGuy)
	ldx     #>(_GenericBoxGuy)
	jsr     pushax
	ldx     #$00
	lda     #$07
	jmp     _memcpy
;
; BoxGuy2 = GenericBoxGuy;
;
L1EAD:	lda     #<(_BoxGuy2)
	ldx     #>(_BoxGuy2)
	jsr     pushax
	lda     #<(_GenericBoxGuy)
	ldx     #>(_GenericBoxGuy)
	jsr     pushax
	ldx     #$00
	lda     #$07
	jmp     _memcpy
;
; BoxGuy3 = GenericBoxGuy;
;
L1EB1:	lda     #<(_BoxGuy3)
	ldx     #>(_BoxGuy3)
	jsr     pushax
	lda     #<(_GenericBoxGuy)
	ldx     #>(_GenericBoxGuy)
	jsr     pushax
	ldx     #$00
	lda     #$07
	jmp     _memcpy
;
; BoxGuy4 = GenericBoxGuy;
;
L1EB5:	lda     #<(_BoxGuy4)
	ldx     #>(_BoxGuy4)
	jsr     pushax
	lda     #<(_GenericBoxGuy)
	ldx     #>(_GenericBoxGuy)
	jsr     pushax
	ldx     #$00
	lda     #$07
	jmp     _memcpy
;
; old_x = GenericBoxGuy.x;
;
L1E96:	lda     _GenericBoxGuy+1
	sta     _old_x+1
	lda     _GenericBoxGuy
	sta     _old_x
;
; if (generic_pad & PAD_B)
;
	lda     _generic_pad
	and     #$40
	jeq     L2AA9
;
; if (current_player == 2 && quack2.moving == 0 && quack2_cooldown == 0)
;
	lda     _current_player
	cmp     #$02
	jne     L2AA3
	lda     _quack2+5
	jne     L2AA3
	lda     _quack2_cooldown
	jne     L2AA3
;
; quack2.x = GenericBoxGuy.x;
;
	lda     _GenericBoxGuy+1
	sta     _quack2+1
	lda     _GenericBoxGuy
	sta     _quack2
;
; quack2.y = GenericBoxGuy.y;
;
	lda     _GenericBoxGuy+2+1
	sta     _quack2+2+1
	lda     _GenericBoxGuy+2
	sta     _quack2+2
;
; quack2.direction = GenericBoxGuy.direction;
;
	lda     _GenericBoxGuy+4
	sta     _quack2+4
;
; quack2_cooldown = QUACK_COOLDOWN;
;
	lda     #$05
	sta     _quack2_cooldown
;
; if (quack2.direction == DIR_LEFT)
;
	lda     _quack2+4
	cmp     #$02
	bne     L2A9F
;
; quack2.x -= 0x0800; // move it 1 block to the left;
;
	lda     _quack2
	sec
	sbc     #$00
	sta     _quack2
	lda     _quack2+1
	sbc     #$08
	sta     _quack2+1
;
; else if (quack2.direction == DIR_RIGHT)
;
	jmp     L2AA2
L2A9F:	lda     _quack2+4
	cmp     #$03
	bne     L2AA0
;
; quack2.x += 0x0800;
;
	lda     #$00
	clc
	adc     _quack2
	sta     _quack2
	lda     #$08
	adc     _quack2+1
	sta     _quack2+1
;
; else if (quack2.direction == DIR_UP)
;
	jmp     L2AA2
L2AA0:	lda     _quack2+4
	bne     L2AA1
;
; quack2.y -= 0x0800;
;
	lda     _quack2+2
	sec
	sbc     #$00
	sta     _quack2+2
	lda     _quack2+2+1
	sbc     #$08
;
; else if (quack2.direction == DIR_DOWN)
;
	jmp     L2ADE
L2AA1:	lda     _quack2+4
	cmp     #$01
	bne     L2AA2
;
; quack2.y += 0x0800;
;
	lda     #$00
	clc
	adc     _quack2+2
	sta     _quack2+2
	lda     #$08
	adc     _quack2+2+1
L2ADE:	sta     _quack2+2+1
;
; quack2.moving = 1;
;
L2AA2:	lda     #$01
	sta     _quack2+5
;
; if (current_player == 4 && quack4.moving == 0 && quack4_cooldown == 0)
;
L2AA3:	lda     _current_player
	cmp     #$04
	jne     L2AA9
	lda     _quack4+5
	jne     L2AA9
	lda     _quack4_cooldown
	jne     L2AA9
;
; quack4.x = GenericBoxGuy.x;
;
	lda     _GenericBoxGuy+1
	sta     _quack4+1
	lda     _GenericBoxGuy
	sta     _quack4
;
; quack4.y = GenericBoxGuy.y;
;
	lda     _GenericBoxGuy+2+1
	sta     _quack4+2+1
	lda     _GenericBoxGuy+2
	sta     _quack4+2
;
; quack4.direction = GenericBoxGuy.direction;
;
	lda     _GenericBoxGuy+4
	sta     _quack4+4
;
; quack4.moving = 1;
;
	lda     #$01
	sta     _quack4+5
;
; quack4_cooldown = QUACK_COOLDOWN;
;
	lda     #$05
	sta     _quack4_cooldown
;
; if (quack4.direction == DIR_LEFT)
;
	lda     _quack4+4
	cmp     #$02
	bne     L2AA6
;
; quack4.x -= 0x0800; // move it 1 block to the left;
;
	lda     _quack4
	sec
	sbc     #$00
	sta     _quack4
	lda     _quack4+1
	sbc     #$08
	sta     _quack4+1
;
; else if (quack4.direction == DIR_RIGHT)
;
	jmp     L2AA9
L2AA6:	lda     _quack4+4
	cmp     #$03
	bne     L2AA7
;
; quack4.x += 0x0800;
;
	lda     #$00
	clc
	adc     _quack4
	sta     _quack4
	lda     #$08
	adc     _quack4+1
	sta     _quack4+1
;
; else if (quack4.direction == DIR_UP)
;
	jmp     L2AA9
L2AA7:	lda     _quack4+4
	bne     L2AA8
;
; quack4.y -= 0x0800;
;
	lda     _quack4+2
	sec
	sbc     #$00
	sta     _quack4+2
	lda     _quack4+2+1
	sbc     #$08
;
; else if (quack4.direction == DIR_DOWN)
;
	jmp     L2ADF
L2AA8:	lda     _quack4+4
	cmp     #$01
	bne     L2AA9
;
; quack4.y += 0x0800;
;
	lda     #$00
	clc
	adc     _quack4+2
	sta     _quack4+2
	lda     #$08
	adc     _quack4+2+1
L2ADF:	sta     _quack4+2+1
;
; if (generic_pad & PAD_A)
;
L2AA9:	lda     _generic_pad
	and     #$80
	beq     L1F13
;
; if ((current_player == 1 && turbo_p1 > 0 && bee1_bigbee_timer == 0) ||
;
	lda     _current_player
	cmp     #$01
	bne     L2AAD
	lda     _turbo_p1
	beq     L2AAD
	lda     _bee1_bigbee_timer
	beq     L2AE7
;
; (current_player == 2 && turbo_p2 > 0) ||
;
L2AAD:	lda     _current_player
	cmp     #$02
	bne     L2AB0
	lda     _turbo_p2
	bne     L2AE7
;
; (current_player == 3 && turbo_p3 > 0 && bee3_bigbee_timer == 0) ||
;
L2AB0:	lda     _current_player
	cmp     #$03
	bne     L2AB4
	lda     _turbo_p3
	beq     L2AB4
	lda     _bee3_bigbee_timer
	beq     L2AE7
;
; (current_player == 4 && turbo_p4 > 0))
;
L2AB4:	lda     _current_player
	cmp     #$04
	bne     L1F13
	lda     _turbo_p4
	beq     L1F13
L2AE7:	lda     #$01
;
; use_turbo = 1;
;
	sta     _use_turbo
;
; switch (current_player)
;
	lda     _current_player
;
; }
;
	cmp     #$01
	beq     L2ABD
	cmp     #$02
	beq     L2ABE
	cmp     #$03
	beq     L2ABF
	cmp     #$04
	beq     L2AC0
	jmp     L1F13
;
; turbo_p1--;
;
L2ABD:	dec     _turbo_p1
;
; break;
;
	jmp     L1F13
;
; turbo_p2--;
;
L2ABE:	dec     _turbo_p2
;
; break;
;
	jmp     L1F13
;
; turbo_p3--;
;
L2ABF:	dec     _turbo_p3
;
; break;
;
	jmp     L1F13
;
; turbo_p4--;
;
L2AC0:	dec     _turbo_p4
;
; if (ducks_go_faster_over_time)
;
L1F13:	lda     _ducks_go_faster_over_time
	beq     L1F20
;
; if (current_player == 2 || current_player == 4)
;
	lda     _current_player
	cmp     #$02
	beq     L2AC1
	cmp     #$04
	bne     L1F20
;
; current_speed = speed_option;
;
L2AC1:	lda     _speed_option+1
	sta     _current_speed+1
	lda     _speed_option
	sta     _current_speed
;
; if (game_timer > 80)
;
	lda     _game_timer
	cmp     #$51
	bcc     L2AC2
;
; current_speed -= DUCK_SPEED_LOW;
;
	lda     _current_speed
	sec
	sbc     #$14
	sta     _current_speed
	bcs     L1F40
	dec     _current_speed+1
;
; else if (game_timer > 20)
;
	jmp     L1F40
L2AC2:	lda     _game_timer
	cmp     #$15
;
; else if (game_timer > 10)
;
	bcs     L1F20
	cmp     #$0B
	bcc     L2AC4
;
; current_speed += DUCK_SPEED_HIGH;
;
	lda     #$14
	clc
	adc     _current_speed
	sta     _current_speed
	bcc     L1F40
	inc     _current_speed+1
;
; else if (game_timer > 0)
;
	jmp     L1F40
L2AC4:	lda     _game_timer
	beq     L1F40
;
; current_speed += DUCK_SPEED_MAX;
;
	lda     #$28
	clc
	adc     _current_speed
	sta     _current_speed
	bcc     L1F40
	inc     _current_speed+1
;
; else
;
	jmp     L1F40
;
; current_speed = speed_option; // feature disabled, all normal speed
;
L1F20:	lda     _speed_option+1
	sta     _current_speed+1
	lda     _speed_option
	sta     _current_speed
;
; if (bee1_bigbee_timer > 0 && current_player == 1)
;
L1F40:	lda     _bee1_bigbee_timer
	beq     L2AC9
	lda     _current_player
	cmp     #$01
	bne     L2AC9
;
; current_speed += (current_speed >> 2); // big bee boost
;
	lda     _current_speed
	ldx     _current_speed+1
	jsr     asrax2
	clc
	adc     _current_speed
	sta     _current_speed
	txa
	adc     _current_speed+1
	sta     _current_speed+1
;
; if (bee3_bigbee_timer > 0 && current_player == 3)
;
L2AC9:	lda     _bee3_bigbee_timer
	beq     L2ACD
	lda     _current_player
	cmp     #$03
	bne     L2ACD
;
; current_speed += (current_speed >> 2); // big bee boost
;
	lda     _current_speed
	ldx     _current_speed+1
	jsr     asrax2
	clc
	adc     _current_speed
	sta     _current_speed
	txa
	adc     _current_speed+1
	sta     _current_speed+1
;
; if (generic_pad & PAD_LEFT)
;
L2ACD:	lda     _generic_pad
	and     #$02
	beq     L2ACF
;
; hero_velocity_x = -current_speed;
;
	lda     _current_speed
	ldx     _current_speed+1
	jsr     negax
	sta     _hero_velocity_x
	stx     _hero_velocity_x+1
;
; if (use_turbo == 1)
;
	lda     _use_turbo
	cmp     #$01
	bne     L2ACE
;
; hero_velocity_x -= SPEED_TURBO_BOOST; // add turbo boost
;
	lda     _hero_velocity_x
	sec
	sbc     #$60
	sta     _hero_velocity_x
	bcs     L1F59
	dec     _hero_velocity_x+1
;
; use_turbo = 0;            // reset turbo flag
;
L1F59:	lda     #$00
	sta     _use_turbo
;
; GenericBoxGuy.direction = DIR_LEFT;
;
L2ACE:	lda     #$02
	sta     _GenericBoxGuy+4
;
; else if (generic_pad & PAD_RIGHT)
;
	jmp     L1F6C
L2ACF:	lda     _generic_pad
	and     #$01
	beq     L2AD2
;
; hero_velocity_x = current_speed;
;
	lda     _current_speed+1
	sta     _hero_velocity_x+1
	lda     _current_speed
	sta     _hero_velocity_x
;
; if (use_turbo == 1)
;
	lda     _use_turbo
	cmp     #$01
	bne     L2AD0
;
; hero_velocity_x += SPEED_TURBO_BOOST; // add turbo boost
;
	lda     #$60
	clc
	adc     _hero_velocity_x
	sta     _hero_velocity_x
	bcc     L1F67
	inc     _hero_velocity_x+1
;
; use_turbo = 0;            // reset turbo flag
;
L1F67:	lda     #$00
	sta     _use_turbo
;
; GenericBoxGuy.direction = DIR_RIGHT;
;
L2AD0:	lda     #$03
	sta     _GenericBoxGuy+4
;
; else
;
	jmp     L1F6C
;
; hero_velocity_x = 0;
;
L2AD2:	sta     _hero_velocity_x
	sta     _hero_velocity_x+1
;
; GenericBoxGuy.x += hero_velocity_x;
;
L1F6C:	lda     _hero_velocity_x
	clc
	adc     _GenericBoxGuy
	sta     _GenericBoxGuy
	lda     _hero_velocity_x+1
	adc     _GenericBoxGuy+1
	sta     _GenericBoxGuy+1
;
; if (GenericBoxGuy.x > 0xf000)
;
	lda     _GenericBoxGuy
	cmp     #$01
	lda     _GenericBoxGuy+1
	sbc     #$F0
	bcc     L2AD5
;
; if (old_x >= 0x8000)
;
	lda     _old_x
	cmp     #$00
	lda     _old_x+1
	sbc     #$80
	lda     #$00
	tax
	bcc     L2AD4
;
; GenericBoxGuy.x = 0xf000; // max right
;
	ldx     #$F0
;
; GenericBoxGuy.x = 0x0000; // max left
;
L2AD4:	sta     _GenericBoxGuy
	stx     _GenericBoxGuy+1
;
; Generic.x = GenericBoxGuy.x >> 8; // the collision routine needs an 8 bit value
;
L2AD5:	lda     _GenericBoxGuy+1
	sta     _Generic
;
; Generic.y = GenericBoxGuy.y >> 8;
;
	lda     _GenericBoxGuy+3
	sta     _Generic+1
;
; Generic.width = HERO_WIDTH;
;
	lda     #$06
	sta     _Generic+2
;
; Generic.height = HERO_HEIGHT;
;
	sta     _Generic+3
;
; if (hero_velocity_x < 0)
;
	ldx     _hero_velocity_x+1
	cpx     #$80
	bcc     L1F82
;
; if (bg_coll_L())
;
	jsr     _bg_coll_L
;
; else if (hero_velocity_x > 0)
;
	jmp     L2AF4
L1F82:	lda     _hero_velocity_x
	cmp     #$01
	lda     _hero_velocity_x+1
	sbc     #$00
	bvs     L1F8F
	eor     #$80
L1F8F:	bpl     L1F90
;
; if (bg_coll_R())
;
	jsr     _bg_coll_R
L2AF4:	tax
	beq     L1F90
;
; GenericBoxGuy.x = old_x; // revert to old position
;
	lda     _old_x+1
	sta     _GenericBoxGuy+1
	lda     _old_x
	sta     _GenericBoxGuy
;
; collision = 1;
;
	lda     #$01
	sta     _collision
;
; GenericBoxGuy.collision = 1;
;
	sta     _GenericBoxGuy+6
;
; old_y = GenericBoxGuy.y;
;
L1F90:	lda     _GenericBoxGuy+2+1
	sta     _old_y+1
	lda     _GenericBoxGuy+2
	sta     _old_y
;
; if (generic_pad & PAD_UP)
;
	lda     _generic_pad
	and     #$08
	beq     L2AD7
;
; hero_velocity_y = -current_speed;
;
	lda     _current_speed
	ldx     _current_speed+1
	jsr     negax
	sta     _hero_velocity_y
	stx     _hero_velocity_y+1
;
; if (use_turbo == 1)
;
	lda     _use_turbo
	cmp     #$01
	bne     L2AD6
;
; hero_velocity_y -= SPEED_TURBO_BOOST; // add turbo boost
;
	lda     _hero_velocity_y
	sec
	sbc     #$60
	sta     _hero_velocity_y
	bcs     L1FA2
	dec     _hero_velocity_y+1
;
; use_turbo = 0;            // reset turbo flag
;
L1FA2:	lda     #$00
	sta     _use_turbo
;
; GenericBoxGuy.direction = DIR_UP; // entually we'll set up and down but not now.
;
L2AD6:	lda     #$00
	sta     _GenericBoxGuy+4
;
; else if (generic_pad & PAD_DOWN)
;
	jmp     L1FB5
L2AD7:	lda     _generic_pad
	and     #$04
	beq     L2ADA
;
; hero_velocity_y = current_speed;
;
	lda     _current_speed+1
	sta     _hero_velocity_y+1
	lda     _current_speed
	sta     _hero_velocity_y
;
; if (use_turbo == 1)
;
	lda     _use_turbo
	cmp     #$01
	bne     L2AD8
;
; hero_velocity_y += SPEED_TURBO_BOOST; // add turbo boost
;
	lda     #$60
	clc
	adc     _hero_velocity_y
	sta     _hero_velocity_y
	bcc     L1FB0
	inc     _hero_velocity_y+1
;
; use_turbo = 0;            // reset turbo flag
;
L1FB0:	lda     #$00
	sta     _use_turbo
;
; GenericBoxGuy.direction = DIR_DOWN;
;
L2AD8:	lda     #$01
	sta     _GenericBoxGuy+4
;
; else
;
	jmp     L1FB5
;
; hero_velocity_y = 0;
;
L2ADA:	sta     _hero_velocity_y
	sta     _hero_velocity_y+1
;
; GenericBoxGuy.y += hero_velocity_y;
;
L1FB5:	lda     _hero_velocity_y
	clc
	adc     _GenericBoxGuy+2
	sta     _GenericBoxGuy+2
	lda     _hero_velocity_y+1
	adc     _GenericBoxGuy+2+1
	sta     _GenericBoxGuy+2+1
;
; if (GenericBoxGuy.y > 0xe000)
;
	lda     _GenericBoxGuy+2
	cmp     #$01
	lda     _GenericBoxGuy+2+1
	sbc     #$E0
	bcc     L2ADD
;
; if (old_y >= 0x8000)
;
	lda     _old_y
	cmp     #$00
	lda     _old_y+1
	sbc     #$80
	lda     #$00
	tax
	bcc     L2ADC
;
; GenericBoxGuy.y = 0xe000; // max down
;
	ldx     #$E0
;
; GenericBoxGuy.y = 0x0000; // max up
;
L2ADC:	sta     _GenericBoxGuy+2
	stx     _GenericBoxGuy+2+1
;
; Generic.x = GenericBoxGuy.x >> 8; // the collision routine needs an 8 bit value
;
L2ADD:	lda     _GenericBoxGuy+1
	sta     _Generic
;
; Generic.y = GenericBoxGuy.y >> 8;
;
	lda     _GenericBoxGuy+3
	sta     _Generic+1
;
; if (hero_velocity_y < 0)
;
	ldx     _hero_velocity_y+1
	cpx     #$80
	bcc     L1FC7
;
; if (bg_coll_U())
;
	jsr     _bg_coll_U
;
; else if (hero_velocity_y > 0)
;
	jmp     L2AF5
L1FC7:	lda     _hero_velocity_y
	cmp     #$01
	lda     _hero_velocity_y+1
	sbc     #$00
	bvs     L1FD4
	eor     #$80
L1FD4:	bpl     L1FD5
;
; if (bg_coll_D())
;
	jsr     _bg_coll_D
L2AF5:	tax
	beq     L1FD5
;
; GenericBoxGuy.y = old_y; // revert to old position
;
	lda     _old_y+1
	sta     _GenericBoxGuy+2+1
	lda     _old_y
	sta     _GenericBoxGuy+2
;
; collision = 1;
;
	lda     #$01
	sta     _collision
;
; GenericBoxGuy.collision = 1;
;
	sta     _GenericBoxGuy+6
;
; check_tile_and_collect();
;
L1FD5:	jsr     _check_tile_and_collect
;
; switch (current_player)
;
	lda     _current_player
;
; }
;
	cmp     #$01
	beq     L1FE2
	cmp     #$02
	beq     L1FE6
	cmp     #$03
	beq     L1FEA
	cmp     #$04
	beq     L1FEE
	rts
;
; BoxGuy1 = GenericBoxGuy;
;
L1FE2:	lda     #<(_BoxGuy1)
	ldx     #>(_BoxGuy1)
	jsr     pushax
	lda     #<(_GenericBoxGuy)
	ldx     #>(_GenericBoxGuy)
	jsr     pushax
	ldx     #$00
	lda     #$07
	jmp     _memcpy
;
; BoxGuy2 = GenericBoxGuy;
;
L1FE6:	lda     #<(_BoxGuy2)
	ldx     #>(_BoxGuy2)
	jsr     pushax
	lda     #<(_GenericBoxGuy)
	ldx     #>(_GenericBoxGuy)
	jsr     pushax
	ldx     #$00
	lda     #$07
	jmp     _memcpy
;
; BoxGuy3 = GenericBoxGuy;
;
L1FEA:	lda     #<(_BoxGuy3)
	ldx     #>(_BoxGuy3)
	jsr     pushax
	lda     #<(_GenericBoxGuy)
	ldx     #>(_GenericBoxGuy)
	jsr     pushax
	ldx     #$00
	lda     #$07
	jmp     _memcpy
;
; BoxGuy4 = GenericBoxGuy;
;
L1FEE:	lda     #<(_BoxGuy4)
	ldx     #>(_BoxGuy4)
	jsr     pushax
	lda     #<(_GenericBoxGuy)
	ldx     #>(_GenericBoxGuy)
	jsr     pushax
	ldx     #$00
	lda     #$07
	jmp     _memcpy

.endproc

; ---------------------------------------------------------------
; void __near__ check_tile_and_collect (void)
; ---------------------------------------------------------------

.segment	"CODE"

.proc	_check_tile_and_collect: near

.segment	"CODE"

;
; if (current_player != 1 && current_player != 3)
;
	ldx     #$00
	lda     _current_player
	cmp     #$01
	beq     L2AFB
	cmp     #$03
	beq     L2AFB
;
; return; // Chasers cannot collect dots
;
	rts
;
; temp_x = (Generic.x + 4) >> 3; // get this between 0-30
;
L2AFB:	lda     _Generic
	clc
	adc     #$04
	bcc     L207C
	inx
L207C:	jsr     shrax3
	sta     _temp_x
;
; temp_y = (Generic.y + 2) >> 3; // get this between 0-32
;
	ldx     #$00
	lda     _Generic+1
	clc
	adc     #$02
	bcc     L2080
	inx
L2080:	jsr     shrax3
	sta     _temp_y
;
; largeindex = (temp_y << 5) + temp_x;
;
	ldx     #$00
	lda     _temp_y
	jsr     aslax4
	stx     tmp1
	asl     a
	rol     tmp1
	ldx     tmp1
	clc
	adc     _temp_x
	bcc     L2AF6
	inx
L2AF6:	sta     _largeindex
	stx     _largeindex+1
;
; temp = map_ptr[largeindex];
;
	lda     _map_ptr
	clc
	adc     _largeindex
	sta     ptr1
	lda     _map_ptr+1
	adc     _largeindex+1
	sta     ptr1+1
	ldy     #$00
	lda     (ptr1),y
	sta     _temp
;
; for (index = 0; index < sizeof(pellet_tiles); index++)
;
	sty     _index
L2AFC:	lda     _index
	cmp     #$06
	bcc     L2AFE
;
; }
;
	rts
;
; if (temp == pellet_tiles[index])
;
L2AFE:	ldy     _index
	lda     _pellet_tiles,y
	cmp     _temp
	jne     L2090
;
; if (!is_dot_consumed(largeindex))
;
	lda     _largeindex
	ldx     _largeindex+1
	jsr     _is_dot_consumed
	tax
	beq     L2AFF
;
; }
;
	rts
;
; mark_dot_consumed(largeindex);
;
L2AFF:	lda     _largeindex
	ldx     _largeindex+1
	jsr     _mark_dot_consumed
;
; one_vram_buffer(0x00, NTADR_A(temp_x, temp_y)); // TODO: this is just a blank tile, not as fun as the updated backgrounds
;
	lda     #$00
	jsr     pusha
	tax
	lda     _temp_y
	jsr     aslax4
	stx     tmp1
	asl     a
	rol     tmp1
	sta     ptr1
	lda     _temp_x
	ora     ptr1
	pha
	lda     tmp1
	ora     #$20
	tax
	pla
	jsr     _one_vram_buffer
;
; if (current_player == 1)
;
	lda     _current_player
	cmp     #$01
	bne     L2AFD
;
; sfx_play(SFX_TEAM1_DOT_COLLECT, 0);
;
	lda     #$00
	jsr     pusha
	jsr     _sfx_play
;
; team1_score++;
;
	inc     _team1_score
;
; if (team1_score >= 100)
;
	lda     _team1_score
	cmp     #$64
	bcc     L20B8
;
; sfx_play(SFX_TEAM1_WIN, 0);
;
	lda     #$02
	jsr     pusha
	lda     #$00
	jsr     _sfx_play
;
; winner = ONETWO_WINNER;
;
	lda     #$01
	sta     _winner
;
; win_reason = WIN_HONEY_COLLECTED;
;
	lda     #$20
	sta     _win_reason
;
; init_roundover();
;
	jmp     _init_roundover
;
; else if (current_player == 3)
;
L2AFD:	lda     _current_player
	cmp     #$03
	bne     L2088
;
; sfx_play(SFX_TEAM2_DOT_COLLECT, 0);
;
	lda     #$01
	jsr     pusha
	lda     #$00
	jsr     _sfx_play
;
; team2_score++;
;
	inc     _team2_score
;
; if (team2_score >= 100)
;
	lda     _team2_score
	cmp     #$64
	bcc     L2088
;
; sfx_play(SFX_TEAM2_WIN, 0);
;
	lda     #$03
	jsr     pusha
	lda     #$00
	jsr     _sfx_play
;
; winner = THREEFOUR_WINNER;
;
	lda     #$02
	sta     _winner
;
; win_reason = WIN_HONEY_COLLECTED;
;
	lda     #$20
	sta     _win_reason
;
; init_roundover();
;
	jmp     _init_roundover
;
; break;
;
L20B8:	rts
;
; else if (temp == blank_tiles[index])
;
L2090:	ldy     _index
	lda     _blank_tiles,y
	cmp     _temp
;
; break;
;
	beq     L2088
;
; for (index = 0; index < sizeof(pellet_tiles); index++)
;
	inc     _index
	jmp     L2AFC
;
; }
;
L2088:	rts

.endproc

; ---------------------------------------------------------------
; void __near__ draw_hud (void)
; ---------------------------------------------------------------

.segment	"CODE"

.proc	_draw_hud: near

.segment	"CODE"

;
; write_two_digits(team1_score, 6, 7, 1, &last_team1_score);
;
	jsr     decsp4
	lda     _team1_score
	ldy     #$03
	sta     (sp),y
	lda     #$06
	dey
	sta     (sp),y
	lda     #$07
	dey
	sta     (sp),y
	tya
	dey
	sta     (sp),y
	lda     #<(_last_team1_score)
	ldx     #>(_last_team1_score)
	jsr     _write_two_digits
;
; write_two_digits(game_timer, 15, 16, 1, &last_game_timer);
;
	jsr     decsp4
	lda     _game_timer
	ldy     #$03
	sta     (sp),y
	lda     #$0F
	dey
	sta     (sp),y
	lda     #$10
	dey
	sta     (sp),y
	tya
	dey
	sta     (sp),y
	lda     #<(_last_game_timer)
	ldx     #>(_last_game_timer)
	jsr     _write_two_digits
;
; write_two_digits(team2_score, 24, 25, 1, &last_team2_score);
;
	jsr     decsp4
	lda     _team2_score
	ldy     #$03
	sta     (sp),y
	lda     #$18
	dey
	sta     (sp),y
	lda     #$19
	dey
	sta     (sp),y
	tya
	dey
	sta     (sp),y
	lda     #<(_last_team2_score)
	ldx     #>(_last_team2_score)
	jmp     _write_two_digits

.endproc

; ---------------------------------------------------------------
; void __near__ read_controllers (void)
; ---------------------------------------------------------------

.segment	"CODE"

.proc	_read_controllers: near

.segment	"CODE"

;
; if (four_score_present)
;
	lda     _four_score_present
	beq     L2B01
;
; doublepad = pad_poll_4score_1_3();
;
	jsr     _pad_poll_4score_1_3
	sta     _doublepad
	stx     _doublepad+1
;
; pad1 = high_byte(doublepad); // the high byte is the first controller's input
;
	lda     _doublepad+1
	sta     _pad1
;
; pad3 = low_byte(doublepad);  // low byte is the third controller's input
;
	lda     _doublepad
	sta     _pad3
;
; doublepad = pad_poll_4score_2_4();
;
	jsr     _pad_poll_4score_2_4
	sta     _doublepad
	stx     _doublepad+1
;
; pad2 = high_byte(doublepad);
;
	lda     _doublepad+1
	sta     _pad2
;
; pad4 = low_byte(doublepad);
;
	lda     _doublepad
	sta     _pad4
;
; else
;
	jmp     L2B03
;
; unsigned char raw1 = pad_poll(0);
;
L2B01:	jsr     _pad_poll
	jsr     pusha
;
; unsigned char raw2 = pad_poll(1);
;
	lda     #$01
	jsr     _pad_poll
	jsr     pusha
;
; if (game_mode == MODE_GAME)
;
	lda     _game_mode
	cmp     #$02
	jne     L218A
;
; pad1 = 0;
;
	lda     #$00
	sta     _pad1
;
; pad2 = 0;
;
	sta     _pad2
;
; pad3 = 0;
;
	sta     _pad3
;
; pad4 = 0;
;
	sta     _pad4
;
; switch (controller1_slot)
;
	lda     _controller1_slot
;
; }
;
	cmp     #$01
	beq     L2198
	cmp     #$02
	beq     L219C
	cmp     #$03
	beq     L21A0
	cmp     #$04
	beq     L21A4
	jmp     L2B02
;
; pad1 = raw1;
;
L2198:	tay
	lda     (sp),y
	sta     _pad1
;
; break;
;
	jmp     L2B02
;
; pad2 = raw1;
;
L219C:	ldy     #$01
	lda     (sp),y
	sta     _pad2
;
; break;
;
	jmp     L2B02
;
; pad3 = raw1;
;
L21A0:	ldy     #$01
	lda     (sp),y
	sta     _pad3
;
; break;
;
	jmp     L2B02
;
; pad4 = raw1;
;
L21A4:	ldy     #$01
	lda     (sp),y
	sta     _pad4
;
; switch (controller2_slot)
;
L2B02:	lda     _controller2_slot
;
; }
;
	cmp     #$01
	beq     L21AC
	cmp     #$02
	beq     L21B0
	cmp     #$03
	beq     L21B4
	cmp     #$04
	beq     L21B8
	jmp     L21BC
;
; pad1 = raw2;
;
L21AC:	ldy     #$00
	lda     (sp),y
	sta     _pad1
;
; break;
;
	jmp     L21BC
;
; pad2 = raw2;
;
L21B0:	ldy     #$00
	lda     (sp),y
	sta     _pad2
;
; break;
;
	jmp     L21BC
;
; pad3 = raw2;
;
L21B4:	ldy     #$00
	lda     (sp),y
	sta     _pad3
;
; break;
;
	jmp     L21BC
;
; pad4 = raw2;
;
L21B8:	ldy     #$00
	lda     (sp),y
;
; break;
;
	jmp     L2B00
;
; pad1 = raw1;
;
L218A:	ldy     #$01
	lda     (sp),y
	sta     _pad1
;
; pad2 = raw2;
;
	dey
	lda     (sp),y
	sta     _pad2
;
; pad3 = 0;
;
	tya
	sta     _pad3
;
; pad4 = 0;
;
L2B00:	sta     _pad4
;
; }
;
L21BC:	jsr     incsp2
;
; if (game_mode == MODE_GAME)
;
L2B03:	lda     _game_mode
	cmp     #$02
	bne     L2B04
;
; if (use_ai_player_1)
;
	lda     _use_ai_player_1
	beq     L21C7
;
; player1_ai();
;
	jsr     _player1_ai
;
; if (use_ai_player_2)
;
L21C7:	lda     _use_ai_player_2
	beq     L21CA
;
; player2_ai();
;
	jsr     _player2_ai
;
; if (use_ai_player_3)
;
L21CA:	lda     _use_ai_player_3
	beq     L21CD
;
; player3_ai();
;
	jsr     _player3_ai
;
; if (use_ai_player_4)
;
L21CD:	lda     _use_ai_player_4
	beq     L2B04
;
; player4_ai();
;
	jsr     _player4_ai
;
; pad1_new = pad1 & (pad1 ^ prev_pad1);
;
L2B04:	lda     _prev_pad1
	eor     _pad1
	and     _pad1
	sta     _pad1_new
;
; pad2_new = pad2 & (pad2 ^ prev_pad2);
;
	lda     _prev_pad2
	eor     _pad2
	and     _pad2
	sta     _pad2_new
;
; pad3_new = pad3 & (pad3 ^ prev_pad3);
;
	lda     _prev_pad3
	eor     _pad3
	and     _pad3
	sta     _pad3_new
;
; pad4_new = pad4 & (pad4 ^ prev_pad4);
;
	lda     _prev_pad4
	eor     _pad4
	and     _pad4
	sta     _pad4_new
;
; prev_pad1 = pad1;
;
	lda     _pad1
	sta     _prev_pad1
;
; prev_pad2 = pad2;
;
	lda     _pad2
	sta     _prev_pad2
;
; prev_pad3 = pad3;
;
	lda     _pad3
	sta     _prev_pad3
;
; prev_pad4 = pad4;
;
	lda     _pad4
	sta     _prev_pad4
;
; }
;
	rts

.endproc

; ---------------------------------------------------------------
; void __near__ player1_ai (void)
; ---------------------------------------------------------------

.segment	"CODE"

.proc	_player1_ai: near

.segment	"CODE"

;
; ai_timer_work = ai_timer_p1;
;
	lda     _ai_timer_p1
	sta     _ai_timer_work
;
; ai_dir_work = ai_dir_p1;
;
	lda     _ai_dir_p1
	sta     _ai_dir_work
;
; ai_collision_work = BoxGuy1.collision;
;
	lda     _BoxGuy1+6
	sta     _ai_collision_work
;
; ai_update();
;
	jsr     _ai_update
;
; ai_timer_p1 = ai_timer_work;
;
	lda     _ai_timer_work
	sta     _ai_timer_p1
;
; ai_dir_p1 = ai_dir_work;
;
	lda     _ai_dir_work
	sta     _ai_dir_p1
;
; ai_dir_to_pad();
;
	jsr     _ai_dir_to_pad
;
; pad1 = ai_pad_work;
;
	lda     _ai_pad_work
	sta     _pad1
;
; }
;
	rts

.endproc

; ---------------------------------------------------------------
; void __near__ player2_ai (void)
; ---------------------------------------------------------------

.segment	"CODE"

.proc	_player2_ai: near

.segment	"CODE"

;
; ai_timer_work = ai_timer_p2;
;
	lda     _ai_timer_p2
	sta     _ai_timer_work
;
; ai_dir_work = ai_dir_p2;
;
	lda     _ai_dir_p2
	sta     _ai_dir_work
;
; ai_collision_work = BoxGuy2.collision;
;
	lda     _BoxGuy2+6
	sta     _ai_collision_work
;
; ai_update();
;
	jsr     _ai_update
;
; ai_timer_p2 = ai_timer_work;
;
	lda     _ai_timer_work
	sta     _ai_timer_p2
;
; ai_dir_p2 = ai_dir_work;
;
	lda     _ai_dir_work
	sta     _ai_dir_p2
;
; ai_dir_to_pad();
;
	jsr     _ai_dir_to_pad
;
; pad2 = ai_pad_work;
;
	lda     _ai_pad_work
	sta     _pad2
;
; }
;
	rts

.endproc

; ---------------------------------------------------------------
; void __near__ player3_ai (void)
; ---------------------------------------------------------------

.segment	"CODE"

.proc	_player3_ai: near

.segment	"CODE"

;
; ai_timer_work = ai_timer_p3;
;
	lda     _ai_timer_p3
	sta     _ai_timer_work
;
; ai_dir_work = ai_dir_p3;
;
	lda     _ai_dir_p3
	sta     _ai_dir_work
;
; ai_collision_work = BoxGuy3.collision;
;
	lda     _BoxGuy3+6
	sta     _ai_collision_work
;
; ai_update();
;
	jsr     _ai_update
;
; ai_timer_p3 = ai_timer_work;
;
	lda     _ai_timer_work
	sta     _ai_timer_p3
;
; ai_dir_p3 = ai_dir_work;
;
	lda     _ai_dir_work
	sta     _ai_dir_p3
;
; ai_dir_to_pad();
;
	jsr     _ai_dir_to_pad
;
; pad3 = ai_pad_work;
;
	lda     _ai_pad_work
	sta     _pad3
;
; }
;
	rts

.endproc

; ---------------------------------------------------------------
; void __near__ player4_ai (void)
; ---------------------------------------------------------------

.segment	"CODE"

.proc	_player4_ai: near

.segment	"CODE"

;
; ai_timer_work = ai_timer_p4;
;
	lda     _ai_timer_p4
	sta     _ai_timer_work
;
; ai_dir_work = ai_dir_p4;
;
	lda     _ai_dir_p4
	sta     _ai_dir_work
;
; ai_collision_work = BoxGuy4.collision;
;
	lda     _BoxGuy4+6
	sta     _ai_collision_work
;
; ai_update();
;
	jsr     _ai_update
;
; ai_timer_p4 = ai_timer_work;
;
	lda     _ai_timer_work
	sta     _ai_timer_p4
;
; ai_dir_p4 = ai_dir_work;
;
	lda     _ai_dir_work
	sta     _ai_dir_p4
;
; ai_dir_to_pad();
;
	jsr     _ai_dir_to_pad
;
; pad4 = ai_pad_work;
;
	lda     _ai_pad_work
	sta     _pad4
;
; }
;
	rts

.endproc

; ---------------------------------------------------------------
; void __near__ game_loop (void)
; ---------------------------------------------------------------

.segment	"CODE"

.proc	_game_loop: near

.segment	"CODE"

;
; ppu_wait_nmi();
;
	jsr     _ppu_wait_nmi
;
; game_counters();
;
	jsr     _game_counters
;
; read_controllers();
;
	jsr     _read_controllers
;
; quack_movement();
;
	jsr     _quack_movement
;
; current_player = 1;
;
	lda     #$01
	sta     _current_player
;
; GenericBoxGuy = BoxGuy1;
;
	lda     #<(_GenericBoxGuy)
	ldx     #>(_GenericBoxGuy)
	jsr     pushax
	lda     #<(_BoxGuy1)
	ldx     #>(_BoxGuy1)
	jsr     pushax
	ldx     #$00
	lda     #$07
	jsr     _memcpy
;
; generic_pad = pad1;
;
	lda     _pad1
	sta     _generic_pad
;
; movement(); // this assigns old_x and old_y
;
	jsr     _movement
;
; temp_x = GenericBoxGuy.x >> 8;
;
	lda     _GenericBoxGuy+1
	sta     _temp_x
;
; temp_y = GenericBoxGuy.y >> 8;
;
	lda     _GenericBoxGuy+3
	sta     _temp_y
;
; temp_x2 = BoxGuy3.x >> 8;
;
	lda     _BoxGuy3+1
	sta     _temp_x2
;
; temp_y2 = BoxGuy3.y >> 8;
;
	lda     _BoxGuy3+3
	sta     _temp_y2
;
; if (sprite_collision()) // 1 and 3, both seekers
;
	jsr     _sprite_collision
	tax
	beq     L2B07
;
; BoxGuy1.x = old_x;
;
	lda     _old_x+1
	sta     _BoxGuy1+1
	lda     _old_x
	sta     _BoxGuy1
;
; BoxGuy1.y = old_y;
;
	lda     _old_y+1
	sta     _BoxGuy1+2+1
	lda     _old_y
	sta     _BoxGuy1+2
;
; BoxGuy1.collision = 1;
;
	lda     #$01
	sta     _BoxGuy1+6
;
; BoxGuy3.collision = 1;
;
	sta     _BoxGuy3+6
;
; current_player = 2;
;
L2B07:	lda     #$02
	sta     _current_player
;
; GenericBoxGuy = BoxGuy2;
;
	lda     #<(_GenericBoxGuy)
	ldx     #>(_GenericBoxGuy)
	jsr     pushax
	lda     #<(_BoxGuy2)
	ldx     #>(_BoxGuy2)
	jsr     pushax
	ldx     #$00
	lda     #$07
	jsr     _memcpy
;
; generic_pad = pad2;
;
	lda     _pad2
	sta     _generic_pad
;
; movement();
;
	jsr     _movement
;
; if (!(pad2 & (PAD_LEFT | PAD_RIGHT | PAD_UP | PAD_DOWN)))
;
	lda     _pad2
	and     #$0F
;
; else
;
	beq     L2B05
;
; BoxGuy2.moving = 1;
;
	lda     #$01
L2B05:	sta     _BoxGuy2+5
;
; temp_x = GenericBoxGuy.x >> 8;
;
	lda     _GenericBoxGuy+1
	sta     _temp_x
;
; temp_y = GenericBoxGuy.y >> 8;
;
	lda     _GenericBoxGuy+3
	sta     _temp_y
;
; temp_x2 = BoxGuy4.x >> 8;
;
	lda     _BoxGuy4+1
	sta     _temp_x2
;
; temp_y2 = BoxGuy4.y >> 8;
;
	lda     _BoxGuy4+3
	sta     _temp_y2
;
; if (sprite_collision()) // player 2 blocks player 4 (chasers)
;
	jsr     _sprite_collision
	tax
	beq     L2B09
;
; BoxGuy2.x = old_x;
;
	lda     _old_x+1
	sta     _BoxGuy2+1
	lda     _old_x
	sta     _BoxGuy2
;
; BoxGuy2.y = old_y;
;
	lda     _old_y+1
	sta     _BoxGuy2+2+1
	lda     _old_y
	sta     _BoxGuy2+2
;
; BoxGuy2.collision = 1;
;
	lda     #$01
	sta     _BoxGuy2+6
;
; BoxGuy4.collision = 1;
;
	sta     _BoxGuy4+6
;
; current_player = 3;
;
L2B09:	lda     #$03
	sta     _current_player
;
; GenericBoxGuy = BoxGuy3;
;
	lda     #<(_GenericBoxGuy)
	ldx     #>(_GenericBoxGuy)
	jsr     pushax
	lda     #<(_BoxGuy3)
	ldx     #>(_BoxGuy3)
	jsr     pushax
	ldx     #$00
	lda     #$07
	jsr     _memcpy
;
; generic_pad = pad3;
;
	lda     _pad3
	sta     _generic_pad
;
; movement();
;
	jsr     _movement
;
; temp_x = BoxGuy1.x >> 8;
;
	lda     _BoxGuy1+1
	sta     _temp_x
;
; temp_y = BoxGuy1.y >> 8;
;
	lda     _BoxGuy1+3
	sta     _temp_y
;
; temp_x2 = GenericBoxGuy.x >> 8;
;
	lda     _GenericBoxGuy+1
	sta     _temp_x2
;
; temp_y2 = GenericBoxGuy.y >> 8;
;
	lda     _GenericBoxGuy+3
	sta     _temp_y2
;
; if (sprite_collision()) // 1 blocks 3 (seekers)
;
	jsr     _sprite_collision
	tax
	beq     L2B0A
;
; BoxGuy3.x = old_x;
;
	lda     _old_x+1
	sta     _BoxGuy3+1
	lda     _old_x
	sta     _BoxGuy3
;
; BoxGuy3.y = old_y;
;
	lda     _old_y+1
	sta     _BoxGuy3+2+1
	lda     _old_y
	sta     _BoxGuy3+2
;
; BoxGuy3.collision = 1;
;
	lda     #$01
	sta     _BoxGuy3+6
;
; BoxGuy1.collision = 1;
;
	sta     _BoxGuy1+6
;
; current_player = 4;
;
L2B0A:	lda     #$04
	sta     _current_player
;
; GenericBoxGuy = BoxGuy4;
;
	lda     #<(_GenericBoxGuy)
	ldx     #>(_GenericBoxGuy)
	jsr     pushax
	lda     #<(_BoxGuy4)
	ldx     #>(_BoxGuy4)
	jsr     pushax
	ldx     #$00
	lda     #$07
	jsr     _memcpy
;
; generic_pad = pad4;
;
	lda     _pad4
	sta     _generic_pad
;
; movement();
;
	jsr     _movement
;
; if (!(pad4 & (PAD_LEFT | PAD_RIGHT | PAD_UP | PAD_DOWN)))
;
	lda     _pad4
	and     #$0F
;
; else
;
	beq     L2B06
;
; BoxGuy4.moving = 1;
;
	lda     #$01
L2B06:	sta     _BoxGuy4+5
;
; temp_x = BoxGuy2.x >> 8;
;
	lda     _BoxGuy2+1
	sta     _temp_x
;
; temp_y = BoxGuy2.y >> 8;
;
	lda     _BoxGuy2+3
	sta     _temp_y
;
; temp_x2 = GenericBoxGuy.x >> 8;
;
	lda     _GenericBoxGuy+1
	sta     _temp_x2
;
; temp_y2 = GenericBoxGuy.y >> 8;
;
	lda     _GenericBoxGuy+3
	sta     _temp_y2
;
; if (sprite_collision()) // 2 blocks 4 (seekers)
;
	jsr     _sprite_collision
	tax
	beq     L2B0C
;
; BoxGuy4.x = old_x;
;
	lda     _old_x+1
	sta     _BoxGuy4+1
	lda     _old_x
	sta     _BoxGuy4
;
; BoxGuy4.y = old_y;
;
	lda     _old_y+1
	sta     _BoxGuy4+2+1
	lda     _old_y
	sta     _BoxGuy4+2
;
; BoxGuy4.collision = 1;
;
	lda     #$01
	sta     _BoxGuy4+6
;
; BoxGuy2.collision = 1;
;
	sta     _BoxGuy2+6
;
; if (bee1_bigbee_timer == 0)
;
L2B0C:	lda     _bee1_bigbee_timer
	bne     L2B0D
;
; temp_x = BoxGuy1.x >> 8;
;
	lda     _BoxGuy1+1
	sta     _temp_x
;
; temp_y = BoxGuy1.y >> 8;
;
	lda     _BoxGuy1+3
	sta     _temp_y
;
; temp = 1; // which bee are we checking
;
	lda     #$01
	sta     _temp
;
; check_powerup();
;
	jsr     _check_powerup
;
; if (bee3_bigbee_timer == 0)
;
L2B0D:	lda     _bee3_bigbee_timer
	bne     L2B0E
;
; temp_x = BoxGuy3.x >> 8;
;
	lda     _BoxGuy3+1
	sta     _temp_x
;
; temp_y = BoxGuy3.y >> 8;
;
	lda     _BoxGuy3+3
	sta     _temp_y
;
; temp = 3;
;
	lda     #$03
	sta     _temp
;
; check_powerup();
;
	jsr     _check_powerup
;
; if (bee1_bigbee_timer > 0)
;
L2B0E:	lda     _bee1_bigbee_timer
	beq     L2B10
;
; temp_x = BoxGuy1.x >> 8;
;
	lda     _BoxGuy1+1
	sta     _temp_x
;
; temp_y = BoxGuy1.y >> 8;
;
	lda     _BoxGuy1+3
	sta     _temp_y
;
; temp_x2 = BoxGuy2.x >> 8;
;
	lda     _BoxGuy2+1
	sta     _temp_x2
;
; temp_y2 = BoxGuy2.y >> 8;
;
	lda     _BoxGuy2+3
	sta     _temp_y2
;
; if (sprite_collision())
;
	jsr     _sprite_collision
	tax
	beq     L2B0F
;
; sfx_play(SFX_TEAM2_WIN, 0);
;
	lda     #$03
	jsr     pusha
	lda     #$00
	jsr     _sfx_play
;
; winner = THREEFOUR_WINNER;
;
	lda     #$02
	sta     _winner
;
; win_reason = WIN_FRIENDLY_FIRE_DUCK_EATEN;
;
	lda     #$08
	sta     _win_reason
;
; init_roundover();
;
	jmp     _init_roundover
;
; temp_x2 = BoxGuy4.x >> 8;
;
L2B0F:	lda     _BoxGuy4+1
	sta     _temp_x2
;
; temp_y2 = BoxGuy4.y >> 8;
;
	lda     _BoxGuy4+3
	sta     _temp_y2
;
; if (sprite_collision())
;
	jsr     _sprite_collision
	tax
	beq     L2B10
;
; sfx_play(SFX_TEAM1_WIN, 0);
;
	lda     #$02
	jsr     pusha
	lda     #$00
	jsr     _sfx_play
;
; winner = ONETWO_WINNER;
;
	lda     #$01
	sta     _winner
;
; win_reason = WIN_DUCK_EATEN;
;
	lda     #$02
	sta     _win_reason
;
; init_roundover();
;
	jmp     _init_roundover
;
; if (bee3_bigbee_timer > 0)
;
L2B10:	lda     _bee3_bigbee_timer
	beq     L2B12
;
; temp_x = BoxGuy3.x >> 8;
;
	lda     _BoxGuy3+1
	sta     _temp_x
;
; temp_y = BoxGuy3.y >> 8;
;
	lda     _BoxGuy3+3
	sta     _temp_y
;
; temp_x2 = BoxGuy4.x >> 8;
;
	lda     _BoxGuy4+1
	sta     _temp_x2
;
; temp_y2 = BoxGuy4.y >> 8;
;
	lda     _BoxGuy4+3
	sta     _temp_y2
;
; if (sprite_collision())
;
	jsr     _sprite_collision
	tax
	beq     L2B11
;
; sfx_play(SFX_TEAM1_WIN, 0);
;
	lda     #$02
	jsr     pusha
	lda     #$00
	jsr     _sfx_play
;
; winner = ONETWO_WINNER;
;
	lda     #$01
	sta     _winner
;
; win_reason = WIN_FRIENDLY_FIRE_DUCK_EATEN;
;
	lda     #$08
	sta     _win_reason
;
; init_roundover();
;
	jmp     _init_roundover
;
; temp_x2 = BoxGuy2.x >> 8;
;
L2B11:	lda     _BoxGuy2+1
	sta     _temp_x2
;
; temp_y2 = BoxGuy2.y >> 8;
;
	lda     _BoxGuy2+3
	sta     _temp_y2
;
; if (sprite_collision())
;
	jsr     _sprite_collision
	tax
	beq     L2B12
;
; sfx_play(SFX_TEAM2_WIN, 0);
;
	lda     #$03
	jsr     pusha
	lda     #$00
	jsr     _sfx_play
;
; winner = THREEFOUR_WINNER;
;
	lda     #$02
	sta     _winner
;
; win_reason = WIN_DUCK_EATEN;
;
	sta     _win_reason
;
; init_roundover();
;
	jmp     _init_roundover
;
; temp_x = BoxGuy1.x >> 8;
;
L2B12:	lda     _BoxGuy1+1
	sta     _temp_x
;
; temp_y = BoxGuy1.y >> 8;
;
	lda     _BoxGuy1+3
	sta     _temp_y
;
; temp_x2 = BoxGuy2.x >> 8;
;
	lda     _BoxGuy2+1
	sta     _temp_x2
;
; temp_y2 = BoxGuy2.y >> 8;
;
	lda     _BoxGuy2+3
	sta     _temp_y2
;
; if (sprite_collision())
;
	jsr     _sprite_collision
	tax
	beq     L2B13
;
; sfx_play(SFX_TEAM2_WIN, 0);
;
	lda     #$03
	jsr     pusha
	lda     #$00
	jsr     _sfx_play
;
; winner = THREEFOUR_WINNER;
;
	lda     #$02
	sta     _winner
;
; win_reason = WIN_FRIENDLY_FIRE_BEE_EATEN;
;
	lda     #$10
	sta     _win_reason
;
; init_roundover();
;
	jmp     _init_roundover
;
; temp_x = BoxGuy3.x >> 8;
;
L2B13:	lda     _BoxGuy3+1
	sta     _temp_x
;
; temp_y = BoxGuy3.y >> 8;
;
	lda     _BoxGuy3+3
	sta     _temp_y
;
; temp_x2 = BoxGuy4.x >> 8;
;
	lda     _BoxGuy4+1
	sta     _temp_x2
;
; temp_y2 = BoxGuy4.y >> 8;
;
	lda     _BoxGuy4+3
	sta     _temp_y2
;
; if (sprite_collision())
;
	jsr     _sprite_collision
	tax
	beq     L2B14
;
; sfx_play(SFX_TEAM1_WIN, 0);
;
	lda     #$02
	jsr     pusha
	lda     #$00
	jsr     _sfx_play
;
; winner = ONETWO_WINNER;
;
	lda     #$01
	sta     _winner
;
; win_reason = WIN_FRIENDLY_FIRE_BEE_EATEN;
;
	lda     #$10
	sta     _win_reason
;
; init_roundover();
;
	jmp     _init_roundover
;
; temp_x = BoxGuy1.x >> 8;
;
L2B14:	lda     _BoxGuy1+1
	sta     _temp_x
;
; temp_y = BoxGuy1.y >> 8;
;
	lda     _BoxGuy1+3
	sta     _temp_y
;
; temp_x2 = BoxGuy4.x >> 8;
;
	lda     _BoxGuy4+1
	sta     _temp_x2
;
; temp_y2 = BoxGuy4.y >> 8;
;
	lda     _BoxGuy4+3
	sta     _temp_y2
;
; if (sprite_collision())
;
	jsr     _sprite_collision
	tax
	beq     L2B15
;
; sfx_play(SFX_TEAM2_WIN, 0);
;
	lda     #$03
	jsr     pusha
	lda     #$00
	jsr     _sfx_play
;
; winner = THREEFOUR_WINNER;
;
	lda     #$02
	sta     _winner
;
; win_reason = WIN_BEE_EATEN;
;
	lda     #$04
	sta     _win_reason
;
; init_roundover();
;
	jmp     _init_roundover
;
; temp_x = BoxGuy2.x >> 8;
;
L2B15:	lda     _BoxGuy2+1
	sta     _temp_x
;
; temp_y = BoxGuy2.y >> 8;
;
	lda     _BoxGuy2+3
	sta     _temp_y
;
; temp_x2 = BoxGuy3.x >> 8;
;
	lda     _BoxGuy3+1
	sta     _temp_x2
;
; temp_y2 = BoxGuy3.y >> 8;
;
	lda     _BoxGuy3+3
	sta     _temp_y2
;
; if (sprite_collision())
;
	jsr     _sprite_collision
	tax
	beq     L22F6
;
; sfx_play(SFX_TEAM1_WIN, 0);
;
	lda     #$02
	jsr     pusha
	lda     #$00
	jsr     _sfx_play
;
; winner = ONETWO_WINNER;
;
	lda     #$01
	sta     _winner
;
; win_reason = WIN_BEE_EATEN;
;
	lda     #$04
	sta     _win_reason
;
; init_roundover();
;
	jmp     _init_roundover
;
; draw_sprites();
;
L22F6:	jsr     _draw_sprites
;
; update_hud();
;
	jsr     _update_hud
;
; draw_hud();
;
	jmp     _draw_hud

.endproc

; ---------------------------------------------------------------
; void __near__ title_loop (void)
; ---------------------------------------------------------------

.segment	"CODE"

.proc	_title_loop: near

.segment	"CODE"

;
; frame_counter++;
;
L2B16:	inc     _frame_counter
;
; ppu_wait_nmi();
;
	jsr     _ppu_wait_nmi
;
; read_controllers();
;
	jsr     _read_controllers
;
; if (pad1_new & PAD_UP)
;
	lda     _pad1_new
	and     #$08
	beq     L2B17
;
; if ((BoxGuy1.y >> 8) > 160)
;
	lda     _BoxGuy1+3
	cmp     #$A1
	bcc     L2B17
;
; BoxGuy1.y -= 0x0400; // Move up 4 pixels (0x0400 = 1024 sub-pixels)
;
	lda     _BoxGuy1+2
	sec
	sbc     #$00
	sta     _BoxGuy1+2
	lda     _BoxGuy1+2+1
	sbc     #$04
	sta     _BoxGuy1+2+1
;
; if (pad2_new & PAD_UP)
;
L2B17:	lda     _pad2_new
	and     #$08
	beq     L2B18
;
; if ((BoxGuy2.y >> 8) > 160)
;
	lda     _BoxGuy2+3
	cmp     #$A1
	bcc     L2B18
;
; BoxGuy2.y -= 0x0400;
;
	lda     _BoxGuy2+2
	sec
	sbc     #$00
	sta     _BoxGuy2+2
	lda     _BoxGuy2+2+1
	sbc     #$04
	sta     _BoxGuy2+2+1
;
; if (pad3_new & PAD_UP)
;
L2B18:	lda     _pad3_new
	and     #$08
	beq     L2B19
;
; if ((BoxGuy3.y >> 8) > 160)
;
	lda     _BoxGuy3+3
	cmp     #$A1
	bcc     L2B19
;
; BoxGuy3.y -= 0x0400;
;
	lda     _BoxGuy3+2
	sec
	sbc     #$00
	sta     _BoxGuy3+2
	lda     _BoxGuy3+2+1
	sbc     #$04
	sta     _BoxGuy3+2+1
;
; if (pad4_new & PAD_UP)
;
L2B19:	lda     _pad4_new
	and     #$08
	beq     L2B1A
;
; if ((BoxGuy4.y >> 8) > 160)
;
	lda     _BoxGuy4+3
	cmp     #$A1
	bcc     L2B1A
;
; BoxGuy4.y -= 0x0400;
;
	lda     _BoxGuy4+2
	sec
	sbc     #$00
	sta     _BoxGuy4+2
	lda     _BoxGuy4+2+1
	sbc     #$04
	sta     _BoxGuy4+2+1
;
; if ((pad1 | pad2 | pad3 | pad4) & PAD_START)
;
L2B1A:	lda     _pad2
	ora     _pad1
	sta     ptr1
	lda     _pad3
	ora     ptr1
	sta     ptr1
	lda     _pad4
	ora     ptr1
	and     #$10
	beq     L2B23
;
; if (!start_held && (pad1_new & PAD_START || pad2_new & PAD_START || pad3_new & PAD_START || pad4_new & PAD_START))
;
	lda     _start_held
	jne     L2B16
	lda     _pad1_new
	and     #$10
	bne     L2B1B
	lda     _pad2_new
	and     #$10
	bne     L2B1B
	lda     _pad3_new
	and     #$10
	bne     L2B1B
	lda     _pad4_new
	and     #$10
	jeq     L2B16
L2B1B:	lda     #$01
;
; start_held = 1;
;
	sta     _start_held
;
; init_options_loop();
;
	jmp     _init_options_loop
;
; start_held = 0;
;
L2B23:	sta     _start_held
;
; while (1)
;
	jmp     L2B16

.endproc

; ---------------------------------------------------------------
; void __near__ options_loop (void)
; ---------------------------------------------------------------

.segment	"CODE"

.proc	_options_loop: near

.segment	"CODE"

;
; ppu_wait_nmi();
;
L2337:	jsr     _ppu_wait_nmi
;
; frame_counter++;
;
	inc     _frame_counter
;
; oam_clear();
;
	jsr     _oam_clear
;
; if (++options_anim_tick >= 10)
;
	inc     _options_anim_tick
	lda     _options_anim_tick
	cmp     #$0A
	bcc     L2B2E
;
; options_anim_tick = 0;
;
	lda     #$00
	sta     _options_anim_tick
;
; if (++anim_frame_1 >= 3)
;
	inc     _anim_frame_1
	lda     _anim_frame_1
	cmp     #$03
	bcc     L2342
;
; anim_frame_1 = 0;
;
	lda     #$00
	sta     _anim_frame_1
;
; if (!use_ai_player_2)
;
L2342:	lda     _use_ai_player_2
	bne     L2348
;
; if (++anim_frame_2 >= 3)
;
	inc     _anim_frame_2
	lda     _anim_frame_2
	cmp     #$03
	bcc     L2348
;
; anim_frame_2 = 0;
;
	lda     #$00
	sta     _anim_frame_2
;
; if (!use_ai_player_3)
;
L2348:	lda     _use_ai_player_3
	bne     L234E
;
; if (++anim_frame_3 >= 3)
;
	inc     _anim_frame_3
	lda     _anim_frame_3
	cmp     #$03
	bcc     L234E
;
; anim_frame_3 = 0;
;
	lda     #$00
	sta     _anim_frame_3
;
; if (!use_ai_player_4)
;
L234E:	lda     _use_ai_player_4
	bne     L2B2E
;
; if (++anim_frame_4 >= 3)
;
	inc     _anim_frame_4
	lda     _anim_frame_4
	cmp     #$03
	bcc     L2B2E
;
; anim_frame_4 = 0;
;
	lda     #$00
	sta     _anim_frame_4
;
; switch (anim_frame_1)
;
L2B2E:	lda     _anim_frame_1
;
; }
;
	beq     L235C
	cmp     #$01
	beq     L2362
	cmp     #$02
	beq     L2368
	jmp     L235A
;
; oam_meta_spr(temp_x, temp_y, gamesprites_smallbeeright0_data);
;
L235C:	jsr     decsp2
	lda     _temp_x
	ldy     #$01
	sta     (sp),y
	lda     _temp_y
	dey
	sta     (sp),y
	lda     #<(_gamesprites_smallbeeright0_data)
	ldx     #>(_gamesprites_smallbeeright0_data)
;
; break;
;
	jmp     L2B28
;
; oam_meta_spr(temp_x, temp_y, gamesprites_smallbeeright1_data);
;
L2362:	jsr     decsp2
	lda     _temp_x
	ldy     #$01
	sta     (sp),y
	lda     _temp_y
	dey
	sta     (sp),y
	lda     #<(_gamesprites_smallbeeright1_data)
	ldx     #>(_gamesprites_smallbeeright1_data)
;
; break;
;
	jmp     L2B28
;
; oam_meta_spr(temp_x, temp_y, gamesprites_smallbeeright2_data);
;
L2368:	jsr     decsp2
	lda     _temp_x
	ldy     #$01
	sta     (sp),y
	lda     _temp_y
	dey
	sta     (sp),y
	lda     #<(_gamesprites_smallbeeright2_data)
	ldx     #>(_gamesprites_smallbeeright2_data)
L2B28:	jsr     _oam_meta_spr
;
; if (use_ai_player_1)
;
L235A:	lda     _use_ai_player_1
	beq     L236D
;
; oam_meta_spr(64, 184, gamesprites_smallbeeright0_data);
;
	jsr     decsp2
	lda     #$40
	ldy     #$01
	sta     (sp),y
	lda     #$B8
	dey
	sta     (sp),y
	lda     #<(_gamesprites_smallbeeright0_data)
	ldx     #>(_gamesprites_smallbeeright0_data)
;
; else
;
	jmp     L2B29
;
; switch (anim_frame_1)
;
L236D:	lda     _anim_frame_1
;
; }
;
	beq     L2378
	cmp     #$01
	beq     L237E
	cmp     #$02
	beq     L2384
	jmp     L2376
;
; oam_meta_spr(64, 184, gamesprites_smallbeeright0_data);
;
L2378:	jsr     decsp2
	lda     #$40
	ldy     #$01
	sta     (sp),y
	lda     #$B8
	dey
	sta     (sp),y
	lda     #<(_gamesprites_smallbeeright0_data)
	ldx     #>(_gamesprites_smallbeeright0_data)
;
; break;
;
	jmp     L2B29
;
; oam_meta_spr(64, 184, gamesprites_smallbeeright1_data);
;
L237E:	jsr     decsp2
	lda     #$40
	ldy     #$01
	sta     (sp),y
	lda     #$B8
	dey
	sta     (sp),y
	lda     #<(_gamesprites_smallbeeright1_data)
	ldx     #>(_gamesprites_smallbeeright1_data)
;
; break;
;
	jmp     L2B29
;
; oam_meta_spr(64, 184, gamesprites_smallbeeright2_data);
;
L2384:	jsr     decsp2
	lda     #$40
	ldy     #$01
	sta     (sp),y
	lda     #$B8
	dey
	sta     (sp),y
	lda     #<(_gamesprites_smallbeeright2_data)
	ldx     #>(_gamesprites_smallbeeright2_data)
L2B29:	jsr     _oam_meta_spr
;
; if (use_ai_player_2)
;
L2376:	lda     _use_ai_player_2
	beq     L2389
;
; oam_meta_spr(104, 184, gamesprites_smallduckright0_data);
;
	jsr     decsp2
	lda     #$68
	ldy     #$01
	sta     (sp),y
	lda     #$B8
	dey
	sta     (sp),y
	lda     #<(_gamesprites_smallduckright0_data)
	ldx     #>(_gamesprites_smallduckright0_data)
;
; else
;
	jmp     L2B2A
;
; switch (anim_frame_2)
;
L2389:	lda     _anim_frame_2
;
; }
;
	beq     L2394
	cmp     #$01
	beq     L239A
	cmp     #$02
	beq     L23A0
	jmp     L2392
;
; oam_meta_spr(104, 184, gamesprites_smallduckright0_data);
;
L2394:	jsr     decsp2
	lda     #$68
	ldy     #$01
	sta     (sp),y
	lda     #$B8
	dey
	sta     (sp),y
	lda     #<(_gamesprites_smallduckright0_data)
	ldx     #>(_gamesprites_smallduckright0_data)
;
; break;
;
	jmp     L2B2A
;
; oam_meta_spr(104, 184, gamesprites_smallduckright1_data);
;
L239A:	jsr     decsp2
	lda     #$68
	ldy     #$01
	sta     (sp),y
	lda     #$B8
	dey
	sta     (sp),y
	lda     #<(_gamesprites_smallduckright1_data)
	ldx     #>(_gamesprites_smallduckright1_data)
;
; break;
;
	jmp     L2B2A
;
; oam_meta_spr(104, 184, gamesprites_smallduckright2_data);
;
L23A0:	jsr     decsp2
	lda     #$68
	ldy     #$01
	sta     (sp),y
	lda     #$B8
	dey
	sta     (sp),y
	lda     #<(_gamesprites_smallduckright2_data)
	ldx     #>(_gamesprites_smallduckright2_data)
L2B2A:	jsr     _oam_meta_spr
;
; if (use_ai_player_3)
;
L2392:	lda     _use_ai_player_3
	beq     L23A5
;
; oam_meta_spr(144, 184, gamesprites_smallbee2right0_data);
;
	jsr     decsp2
	lda     #$90
	ldy     #$01
	sta     (sp),y
	lda     #$B8
	dey
	sta     (sp),y
	lda     #<(_gamesprites_smallbee2right0_data)
	ldx     #>(_gamesprites_smallbee2right0_data)
;
; else
;
	jmp     L2B2B
;
; switch (anim_frame_3)
;
L23A5:	lda     _anim_frame_3
;
; }
;
	beq     L23B0
	cmp     #$01
	beq     L23B6
	cmp     #$02
	beq     L23BC
	jmp     L23AE
;
; oam_meta_spr(144, 184, gamesprites_smallbee2right0_data);
;
L23B0:	jsr     decsp2
	lda     #$90
	ldy     #$01
	sta     (sp),y
	lda     #$B8
	dey
	sta     (sp),y
	lda     #<(_gamesprites_smallbee2right0_data)
	ldx     #>(_gamesprites_smallbee2right0_data)
;
; break;
;
	jmp     L2B2B
;
; oam_meta_spr(144, 184, gamesprites_smallbee2right1_data);
;
L23B6:	jsr     decsp2
	lda     #$90
	ldy     #$01
	sta     (sp),y
	lda     #$B8
	dey
	sta     (sp),y
	lda     #<(_gamesprites_smallbee2right1_data)
	ldx     #>(_gamesprites_smallbee2right1_data)
;
; break;
;
	jmp     L2B2B
;
; oam_meta_spr(144, 184, gamesprites_smallbee2right2_data);
;
L23BC:	jsr     decsp2
	lda     #$90
	ldy     #$01
	sta     (sp),y
	lda     #$B8
	dey
	sta     (sp),y
	lda     #<(_gamesprites_smallbee2right2_data)
	ldx     #>(_gamesprites_smallbee2right2_data)
L2B2B:	jsr     _oam_meta_spr
;
; if (use_ai_player_4)
;
L23AE:	lda     _use_ai_player_4
	beq     L23C1
;
; oam_meta_spr(184, 184, gamesprites_smallduck2right0_data);
;
	jsr     decsp2
	lda     #$B8
	ldy     #$01
	sta     (sp),y
	dey
	sta     (sp),y
	lda     #<(_gamesprites_smallduck2right0_data)
	ldx     #>(_gamesprites_smallduck2right0_data)
;
; else
;
	jmp     L2B2C
;
; switch (anim_frame_4)
;
L23C1:	lda     _anim_frame_4
;
; }
;
	beq     L23CC
	cmp     #$01
	beq     L23D2
	cmp     #$02
	beq     L23D8
	jmp     L23CA
;
; oam_meta_spr(184, 184, gamesprites_smallduck2right0_data);
;
L23CC:	jsr     decsp2
	lda     #$B8
	ldy     #$01
	sta     (sp),y
	dey
	sta     (sp),y
	lda     #<(_gamesprites_smallduck2right0_data)
	ldx     #>(_gamesprites_smallduck2right0_data)
;
; break;
;
	jmp     L2B2C
;
; oam_meta_spr(184, 184, gamesprites_smallduck2right1_data);
;
L23D2:	jsr     decsp2
	lda     #$B8
	ldy     #$01
	sta     (sp),y
	dey
	sta     (sp),y
	lda     #<(_gamesprites_smallduck2right1_data)
	ldx     #>(_gamesprites_smallduck2right1_data)
;
; break;
;
	jmp     L2B2C
;
; oam_meta_spr(184, 184, gamesprites_smallduck2right2_data);
;
L23D8:	jsr     decsp2
	lda     #$B8
	ldy     #$01
	sta     (sp),y
	dey
	sta     (sp),y
	lda     #<(_gamesprites_smallduck2right2_data)
	ldx     #>(_gamesprites_smallduck2right2_data)
L2B2C:	jsr     _oam_meta_spr
;
; read_controllers();
;
L23CA:	jsr     _read_controllers
;
; if (four_score_present)
;
	lda     _four_score_present
	beq     L23DE
;
; if (pad1_new & PAD_SELECT)
;
	lda     _pad1_new
	and     #$20
	beq     L2B2F
;
; use_ai_player_1 ^= 1;
;
	lda     _use_ai_player_1
	eor     #$01
	sta     _use_ai_player_1
;
; if (pad2_new & PAD_SELECT)
;
L2B2F:	lda     _pad2_new
	and     #$20
	beq     L2B30
;
; use_ai_player_2 ^= 1;
;
	lda     _use_ai_player_2
	eor     #$01
	sta     _use_ai_player_2
;
; if (use_ai_player_2)
;
	lda     _use_ai_player_2
	beq     L2B30
;
; anim_frame_2 = 0;
;
	lda     #$00
	sta     _anim_frame_2
;
; if (pad3_new & PAD_SELECT)
;
L2B30:	lda     _pad3_new
	and     #$20
	beq     L2B31
;
; use_ai_player_3 ^= 1;
;
	lda     _use_ai_player_3
	eor     #$01
	sta     _use_ai_player_3
;
; if (use_ai_player_3)
;
	lda     _use_ai_player_3
	beq     L2B31
;
; anim_frame_3 = 0;
;
	lda     #$00
	sta     _anim_frame_3
;
; if (pad4_new & PAD_SELECT)
;
L2B31:	lda     _pad4_new
	and     #$20
	jeq     L2B59
;
; use_ai_player_4 ^= 1;
;
	lda     _use_ai_player_4
	eor     #$01
	sta     _use_ai_player_4
;
; if (use_ai_player_4)
;
	lda     _use_ai_player_4
	jeq     L2B59
;
; anim_frame_4 = 0;
;
	lda     #$00
	sta     _anim_frame_4
;
; else
;
	jmp     L2B59
;
; if (pad1_new & PAD_SELECT)
;
L23DE:	lda     _pad1_new
	and     #$20
	jeq     L2B3F
;
; unsigned char old_slot = controller1_slot;
;
	lda     _controller1_slot
	jsr     pusha
;
; unsigned char guard = 0;
;
	lda     #$00
	jsr     pusha
;
; controller1_slot++;
;
L2B32:	inc     _controller1_slot
;
; if (controller1_slot > 4)
;
	lda     _controller1_slot
	cmp     #$05
	bcc     L2405
;
; controller1_slot = 1;
;
	lda     #$01
	sta     _controller1_slot
;
; guard++;
;
L2405:	ldy     #$00
	lda     (sp),y
	clc
	adc     #$01
	sta     (sp),y
;
; } while (controller1_slot == controller2_slot && guard < 5);
;
	lda     _controller2_slot
	cmp     _controller1_slot
	bne     L2B26
	lda     (sp),y
	cmp     #$05
	bcc     L2B32
;
; if (old_slot == 1)
;
L2B26:	iny
	lda     (sp),y
	cmp     #$01
	bne     L2B36
;
; use_ai_player_1 = 1;
;
	sta     _use_ai_player_1
;
; else if (old_slot == 2)
;
	jmp     L2B3B
L2B36:	lda     (sp),y
	cmp     #$02
	bne     L2B38
;
; use_ai_player_2 = 1;
;
	sty     _use_ai_player_2
;
; else if (old_slot == 3)
;
	jmp     L2B3B
L2B38:	lda     (sp),y
	cmp     #$03
	bne     L2B3A
;
; use_ai_player_3 = 1;
;
	sty     _use_ai_player_3
;
; else if (old_slot == 4)
;
	jmp     L2B3B
L2B3A:	lda     (sp),y
	cmp     #$04
	bne     L2B3B
;
; use_ai_player_4 = 1;
;
	sty     _use_ai_player_4
;
; if (controller1_slot == 1)
;
L2B3B:	lda     _controller1_slot
	cmp     #$01
	bne     L2B3C
;
; use_ai_player_1 = 0;
;
	lda     #$00
	sta     _use_ai_player_1
;
; else if (controller1_slot == 2)
;
	jmp     L242F
L2B3C:	lda     _controller1_slot
	cmp     #$02
	bne     L2B3D
;
; use_ai_player_2 = 0;
;
	lda     #$00
	sta     _use_ai_player_2
;
; else if (controller1_slot == 3)
;
	jmp     L242F
L2B3D:	lda     _controller1_slot
	cmp     #$03
	bne     L2B3E
;
; use_ai_player_3 = 0;
;
	lda     #$00
	sta     _use_ai_player_3
;
; else if (controller1_slot == 4)
;
	jmp     L242F
L2B3E:	lda     _controller1_slot
	cmp     #$04
	bne     L242F
;
; use_ai_player_4 = 0;
;
	lda     #$00
	sta     _use_ai_player_4
;
; }
;
L242F:	jsr     incsp2
;
; if (pad2_new & PAD_SELECT)
;
L2B3F:	lda     _pad2_new
	and     #$20
	jeq     L2B59
;
; unsigned char old_slot = controller2_slot;
;
	lda     _controller2_slot
	jsr     pusha
;
; unsigned char guard = 0;
;
	lda     #$00
	jsr     pusha
;
; switch (controller2_slot)
;
	lda     _controller2_slot
;
; }
;
	beq     L2B40
	cmp     #$02
	beq     L2B41
	cmp     #$03
	beq     L2B42
	cmp     #$04
	beq     L2B43
	jmp     L2B4B
;
; controller2_slot = 2;
;
L2B40:	lda     #$02
;
; break;
;
	jmp     L2B2D
;
; controller2_slot = 3;
;
L2B41:	lda     #$03
;
; break;
;
	jmp     L2B2D
;
; controller2_slot = 4;
;
L2B42:	lda     #$04
;
; break;
;
	jmp     L2B2D
;
; controller2_slot = 1;
;
L2B43:	lda     #$01
;
; break;
;
	jmp     L2B2D
;
; guard++;
;
L2B46:	lda     (sp),y
	clc
	adc     #$01
	sta     (sp),y
;
; switch (controller2_slot)
;
	lda     _controller2_slot
;
; }
;
	cmp     #$01
	beq     L2B4B
	cmp     #$02
	beq     L2B47
	cmp     #$03
	beq     L2B48
	cmp     #$04
	beq     L2B49
	jmp     L2B4B
;
; controller2_slot = 3;
;
L2B47:	lda     #$03
;
; break;
;
	jmp     L2B2D
;
; controller2_slot = 4;
;
L2B48:	lda     #$04
;
; break;
;
	jmp     L2B2D
;
; controller2_slot = 1;
;
L2B49:	lda     #$01
;
; break;
;
	jmp     L2B2D
;
; controller2_slot = 0;
;
L2B4B:	lda     #$00
L2B2D:	sta     _controller2_slot
;
; while (controller2_slot != 0 && controller2_slot == controller1_slot && guard < 5)
;
	lda     _controller2_slot
	beq     L2B27
	lda     _controller1_slot
	cmp     _controller2_slot
	bne     L2B27
	ldy     #$00
	lda     (sp),y
	cmp     #$05
	bcc     L2B46
;
; if (old_slot == 1)
;
L2B27:	ldy     #$01
	lda     (sp),y
	cmp     #$01
	bne     L2B50
;
; use_ai_player_1 = 1;
;
	sta     _use_ai_player_1
;
; else if (old_slot == 2)
;
	jmp     L2B55
L2B50:	lda     (sp),y
	cmp     #$02
	bne     L2B52
;
; use_ai_player_2 = 1;
;
	sty     _use_ai_player_2
;
; else if (old_slot == 3)
;
	jmp     L2B55
L2B52:	lda     (sp),y
	cmp     #$03
	bne     L2B54
;
; use_ai_player_3 = 1;
;
	sty     _use_ai_player_3
;
; else if (old_slot == 4)
;
	jmp     L2B55
L2B54:	lda     (sp),y
	cmp     #$04
	bne     L2B55
;
; use_ai_player_4 = 1;
;
	sty     _use_ai_player_4
;
; if (controller2_slot == 1)
;
L2B55:	lda     _controller2_slot
	cmp     #$01
	bne     L2B56
;
; use_ai_player_1 = 0;
;
	lda     #$00
	sta     _use_ai_player_1
;
; else if (controller2_slot == 2)
;
	jmp     L248C
L2B56:	lda     _controller2_slot
	cmp     #$02
	bne     L2B57
;
; use_ai_player_2 = 0;
;
	lda     #$00
	sta     _use_ai_player_2
;
; else if (controller2_slot == 3)
;
	jmp     L248C
L2B57:	lda     _controller2_slot
	cmp     #$03
	bne     L2B58
;
; use_ai_player_3 = 0;
;
	lda     #$00
	sta     _use_ai_player_3
;
; else if (controller2_slot == 4)
;
	jmp     L248C
L2B58:	lda     _controller2_slot
	cmp     #$04
	bne     L248C
;
; use_ai_player_4 = 0;
;
	lda     #$00
	sta     _use_ai_player_4
;
; }
;
L248C:	jsr     incsp2
;
; if (pad1_new & PAD_DOWN)
;
L2B59:	lda     _pad1_new
	and     #$04
	beq     L2B5A
;
; if (current_settings_choice < SETTING_SONG)
;
	lda     _current_settings_choice
	cmp     #$02
	bcs     L2B5A
;
; current_settings_choice++;
;
	inc     _current_settings_choice
;
; update_options_screen();
;
	jsr     _update_options_screen
;
; if (pad1_new & PAD_UP)
;
L2B5A:	lda     _pad1_new
	and     #$08
	beq     L2B5B
;
; if (current_settings_choice > 0)
;
	lda     _current_settings_choice
	beq     L2B5B
;
; current_settings_choice--;
;
	dec     _current_settings_choice
;
; update_options_screen();
;
	jsr     _update_options_screen
;
; if (pad1_new & PAD_RIGHT)
;
L2B5B:	lda     _pad1_new
	and     #$01
	beq     L2B5E
;
; if (current_settings_choice == SETTING_MAP)
;
	lda     _current_settings_choice
	cmp     #$01
	bne     L2B5C
;
; if (settings_map < MAP_RANDOM)
;
	lda     _settings_map
	cmp     #$03
	bcs     L2B5C
;
; settings_map++;
;
	inc     _settings_map
;
; if (current_settings_choice == SETTING_SPEED)
;
L2B5C:	lda     _current_settings_choice
	bne     L2B5D
;
; if (settings_speed < GAME_FAST)
;
	lda     _settings_speed
	cmp     #$02
	bcs     L2B5D
;
; settings_speed++;
;
	inc     _settings_speed
;
; if (current_settings_choice == SETTING_SONG)
;
L2B5D:	lda     _current_settings_choice
	cmp     #$02
	bne     L24AA
;
; if (settings_song < SONG_RANDOM)
;
	lda     _settings_song
	cmp     #$03
	bcs     L24AA
;
; settings_song++;
;
	inc     _settings_song
;
; update_options_screen();
;
L24AA:	jsr     _update_options_screen
;
; if (pad1_new & PAD_LEFT)
;
L2B5E:	lda     _pad1_new
	and     #$02
	beq     L2B61
;
; if (current_settings_choice == SETTING_MAP)
;
	lda     _current_settings_choice
	cmp     #$01
	bne     L2B5F
;
; if (settings_map > 0)
;
	lda     _settings_map
	beq     L2B5F
;
; settings_map--;
;
	dec     _settings_map
;
; if (current_settings_choice == SETTING_SPEED)
;
L2B5F:	lda     _current_settings_choice
	bne     L2B60
;
; if (settings_speed > 0)
;
	lda     _settings_speed
	beq     L2B60
;
; settings_speed--;
;
	dec     _settings_speed
;
; if (current_settings_choice == SETTING_SONG)
;
L2B60:	lda     _current_settings_choice
	cmp     #$02
	bne     L24BC
;
; if (settings_song > 0)
;
	lda     _settings_song
	beq     L24BC
;
; settings_song--;
;
	dec     _settings_song
;
; update_options_screen();
;
L24BC:	jsr     _update_options_screen
;
; if ((pad1 | pad2 | pad3 | pad4) & PAD_START)
;
L2B61:	lda     _pad2
	ora     _pad1
	sta     ptr1
	lda     _pad3
	ora     ptr1
	sta     ptr1
	lda     _pad4
	ora     ptr1
	and     #$10
	beq     L2B6A
;
; if (!start_held && (pad1_new & PAD_START || pad2_new & PAD_START || pad3_new & PAD_START || pad4_new & PAD_START))
;
	lda     _start_held
	jne     L2337
	lda     _pad1_new
	and     #$10
	bne     L2B62
	lda     _pad2_new
	and     #$10
	bne     L2B62
	lda     _pad3_new
	and     #$10
	bne     L2B62
	lda     _pad4_new
	and     #$10
	jeq     L2337
L2B62:	lda     #$01
;
; start_held = 1;
;
	sta     _start_held
;
; sfx_play(SFX_START, 0);
;
	lda     #$08
	jsr     pusha
	lda     #$00
	jsr     _sfx_play
;
; init_game_loop();
;
	jsr     _init_game_loop
;
; break;
;
	jmp     L2338
;
; start_held = 0;
;
L2B6A:	sta     _start_held
;
; while (1)
;
	jmp     L2337
;
; prev_pad1 = pad1;
;
L2338:	lda     _pad1
	sta     _prev_pad1
;
; prev_pad2 = pad2;
;
	lda     _pad2
	sta     _prev_pad2
;
; prev_pad3 = pad3;
;
	lda     _pad3
	sta     _prev_pad3
;
; prev_pad4 = pad4;
;
	lda     _pad4
	sta     _prev_pad4
;
; }
;
	rts

.endproc

; ---------------------------------------------------------------
; void __near__ gameover_loop (void)
; ---------------------------------------------------------------

.segment	"CODE"

.proc	_gameover_loop: near

.segment	"CODE"

;
; frame_counter++;
;
L24DB:	inc     _frame_counter
;
; oam_clear();
;
	jsr     _oam_clear
;
; if (winner == ONETWO_WINNER)
;
	lda     _winner
	cmp     #$01
	bne     L2B6B
;
; draw_player_1();
;
	jsr     _draw_player_1
;
; draw_player_2();
;
	jsr     _draw_player_2
;
; else if (winner == THREEFOUR_WINNER)
;
	jmp     L24E6
L2B6B:	lda     _winner
	cmp     #$02
	bne     L24E6
;
; draw_player_3();
;
	jsr     _draw_player_3
;
; draw_player_4();
;
	jsr     _draw_player_4
;
; ppu_wait_nmi();
;
L24E6:	jsr     _ppu_wait_nmi
;
; read_controllers();
;
	jsr     _read_controllers
;
; if (pad1_new & PAD_START || pad2_new & PAD_START || pad3_new & PAD_START || pad4_new & PAD_START)
;
	lda     _pad1_new
	and     #$10
	bne     L2B6C
	lda     _pad2_new
	and     #$10
	bne     L2B6C
	lda     _pad3_new
	and     #$10
	bne     L2B6C
	lda     _pad4_new
	and     #$10
	beq     L24DB
;
; init_title_loop();
;
L2B6C:	jmp     _init_title_loop

.endproc

; ---------------------------------------------------------------
; void __near__ init_game_loop (void)
; ---------------------------------------------------------------

.segment	"CODE"

.proc	_init_game_loop: near

.segment	"CODE"

;
; music_stop();
;
	jsr     _music_stop
;
; clear_background();
;
	jsr     _clear_background
;
; game_mode = MODE_GAME;
;
	lda     #$02
	sta     _game_mode
;
; team1_wins = 0;
;
	lda     #$00
	sta     _team1_wins
;
; team2_wins = 0;
;
	sta     _team2_wins
;
; current_round = 1;
;
	lda     #$01
	sta     _current_round
;
; round_1 = 0;
;
	lda     #$00
	sta     _round_1
;
; round_2 = 0;
;
	sta     _round_2
;
; round_3 = 0;
;
	sta     _round_3
;
; round_4 = 0;
;
	sta     _round_4
;
; round_5 = 0;
;
	sta     _round_5
;
; round_1_winner = 0;
;
	sta     _round_1_winner
;
; round_2_winner = 0;
;
	sta     _round_2_winner
;
; round_3_winner = 0;
;
	sta     _round_3_winner
;
; round_4_winner = 0;
;
	sta     _round_4_winner
;
; round_5_winner = 0;
;
	sta     _round_5_winner
;
; team1_win1 = 0xFF;
;
	lda     #$FF
	sta     _team1_win1
;
; team1_win2 = 0xFF;
;
	sta     _team1_win2
;
; team1_win3 = 0xFF;
;
	sta     _team1_win3
;
; team2_win1 = 0xFF;
;
	sta     _team2_win1
;
; team2_win2 = 0xFF;
;
	sta     _team2_win2
;
; team2_win3 = 0xFF;
;
	sta     _team2_win3
;
; tick_frequency = TIMER_TICK_FREQUENCY;
;
	lda     #$18
	sta     _tick_frequency
;
; if (settings_speed == GAME_SLOW)
;
	lda     _settings_speed
	bne     L2B70
;
; tick_frequency += 8;
;
	lda     #$08
	clc
	adc     _tick_frequency
;
; else if (settings_speed == GAME_FAST)
;
	jmp     L2B6D
L2B70:	lda     _settings_speed
	cmp     #$02
	bne     L2B71
;
; tick_frequency -= 12;
;
	lda     _tick_frequency
	sec
	sbc     #$0C
L2B6D:	sta     _tick_frequency
;
; if (settings_map == MAP_COMBS)
;
L2B71:	lda     _settings_map
	bne     L2B72
;
; map_ptr = combs;
;
	lda     #>(_combs)
	sta     _map_ptr+1
	lda     #<(_combs)
	sta     _map_ptr
;
; map = MAP_COMBS;
;
	lda     #$00
;
; else if (settings_map == MAP_VINES)
;
	jmp     L2B6E
L2B72:	lda     _settings_map
	cmp     #$02
	bne     L2B73
;
; map_ptr = vines;
;
	lda     #>(_vines)
	sta     _map_ptr+1
	lda     #<(_vines)
	sta     _map_ptr
;
; map = MAP_VINES;
;
	lda     #$02
;
; else if (settings_map == MAP_OUTDOORS)
;
	jmp     L2B6E
L2B73:	lda     _settings_map
	cmp     #$01
	bne     L2B74
;
; map_ptr = outdoors;
;
	lda     #>(_outdoors)
	sta     _map_ptr+1
	lda     #<(_outdoors)
	sta     _map_ptr
;
; map = MAP_OUTDOORS;
;
	lda     #$01
L2B6E:	sta     _map
;
; if (settings_speed == GAME_SLOW)
;
L2B74:	lda     _settings_speed
	bne     L2B75
;
; speed_option = SPEED_SLOW;
;
	tax
	lda     #$80
;
; else if (settings_speed == GAME_REGULAR)
;
	jmp     L2B77
L2B75:	lda     _settings_speed
	cmp     #$01
	bne     L2B76
;
; speed_option = SPEED_REGULAR;
;
	ldx     #$00
	lda     #$C0
;
; else if (settings_speed == GAME_FAST)
;
	jmp     L2B77
L2B76:	lda     _settings_speed
	cmp     #$02
	bne     L2642
;
; speed_option = SPEED_FAST;
;
	ldx     #$01
	lda     #$00
L2B77:	sta     _speed_option
	stx     _speed_option+1
;
; load_bg_palette();
;
L2642:	jsr     _load_bg_palette
;
; pal_spr(palette_sp);
;
	lda     #<(_palette_sp)
	ldx     #>(_palette_sp)
	jsr     _pal_spr
;
; start_round();
;
	jmp     _start_round

.endproc

; ---------------------------------------------------------------
; void __near__ init_options_loop (void)
; ---------------------------------------------------------------

.segment	"CODE"

.proc	_init_options_loop: near

.segment	"CODE"

;
; prev_pad1 = 0;
;
	lda     #$00
	sta     _prev_pad1
;
; prev_pad2 = 0;
;
	sta     _prev_pad2
;
; prev_pad3 = 0;
;
	sta     _prev_pad3
;
; prev_pad4 = 0;
;
	sta     _prev_pad4
;
; clear_background();
;
	jsr     _clear_background
;
; game_mode = MODE_OPTIONS;
;
	lda     #$01
	sta     _game_mode
;
; ppu_off(); // screen off
;
	jsr     _ppu_off
;
; load_room(); // loads the options screen
;
	jsr     _load_room
;
; pal_bg(palette_options_bg);
;
	lda     #<(_palette_options_bg)
	ldx     #>(_palette_options_bg)
	jsr     _pal_bg
;
; pal_spr(palette_sp);
;
	lda     #<(_palette_sp)
	ldx     #>(_palette_sp)
	jsr     _pal_spr
;
; options_anim_tick = 0;
;
	lda     #$00
	sta     _options_anim_tick
;
; multi_vram_buffer_horz("SPEED:", 6, NTADR_A(8, 8));
;
	jsr     decsp3
	lda     #<(L273A)
	ldy     #$01
	sta     (sp),y
	iny
	lda     #>(L273A)
	sta     (sp),y
	lda     #$06
	ldy     #$00
	sta     (sp),y
	ldx     #$21
	lda     #$08
	jsr     _multi_vram_buffer_horz
;
; multi_vram_buffer_horz("MAP:", 4, NTADR_A(8, 12));
;
	jsr     decsp3
	lda     #<(L2744)
	ldy     #$01
	sta     (sp),y
	iny
	lda     #>(L2744)
	sta     (sp),y
	lda     #$04
	ldy     #$00
	sta     (sp),y
	ldx     #$21
	lda     #$88
	jsr     _multi_vram_buffer_horz
;
; multi_vram_buffer_horz("MUSIC:", 6, NTADR_A(8, 16));
;
	jsr     decsp3
	lda     #<(L274E)
	ldy     #$01
	sta     (sp),y
	iny
	lda     #>(L274E)
	sta     (sp),y
	lda     #$06
	ldy     #$00
	sta     (sp),y
	ldx     #$22
	lda     #$08
	jsr     _multi_vram_buffer_horz
;
; multi_vram_buffer_horz("PRESS SELECT TO JOIN", 20, NTADR_A(6, 20));
;
	jsr     decsp3
	lda     #<(L2758)
	ldy     #$01
	sta     (sp),y
	iny
	lda     #>(L2758)
	sta     (sp),y
	lda     #$14
	ldy     #$00
	sta     (sp),y
	ldx     #$22
	lda     #$86
	jsr     _multi_vram_buffer_horz
;
; update_options_screen();
;
	jsr     _update_options_screen
;
; start_hold_timer = 0;
;
	lda     #$00
	sta     _start_hold_timer
;
; start_held = 1;
;
	lda     #$01
	sta     _start_held
;
; song = SONG_RANDOM; //this is actually the 4th song, the settings jingle
;
	lda     #$03
	sta     _song
;
; music_play(song);
;
	jsr     _music_play
;
; ppu_on_all(); // turn on screen
;
	jmp     _ppu_on_all

.endproc

; ---------------------------------------------------------------
; void __near__ init_gameover_loop (void)
; ---------------------------------------------------------------

.segment	"CODE"

.proc	_init_gameover_loop: near

.segment	"CODE"

;
; oam_clear();
;
	jsr     _oam_clear
;
; clear_background();
;
	jsr     _clear_background
;
; music_stop();
;
	jsr     _music_stop
;
; game_mode = MODE_GAMEOVER;
;
	lda     #$03
	sta     _game_mode
;
; ppu_off(); // screen off
;
	jsr     _ppu_off
;
; clear_vram_buffer();
;
	jsr     _clear_vram_buffer
;
; pal_spr(palette_sp);
;
	lda     #<(_palette_sp)
	ldx     #>(_palette_sp)
	jsr     _pal_spr
;
; if (team1_wins >= 3)
;
	lda     _team1_wins
	cmp     #$03
	bcc     L2B79
;
; multi_vram_buffer_horz("RED TEAM WINS", 13, NTADR_A(9, 4));
;
	jsr     decsp3
	lda     #<(L28BD)
	ldy     #$01
	sta     (sp),y
	iny
	lda     #>(L28BD)
	sta     (sp),y
	lda     #$0D
	ldy     #$00
	sta     (sp),y
	ldx     #$20
	lda     #$89
	jsr     _multi_vram_buffer_horz
;
; winner = ONETWO_WINNER;
;
	lda     #$01
;
; else if (team2_wins >= 3)
;
	jmp     L2B78
L2B79:	lda     _team2_wins
	cmp     #$03
	lda     #$00
	bcc     L2B7B
;
; multi_vram_buffer_horz("BLUE TEAM WINS", 14, NTADR_A(9, 4));
;
	jsr     decsp3
	lda     #<(L28CC)
	ldy     #$01
	sta     (sp),y
	iny
	lda     #>(L28CC)
	sta     (sp),y
	lda     #$0E
	ldy     #$00
	sta     (sp),y
	ldx     #$20
	lda     #$89
	jsr     _multi_vram_buffer_horz
;
; winner = THREEFOUR_WINNER;
;
	lda     #$02
L2B78:	sta     _winner
;
; bee1_bigbee_timer = 0;
;
	lda     #$00
L2B7B:	sta     _bee1_bigbee_timer
;
; bee3_bigbee_timer = 0;
;
	sta     _bee3_bigbee_timer
;
; if (winner == ONETWO_WINNER)
;
	lda     _winner
	cmp     #$01
	bne     L2B7C
;
; BoxGuy1.x = 0x6E00;
;
	ldx     #$6E
	lda     #$00
	sta     _BoxGuy1
	stx     _BoxGuy1+1
;
; BoxGuy1.y = 0x1200;
;
	ldx     #$12
	sta     _BoxGuy1+2
	stx     _BoxGuy1+2+1
;
; BoxGuy1.direction = DIR_RIGHT;
;
	lda     #$03
	sta     _BoxGuy1+4
;
; BoxGuy2.x = 0x8100;
;
	ldx     #$81
	lda     #$00
	sta     _BoxGuy2
	stx     _BoxGuy2+1
;
; BoxGuy2.y = 0x1200;
;
	ldx     #$12
	sta     _BoxGuy2+2
	stx     _BoxGuy2+2+1
;
; BoxGuy2.direction = DIR_LEFT;
;
	lda     #$02
	sta     _BoxGuy2+4
;
; BoxGuy2.moving = 1;
;
	lda     #$01
	sta     _BoxGuy2+5
;
; BoxGuy3.y = 0xF000;
;
	ldx     #$F0
	lda     #$00
	sta     _BoxGuy3+2
	stx     _BoxGuy3+2+1
;
; BoxGuy4.y = 0xF000;
;
	sta     _BoxGuy4+2
	stx     _BoxGuy4+2+1
;
; BoxGuy3.moving = 0;
;
	sta     _BoxGuy3+5
;
; BoxGuy4.moving = 0;
;
	sta     _BoxGuy4+5
;
; else if (winner == THREEFOUR_WINNER)
;
	jmp     L2B7D
L2B7C:	lda     _winner
	cmp     #$02
	bne     L2B7D
;
; BoxGuy3.x = 0x6E00;
;
	ldx     #$6E
	lda     #$00
	sta     _BoxGuy3
	stx     _BoxGuy3+1
;
; BoxGuy3.y = 0x1200;
;
	ldx     #$12
	sta     _BoxGuy3+2
	stx     _BoxGuy3+2+1
;
; BoxGuy3.direction = DIR_RIGHT;
;
	lda     #$03
	sta     _BoxGuy3+4
;
; BoxGuy4.x = 0x8100;
;
	ldx     #$81
	lda     #$00
	sta     _BoxGuy4
	stx     _BoxGuy4+1
;
; BoxGuy4.y = 0x1200;
;
	ldx     #$12
	sta     _BoxGuy4+2
	stx     _BoxGuy4+2+1
;
; BoxGuy4.direction = DIR_LEFT;
;
	lda     #$02
	sta     _BoxGuy4+4
;
; BoxGuy4.moving = 1;
;
	lda     #$01
	sta     _BoxGuy4+5
;
; BoxGuy1.y = 0xF000;
;
	ldx     #$F0
	lda     #$00
	sta     _BoxGuy1+2
	stx     _BoxGuy1+2+1
;
; BoxGuy2.y = 0xF000;
;
	sta     _BoxGuy2+2
	stx     _BoxGuy2+2+1
;
; BoxGuy1.moving = 0;
;
	sta     _BoxGuy1+5
;
; BoxGuy2.moving = 0;
;
	sta     _BoxGuy2+5
;
; temp_y = 8;
;
L2B7D:	lda     #$08
	sta     _temp_y
;
; multi_vram_buffer_horz("ROUND 1:", 9, NTADR_A(6, temp_y));
;
	jsr     decsp3
	lda     #<(L290F)
	ldy     #$01
	sta     (sp),y
	iny
	lda     #>(L290F)
	sta     (sp),y
	lda     #$09
	ldy     #$00
	sta     (sp),y
	ldx     #$00
	lda     _temp_y
	jsr     aslax4
	stx     tmp1
	asl     a
	rol     tmp1
	ora     #$06
	pha
	lda     tmp1
	ora     #$20
	tax
	pla
	jsr     _multi_vram_buffer_horz
;
; temp_winner = round_1_winner;
;
	lda     _round_1_winner
	sta     _temp_winner
;
; temp_round = round_1;
;
	lda     _round_1
	sta     _temp_round
;
; display_round_summary();
;
	jsr     _display_round_summary
;
; temp_y = 11;
;
	lda     #$0B
	sta     _temp_y
;
; multi_vram_buffer_horz("ROUND 2:", 9, NTADR_A(6, temp_y));
;
	jsr     decsp3
	lda     #<(L2920)
	ldy     #$01
	sta     (sp),y
	iny
	lda     #>(L2920)
	sta     (sp),y
	lda     #$09
	ldy     #$00
	sta     (sp),y
	ldx     #$00
	lda     _temp_y
	jsr     aslax4
	stx     tmp1
	asl     a
	rol     tmp1
	ora     #$06
	pha
	lda     tmp1
	ora     #$20
	tax
	pla
	jsr     _multi_vram_buffer_horz
;
; temp_winner = round_2_winner;
;
	lda     _round_2_winner
	sta     _temp_winner
;
; temp_round = round_2;
;
	lda     _round_2
	sta     _temp_round
;
; display_round_summary();
;
	jsr     _display_round_summary
;
; temp_y = 14;
;
	lda     #$0E
	sta     _temp_y
;
; multi_vram_buffer_horz("ROUND 3:", 9, NTADR_A(6, temp_y));
;
	jsr     decsp3
	lda     #<(L2931)
	ldy     #$01
	sta     (sp),y
	iny
	lda     #>(L2931)
	sta     (sp),y
	lda     #$09
	ldy     #$00
	sta     (sp),y
	ldx     #$00
	lda     _temp_y
	jsr     aslax4
	stx     tmp1
	asl     a
	rol     tmp1
	ora     #$06
	pha
	lda     tmp1
	ora     #$20
	tax
	pla
	jsr     _multi_vram_buffer_horz
;
; temp_winner = round_3_winner;
;
	lda     _round_3_winner
	sta     _temp_winner
;
; temp_round = round_3;
;
	lda     _round_3
	sta     _temp_round
;
; display_round_summary();
;
	jsr     _display_round_summary
;
; if (round_4 != 0)
;
	lda     _round_4
	beq     L2B7E
;
; temp_y = 17;
;
	lda     #$11
	sta     _temp_y
;
; multi_vram_buffer_horz("ROUND 4:", 9, NTADR_A(6, temp_y));
;
	jsr     decsp3
	lda     #<(L2944)
	ldy     #$01
	sta     (sp),y
	iny
	lda     #>(L2944)
	sta     (sp),y
	lda     #$09
	ldy     #$00
	sta     (sp),y
	ldx     #$00
	lda     _temp_y
	jsr     aslax4
	stx     tmp1
	asl     a
	rol     tmp1
	ora     #$06
	pha
	lda     tmp1
	ora     #$20
	tax
	pla
	jsr     _multi_vram_buffer_horz
;
; temp_winner = round_4_winner;
;
	lda     _round_4_winner
	sta     _temp_winner
;
; temp_round = round_4;
;
	lda     _round_4
	sta     _temp_round
;
; display_round_summary();
;
	jsr     _display_round_summary
;
; if (round_5 != 0)
;
L2B7E:	lda     _round_5
	beq     L2952
;
; temp_y = 20;
;
	lda     #$14
	sta     _temp_y
;
; multi_vram_buffer_horz("ROUND 5:", 9, NTADR_A(6, temp_y));
;
	jsr     decsp3
	lda     #<(L2957)
	ldy     #$01
	sta     (sp),y
	iny
	lda     #>(L2957)
	sta     (sp),y
	lda     #$09
	ldy     #$00
	sta     (sp),y
	ldx     #$00
	lda     _temp_y
	jsr     aslax4
	stx     tmp1
	asl     a
	rol     tmp1
	ora     #$06
	pha
	lda     tmp1
	ora     #$20
	tax
	pla
	jsr     _multi_vram_buffer_horz
;
; temp_winner = round_5_winner;
;
	lda     _round_5_winner
	sta     _temp_winner
;
; temp_round = round_5;
;
	lda     _round_5
	sta     _temp_round
;
; display_round_summary();
;
	jsr     _display_round_summary
;
; multi_vram_buffer_horz("PRESS START", 11, NTADR_A(10, 24));
;
L2952:	jsr     decsp3
	lda     #<(L2966)
	ldy     #$01
	sta     (sp),y
	iny
	lda     #>(L2966)
	sta     (sp),y
	lda     #$0B
	ldy     #$00
	sta     (sp),y
	ldx     #$23
	lda     #$0A
	jsr     _multi_vram_buffer_horz
;
; ppu_on_all(); // turn on screen
;
	jsr     _ppu_on_all
;
; delay(10);
;
	lda     #$0A
	jmp     _delay

.endproc

; ---------------------------------------------------------------
; void __near__ init_title_loop (void)
; ---------------------------------------------------------------

.segment	"CODE"

.proc	_init_title_loop: near

.segment	"CODE"

;
; oam_clear();
;
	jsr     _oam_clear
;
; delay(30);
;
	lda     #$1E
	jsr     _delay
;
; game_mode = MODE_TITLE;
;
	lda     #$00
	sta     _game_mode
;
; ppu_off(); // screen off
;
	jsr     _ppu_off
;
; pal_bg(palette_title_bg);
;
	lda     #<(_palette_title_bg)
	ldx     #>(_palette_title_bg)
	jsr     _pal_bg
;
; pal_spr(palette_sp);
;
	lda     #<(_palette_sp)
	ldx     #>(_palette_sp)
	jsr     _pal_spr
;
; load_room(); // loads the title screen;
;
	jsr     _load_room
;
; BoxGuy1.x = 0x2800; // x = 40 (0x28)
;
	ldx     #$28
	lda     #$00
	sta     _BoxGuy1
	stx     _BoxGuy1+1
;
; BoxGuy1.y = 0xC800; // y = 200 (0xC8)
;
	ldx     #$C8
	sta     _BoxGuy1+2
	stx     _BoxGuy1+2+1
;
; BoxGuy1.direction = DIR_NONE;
;
	lda     #$04
	sta     _BoxGuy1+4
;
; BoxGuy2.x = 0x7800; // x = 120 (0x78)
;
	ldx     #$78
	lda     #$00
	sta     _BoxGuy2
	stx     _BoxGuy2+1
;
; BoxGuy2.y = 0xC800; // y = 200 (0xC8)
;
	ldx     #$C8
	sta     _BoxGuy2+2
	stx     _BoxGuy2+2+1
;
; BoxGuy2.direction = DIR_NONE;
;
	lda     #$04
	sta     _BoxGuy2+4
;
; BoxGuy3.x = 0xC800; // x = 200 (0xC8)
;
	lda     #$00
	sta     _BoxGuy3
	stx     _BoxGuy3+1
;
; BoxGuy3.y = 0xC800; // y = 200 (0xC8)
;
	sta     _BoxGuy3+2
	stx     _BoxGuy3+2+1
;
; BoxGuy3.direction = DIR_NONE;
;
	lda     #$04
	sta     _BoxGuy3+4
;
; BoxGuy4.x = 0x1801; // x = 280 (0x118)
;
	ldx     #$18
	lda     #$01
	sta     _BoxGuy4
	stx     _BoxGuy4+1
;
; BoxGuy4.y = 0xC800; // y = 200 (0xC8)
;
	ldx     #$C8
	lda     #$00
	sta     _BoxGuy4+2
	stx     _BoxGuy4+2+1
;
; BoxGuy4.direction = DIR_NONE;
;
	lda     #$04
	sta     _BoxGuy4+4
;
; start_held = 1;
;
	lda     #$01
	sta     _start_held
;
; ppu_on_all(); // turn on screen
;
	jmp     _ppu_on_all

.endproc

; ---------------------------------------------------------------
; void __near__ init_system (void)
; ---------------------------------------------------------------

.segment	"CODE"

.proc	_init_system: near

.segment	"CODE"

;
; ppu_off();
;
	jsr     _ppu_off
;
; clear_vram_buffer();
;
	jsr     _clear_vram_buffer
;
; set_vram_buffer();
;
	jsr     _set_vram_buffer
;
; bank_spr(1);
;
	lda     #$01
	jsr     _bank_spr
;
; set_scroll_y(0xff); // shift the bg down one pixel
;
	ldx     #$00
	lda     #$FF
	jsr     _set_scroll_y
;
; settings_speed = GAME_REGULAR;
;
	lda     #$01
	sta     _settings_speed
;
; settings_map = MAP_RANDOM;
;
	lda     #$03
	sta     _settings_map
;
; settings_song = SONG_RANDOM;
;
	sta     _settings_song
;
; speed_option = SPEED_REGULAR;
;
	ldx     #$00
	lda     #$C0
	sta     _speed_option
	stx     _speed_option+1
;
; turbo_amount = TURBO_MEDIUM;
;
	lda     #$80
	sta     _turbo_amount
;
; ducks_go_faster_over_time = 1;
;
	lda     #$01
	sta     _ducks_go_faster_over_time
;
; collision_box_size = 6; // quacks and players are 6x6
;
	lda     #$06
	sta     _collision_box_size
;
; sprite_rotation = 0;
;
	txa
	sta     _sprite_rotation
;
; anim_frame_1 = 0;
;
	sta     _anim_frame_1
;
; anim_frame_2 = 0;
;
	sta     _anim_frame_2
;
; anim_frame_3 = 0;
;
	sta     _anim_frame_3
;
; anim_frame_4 = 0;
;
	sta     _anim_frame_4
;
; prev_pad1 = 0;
;
	sta     _prev_pad1
;
; prev_pad2 = 0;
;
	sta     _prev_pad2
;
; prev_pad3 = 0;
;
	sta     _prev_pad3
;
; prev_pad4 = 0;
;
	sta     _prev_pad4
;
; use_ai_player_1 = 1;
;
	lda     #$01
	sta     _use_ai_player_1
;
; use_ai_player_2 = 1;
;
	sta     _use_ai_player_2
;
; use_ai_player_3 = 1;
;
	sta     _use_ai_player_3
;
; use_ai_player_4 = 1;
;
	sta     _use_ai_player_4
;
; ai_timer_p1 = 0;
;
	txa
	sta     _ai_timer_p1
;
; ai_timer_p2 = 0;
;
	sta     _ai_timer_p2
;
; ai_timer_p3 = 0;
;
	sta     _ai_timer_p3
;
; ai_timer_p4 = 0;
;
	sta     _ai_timer_p4
;
; ai_dir_p1 = DIR_UP;
;
	sta     _ai_dir_p1
;
; ai_dir_p2 = DIR_UP;
;
	sta     _ai_dir_p2
;
; ai_dir_p3 = DIR_UP;
;
	sta     _ai_dir_p3
;
; ai_dir_p4 = DIR_UP;
;
	sta     _ai_dir_p4
;
; bee1_bigbee_timer = 0;
;
	sta     _bee1_bigbee_timer
;
; bee3_bigbee_timer = 0;
;
	sta     _bee3_bigbee_timer
;
; four_score_present = 1;
;
	lda     #$01
	sta     _four_score_present
;
; controller1_slot = 1;
;
	sta     _controller1_slot
;
; controller2_slot = 2;
;
	lda     #$02
	sta     _controller2_slot
;
; ppu_on_all(); // turn on screenxw
;
	jmp     _ppu_on_all

.endproc

; ---------------------------------------------------------------
; void __near__ clear_background (void)
; ---------------------------------------------------------------

.segment	"CODE"

.proc	_clear_background: near

.segment	"CODE"

;
; ppu_off(); // screen off
;
	jsr     _ppu_off
;
; vram_adr(NAMETABLE_A);
;
	ldx     #$20
	lda     #$00
	jsr     _vram_adr
;
; for (tempint = 0; tempint < 1024; ++tempint)
;
	lda     #$00
	sta     _tempint
	sta     _tempint+1
L29C1:	ldx     _tempint+1
	cpx     #$04
	bcs     L29C2
;
; vram_put(0x00);
;
	lda     #$00
	jsr     _vram_put
;
; for (tempint = 0; tempint < 1024; ++tempint)
;
	inc     _tempint
	bne     L29C1
	inc     _tempint+1
	jmp     L29C1
;
; ppu_on_all(); // turn on screen
;
L29C2:	jmp     _ppu_on_all

.endproc

; ---------------------------------------------------------------
; void __near__ update_hud (void)
; ---------------------------------------------------------------

.segment	"CODE"

.proc	_update_hud: near

.segment	"CODE"

;
; temp_x = 102;
;
	lda     #$66
	sta     _temp_x
;
; temp_y = 8;
;
	lda     #$08
	sta     _temp_y
;
; if (team1_win1 != 0xFF)
;
	lda     _team1_win1
	cmp     #$FF
	beq     L1CC3
;
; temp_win_team = 1;
;
	lda     #$01
	sta     _temp_win_team
;
; temp_win_reason = team1_win1;
;
	lda     _team1_win1
	sta     _temp_win_reason
;
; draw_win_round_sprite();
;
	jsr     _draw_win_round_sprite
;
; else
;
	jmp     L1CCA
;
; oam_meta_spr(temp_x, temp_y, gamesprites_win_unwon);
;
L1CC3:	jsr     decsp2
	lda     _temp_x
	ldy     #$01
	sta     (sp),y
	lda     _temp_y
	dey
	sta     (sp),y
	lda     #<(_gamesprites_win_unwon)
	ldx     #>(_gamesprites_win_unwon)
	jsr     _oam_meta_spr
;
; temp_x = 92;
;
L1CCA:	lda     #$5C
	sta     _temp_x
;
; temp_y = 8;
;
	lda     #$08
	sta     _temp_y
;
; if (team1_win2 != 0xFF)
;
	lda     _team1_win2
	cmp     #$FF
	beq     L1CD3
;
; temp_win_team = 1;
;
	lda     #$01
	sta     _temp_win_team
;
; temp_win_reason = team1_win2;
;
	lda     _team1_win2
	sta     _temp_win_reason
;
; draw_win_round_sprite();
;
	jsr     _draw_win_round_sprite
;
; else
;
	jmp     L1CDA
;
; oam_meta_spr(temp_x, temp_y, gamesprites_win_unwon);
;
L1CD3:	jsr     decsp2
	lda     _temp_x
	ldy     #$01
	sta     (sp),y
	lda     _temp_y
	dey
	sta     (sp),y
	lda     #<(_gamesprites_win_unwon)
	ldx     #>(_gamesprites_win_unwon)
	jsr     _oam_meta_spr
;
; temp_x = 82;
;
L1CDA:	lda     #$52
	sta     _temp_x
;
; temp_y = 8;
;
	lda     #$08
	sta     _temp_y
;
; if (team1_win3 != 0xFF)
;
	lda     _team1_win3
	cmp     #$FF
	beq     L1CE3
;
; temp_win_team = 1;
;
	lda     #$01
	sta     _temp_win_team
;
; temp_win_reason = team1_win3;
;
	lda     _team1_win3
	sta     _temp_win_reason
;
; draw_win_round_sprite();
;
	jsr     _draw_win_round_sprite
;
; else
;
	jmp     L1CEA
;
; oam_meta_spr(temp_x, temp_y, gamesprites_win_unwon);
;
L1CE3:	jsr     decsp2
	lda     _temp_x
	ldy     #$01
	sta     (sp),y
	lda     _temp_y
	dey
	sta     (sp),y
	lda     #<(_gamesprites_win_unwon)
	ldx     #>(_gamesprites_win_unwon)
	jsr     _oam_meta_spr
;
; temp_x = 146;
;
L1CEA:	lda     #$92
	sta     _temp_x
;
; temp_y = 8;
;
	lda     #$08
	sta     _temp_y
;
; if (team2_win1 != 0xFF)
;
	lda     _team2_win1
	cmp     #$FF
	beq     L1CF3
;
; temp_win_team = 2;
;
	lda     #$02
	sta     _temp_win_team
;
; temp_win_reason = team2_win1;
;
	lda     _team2_win1
	sta     _temp_win_reason
;
; draw_win_round_sprite();
;
	jsr     _draw_win_round_sprite
;
; else
;
	jmp     L1CFA
;
; oam_meta_spr(temp_x, temp_y, gamesprites_win_unwon);
;
L1CF3:	jsr     decsp2
	lda     _temp_x
	ldy     #$01
	sta     (sp),y
	lda     _temp_y
	dey
	sta     (sp),y
	lda     #<(_gamesprites_win_unwon)
	ldx     #>(_gamesprites_win_unwon)
	jsr     _oam_meta_spr
;
; temp_x = 156;
;
L1CFA:	lda     #$9C
	sta     _temp_x
;
; temp_y = 8;
;
	lda     #$08
	sta     _temp_y
;
; if (team2_win2 != 0xFF)
;
	lda     _team2_win2
	cmp     #$FF
	beq     L1D03
;
; temp_win_team = 2;
;
	lda     #$02
	sta     _temp_win_team
;
; temp_win_reason = team2_win2;
;
	lda     _team2_win2
	sta     _temp_win_reason
;
; draw_win_round_sprite();
;
	jsr     _draw_win_round_sprite
;
; else
;
	jmp     L1D0A
;
; oam_meta_spr(temp_x, temp_y, gamesprites_win_unwon);
;
L1D03:	jsr     decsp2
	lda     _temp_x
	ldy     #$01
	sta     (sp),y
	lda     _temp_y
	dey
	sta     (sp),y
	lda     #<(_gamesprites_win_unwon)
	ldx     #>(_gamesprites_win_unwon)
	jsr     _oam_meta_spr
;
; temp_x = 166;
;
L1D0A:	lda     #$A6
	sta     _temp_x
;
; temp_y = 8;
;
	lda     #$08
	sta     _temp_y
;
; if (team2_win3 != 0xFF)
;
	lda     _team2_win3
	cmp     #$FF
	beq     L1D13
;
; temp_win_team = 2;
;
	lda     #$02
	sta     _temp_win_team
;
; temp_win_reason = team2_win3;
;
	lda     _team2_win3
	sta     _temp_win_reason
;
; draw_win_round_sprite();
;
	jmp     _draw_win_round_sprite
;
; oam_meta_spr(temp_x, temp_y, gamesprites_win_unwon);
;
L1D13:	jsr     decsp2
	lda     _temp_x
	ldy     #$01
	sta     (sp),y
	lda     _temp_y
	dey
	sta     (sp),y
	lda     #<(_gamesprites_win_unwon)
	ldx     #>(_gamesprites_win_unwon)
	jmp     _oam_meta_spr

.endproc

; ---------------------------------------------------------------
; void __near__ init_roundover (void)
; ---------------------------------------------------------------

.segment	"CODE"

.proc	_init_roundover: near

.segment	"CODE"

;
; game_mode = MODE_ROUNDOVER;
;
	lda     #$04
	sta     _game_mode
;
; music_stop();
;
	jsr     _music_stop
;
; if (winner == ONETWO_WINNER)
;
	lda     _winner
	cmp     #$01
	bne     L2B80
;
; team1_wins++;
;
	inc     _team1_wins
;
; else if (winner == THREEFOUR_WINNER)
;
	jmp     L2B81
L2B80:	lda     _winner
	cmp     #$02
	bne     L2B81
;
; team2_wins++;
;
	inc     _team2_wins
;
; if (current_round == 1)
;
L2B81:	lda     _current_round
	cmp     #$01
	bne     L2B83
;
; round_1 = win_reason;
;
	lda     _win_reason
	sta     _round_1
;
; if (winner == ONETWO_WINNER)
;
	lda     _winner
	cmp     #$01
	bne     L2B82
;
; round_1_winner = TEAM1_WIN;
;
	lda     #$80
	sta     _round_1_winner
;
; else if (winner == THREEFOUR_WINNER)
;
	jmp     L2B8B
L2B82:	lda     _winner
	cmp     #$02
	jne     L2B8B
;
; round_1_winner = TEAM2_WIN;
;
	lda     #$40
	sta     _round_1_winner
;
; else if (current_round == 2)
;
	jmp     L2B8B
L2B83:	lda     _current_round
	cmp     #$02
	bne     L2B85
;
; round_2 = win_reason;
;
	lda     _win_reason
	sta     _round_2
;
; if (winner == ONETWO_WINNER)
;
	lda     _winner
	cmp     #$01
	bne     L2B84
;
; round_2_winner = TEAM1_WIN;
;
	lda     #$80
	sta     _round_2_winner
;
; else if (winner == THREEFOUR_WINNER)
;
	jmp     L2B8B
L2B84:	lda     _winner
	cmp     #$02
	jne     L2B8B
;
; round_2_winner = TEAM2_WIN;
;
	lda     #$40
	sta     _round_2_winner
;
; else if (current_round == 3)
;
	jmp     L2B8B
L2B85:	lda     _current_round
	cmp     #$03
	bne     L2B87
;
; round_3 = win_reason;
;
	lda     _win_reason
	sta     _round_3
;
; if (winner == ONETWO_WINNER)
;
	lda     _winner
	cmp     #$01
	bne     L2B86
;
; round_3_winner = TEAM1_WIN;
;
	lda     #$80
	sta     _round_3_winner
;
; else if (winner == THREEFOUR_WINNER)
;
	jmp     L2B8B
L2B86:	lda     _winner
	cmp     #$02
	bne     L2B8B
;
; round_3_winner = TEAM2_WIN;
;
	lda     #$40
	sta     _round_3_winner
;
; else if (current_round == 4)
;
	jmp     L2B8B
L2B87:	lda     _current_round
	cmp     #$04
	bne     L2B89
;
; round_4 = win_reason;
;
	lda     _win_reason
	sta     _round_4
;
; if (winner == ONETWO_WINNER)
;
	lda     _winner
	cmp     #$01
	bne     L2B88
;
; round_4_winner = TEAM1_WIN;
;
	lda     #$80
	sta     _round_4_winner
;
; else if (winner == THREEFOUR_WINNER)
;
	jmp     L2B8B
L2B88:	lda     _winner
	cmp     #$02
	bne     L2B8B
;
; round_4_winner = TEAM2_WIN;
;
	lda     #$40
	sta     _round_4_winner
;
; else if (current_round == 5)
;
	jmp     L2B8B
L2B89:	lda     _current_round
	cmp     #$05
	bne     L2B8B
;
; round_5 = win_reason;
;
	lda     _win_reason
	sta     _round_5
;
; if (winner == ONETWO_WINNER)
;
	lda     _winner
	cmp     #$01
	bne     L2B8A
;
; round_5_winner = TEAM1_WIN;
;
	lda     #$80
;
; else if (winner == THREEFOUR_WINNER)
;
	jmp     L2B7F
L2B8A:	lda     _winner
	cmp     #$02
	bne     L2B8B
;
; round_5_winner = TEAM2_WIN;
;
	lda     #$40
L2B7F:	sta     _round_5_winner
;
; if (winner == ONETWO_WINNER)
;
L2B8B:	lda     _winner
	cmp     #$01
	bne     L2B8E
;
; if (team1_wins == 1)
;
	lda     _team1_wins
	cmp     #$01
	bne     L2B8C
;
; team1_win1 = win_reason;
;
	lda     _win_reason
	sta     _team1_win1
;
; else if (team1_wins == 2)
;
	jmp     L2B91
L2B8C:	lda     _team1_wins
	cmp     #$02
	bne     L2B8D
;
; team1_win2 = win_reason;
;
	lda     _win_reason
	sta     _team1_win2
;
; else if (team1_wins == 3)
;
	jmp     L2B91
L2B8D:	lda     _team1_wins
	cmp     #$03
	bne     L2B91
;
; team1_win3 = win_reason;
;
	lda     _win_reason
	sta     _team1_win3
;
; else if (winner == THREEFOUR_WINNER)
;
	jmp     L2B91
L2B8E:	lda     _winner
	cmp     #$02
	bne     L2B91
;
; if (team2_wins == 1)
;
	lda     _team2_wins
	cmp     #$01
	bne     L2B8F
;
; team2_win1 = win_reason;
;
	lda     _win_reason
	sta     _team2_win1
;
; else if (team2_wins == 2)
;
	jmp     L2B91
L2B8F:	lda     _team2_wins
	cmp     #$02
	bne     L2B90
;
; team2_win2 = win_reason;
;
	lda     _win_reason
	sta     _team2_win2
;
; else if (team2_wins == 3)
;
	jmp     L2B91
L2B90:	lda     _team2_wins
	cmp     #$03
	bne     L2B91
;
; team2_win3 = win_reason;
;
	lda     _win_reason
	sta     _team2_win3
;
; if (winner != TIE_WINNER)
;
L2B91:	lda     _winner
	cmp     #$03
	beq     L27DC
;
; current_round++;
;
	inc     _current_round
;
; multi_vram_buffer_horz("                      ", 22, NTADR_A(5, 3));
;
L27DC:	jsr     decsp3
	lda     #<(L27E0)
	ldy     #$01
	sta     (sp),y
	iny
	lda     #>(L27E0)
	sta     (sp),y
	lda     #$16
	ldy     #$00
	sta     (sp),y
	ldx     #$20
	lda     #$65
	jsr     _multi_vram_buffer_horz
;
; if (win_reason == WIN_HONEY_COLLECTED)
;
	lda     _win_reason
	cmp     #$20
	bne     L2B92
;
; multi_vram_buffer_horz("COLLECTED 100 HONEY", 19, NTADR_A(6, 3));
;
	jsr     decsp3
	lda     #<(L27EC)
	ldy     #$01
	sta     (sp),y
	iny
	lda     #>(L27EC)
	sta     (sp),y
	lda     #$13
	ldy     #$00
	sta     (sp),y
	ldx     #$20
	lda     #$66
	jmp     _multi_vram_buffer_horz
;
; else if (win_reason == WIN_FRIENDLY_FIRE_BEE_EATEN)
;
L2B92:	lda     _win_reason
	cmp     #$10
	bne     L2B93
;
; multi_vram_buffer_horz("FRIENDLY BEE EATEN", 18, NTADR_A(7, 3));
;
	jsr     decsp3
	lda     #<(L27F9)
	ldy     #$01
	sta     (sp),y
	iny
	lda     #>(L27F9)
	sta     (sp),y
	lda     #$12
	ldy     #$00
	sta     (sp),y
	ldx     #$20
	lda     #$67
	jmp     _multi_vram_buffer_horz
;
; else if (win_reason == WIN_FRIENDLY_FIRE_DUCK_EATEN)
;
L2B93:	lda     _win_reason
	cmp     #$08
	bne     L2B94
;
; multi_vram_buffer_horz("FRIENDLY DUCK EATEN", 19, NTADR_A(6, 3));
;
	jsr     decsp3
	lda     #<(L2806)
	ldy     #$01
	sta     (sp),y
	iny
	lda     #>(L2806)
	sta     (sp),y
	lda     #$13
	ldy     #$00
	sta     (sp),y
	ldx     #$20
	lda     #$66
	jmp     _multi_vram_buffer_horz
;
; else if (win_reason == WIN_BEE_EATEN)
;
L2B94:	lda     _win_reason
	cmp     #$04
	bne     L2B95
;
; multi_vram_buffer_horz("ENEMY BEE EATEN", 15, NTADR_A(8, 3));
;
	jsr     decsp3
	lda     #<(L2813)
	ldy     #$01
	sta     (sp),y
	iny
	lda     #>(L2813)
	sta     (sp),y
	lda     #$0F
	ldy     #$00
	sta     (sp),y
	ldx     #$20
	lda     #$68
	jmp     _multi_vram_buffer_horz
;
; else if (win_reason == WIN_DUCK_EATEN)
;
L2B95:	lda     _win_reason
	cmp     #$02
	bne     L2B96
;
; multi_vram_buffer_horz("BIGBEE ATE DUCK!", 16, NTADR_A(8, 3));
;
	jsr     decsp3
	lda     #<(L2820)
	ldy     #$01
	sta     (sp),y
	iny
	lda     #>(L2820)
	sta     (sp),y
	lda     #$10
	ldy     #$00
	sta     (sp),y
	ldx     #$20
	lda     #$68
	jmp     _multi_vram_buffer_horz
;
; else if (win_reason == WIN_MOST_HONEY_COLLECTED)
;
L2B96:	lda     _win_reason
	cmp     #$01
	bne     L282A
;
; multi_vram_buffer_horz("COLLECTED MORE HONEY", 20, NTADR_A(6, 3));
;
	jsr     decsp3
	lda     #<(L282D)
	ldy     #$01
	sta     (sp),y
	iny
	lda     #>(L282D)
	sta     (sp),y
	lda     #$14
	ldy     #$00
	sta     (sp),y
	ldx     #$20
	lda     #$66
	jmp     _multi_vram_buffer_horz
;
; multi_vram_buffer_horz("DRAW GAME!", 10, NTADR_A(11, 3));
;
L282A:	jsr     decsp3
	lda     #<(L2838)
	ldy     #$01
	sta     (sp),y
	iny
	lda     #>(L2838)
	sta     (sp),y
	lda     #$0A
	ldy     #$00
	sta     (sp),y
	ldx     #$20
	lda     #$6B
	jmp     _multi_vram_buffer_horz

.endproc

; ---------------------------------------------------------------
; void __near__ start_round (void)
; ---------------------------------------------------------------

.segment	"CODE"

.proc	_start_round: near

.segment	"CODE"

;
; if (settings_map == MAP_RANDOM)
;
	lda     _settings_map
	cmp     #$03
	bne     L24F1
;
; if (frame_counter % 3 == 0)
;
	lda     _frame_counter
	jsr     pusha0
	lda     #$03
	jsr     tosumoda0
	cpx     #$00
	bne     L2BA5
	cmp     #$00
	bne     L2BA5
;
; map_ptr = combs;
;
	lda     #>(_combs)
	sta     _map_ptr+1
	lda     #<(_combs)
	sta     _map_ptr
;
; map = MAP_COMBS;
;
	txa
;
; else if (frame_counter % 3 == 1)
;
	jmp     L2B97
L2BA5:	lda     _frame_counter
	jsr     pusha0
	lda     #$03
	jsr     tosumoda0
	cpx     #$00
	bne     L24FB
	cmp     #$01
	bne     L24FB
;
; map_ptr = vines;
;
	lda     #>(_vines)
	sta     _map_ptr+1
	lda     #<(_vines)
	sta     _map_ptr
;
; map = MAP_VINES;
;
	lda     #$02
;
; else
;
	jmp     L2B97
;
; map_ptr = outdoors;
;
L24FB:	lda     #>(_outdoors)
	sta     _map_ptr+1
	lda     #<(_outdoors)
	sta     _map_ptr
;
; map = MAP_OUTDOORS;
;
	lda     #$01
L2B97:	sta     _map
;
; load_bg_palette();
;
	jsr     _load_bg_palette
;
; load_room();
;
L24F1:	jsr     _load_room
;
; for (index = 0; index < 128; index++)
;
	lda     #$00
	sta     _index
L2B9B:	lda     _index
	cmp     #$80
	bcs     L2B9C
;
; consumed_dots[index] = 0;
;
	ldy     _index
	lda     #$00
	sta     _consumed_dots,y
;
; for (index = 0; index < 128; index++)
;
	inc     _index
	jmp     L2B9B
;
; if (map == MAP_COMBS)
;
L2B9C:	lda     _map
	bne     L2B9D
;
; BoxGuy1.x = 0x3800;
;
	ldx     #$38
	sta     _BoxGuy1
	stx     _BoxGuy1+1
;
; BoxGuy1.y = 0xA800;
;
	ldx     #$A8
	sta     _BoxGuy1+2
	stx     _BoxGuy1+2+1
;
; BoxGuy2.x = 0x5000;
;
	ldx     #$50
	sta     _BoxGuy2
	stx     _BoxGuy2+1
;
; BoxGuy2.y = 0x2800;
;
	ldx     #$28
	sta     _BoxGuy2+2
	stx     _BoxGuy2+2+1
;
; BoxGuy3.x = 0xC000;
;
	ldx     #$C0
	sta     _BoxGuy3
	stx     _BoxGuy3+1
;
; BoxGuy3.y = 0xA800;
;
	ldx     #$A8
	sta     _BoxGuy3+2
	stx     _BoxGuy3+2+1
;
; BoxGuy4.x = 0xA000;
;
	ldx     #$A0
	sta     _BoxGuy4
	stx     _BoxGuy4+1
;
; BoxGuy4.y = 0x2800;
;
	ldx     #$28
;
; else if (map == MAP_VINES)
;
	jmp     L2BA4
L2B9D:	lda     _map
	cmp     #$02
	bne     L2B9E
;
; BoxGuy1.x = 0x6000;
;
	ldx     #$60
	lda     #$00
	sta     _BoxGuy1
	stx     _BoxGuy1+1
;
; BoxGuy1.y = 0xA000;
;
	ldx     #$A0
	sta     _BoxGuy1+2
	stx     _BoxGuy1+2+1
;
; BoxGuy2.x = 0x4800;
;
	ldx     #$48
	sta     _BoxGuy2
	stx     _BoxGuy2+1
;
; BoxGuy2.y = 0x4800;
;
	sta     _BoxGuy2+2
	stx     _BoxGuy2+2+1
;
; BoxGuy3.x = 0x9800;
;
	ldx     #$98
	sta     _BoxGuy3
	stx     _BoxGuy3+1
;
; BoxGuy3.y = 0xA000;
;
	ldx     #$A0
	sta     _BoxGuy3+2
	stx     _BoxGuy3+2+1
;
; BoxGuy4.x = 0xB000;
;
	ldx     #$B0
	sta     _BoxGuy4
	stx     _BoxGuy4+1
;
; BoxGuy4.y = 0x4800;
;
	ldx     #$48
;
; else if (map == MAP_OUTDOORS)
;
	jmp     L2BA4
L2B9E:	lda     _map
	cmp     #$01
	bne     L2B9F
;
; BoxGuy1.x = 0x2800;
;
	ldx     #$28
	lda     #$00
	sta     _BoxGuy1
	stx     _BoxGuy1+1
;
; BoxGuy1.y = 0x2000;
;
	ldx     #$20
	sta     _BoxGuy1+2
	stx     _BoxGuy1+2+1
;
; BoxGuy2.x = 0x2800;
;
	ldx     #$28
	sta     _BoxGuy2
	stx     _BoxGuy2+1
;
; BoxGuy2.y = 0xd800;
;
	ldx     #$D8
	sta     _BoxGuy2+2
	stx     _BoxGuy2+2+1
;
; BoxGuy3.x = 0xD800;
;
	sta     _BoxGuy3
	stx     _BoxGuy3+1
;
; BoxGuy3.y = 0x2000;
;
	ldx     #$20
	sta     _BoxGuy3+2
	stx     _BoxGuy3+2+1
;
; BoxGuy4.x = 0xD800;
;
	ldx     #$D8
	sta     _BoxGuy4
	stx     _BoxGuy4+1
;
; BoxGuy4.y = 0xD800;
;
L2BA4:	sta     _BoxGuy4+2
	stx     _BoxGuy4+2+1
;
; team1_score = 0;
;
L2B9F:	lda     #$00
	sta     _team1_score
;
; team2_score = 0;
;
	sta     _team2_score
;
; powerup1 = 1;
;
	lda     #$01
	sta     _powerup1
;
; powerup2 = 1;
;
	sta     _powerup2
;
; powerup3 = 1;
;
	sta     _powerup3
;
; powerup4 = 1;
;
	sta     _powerup4
;
; game_timer = GAME_LENGTH;
;
	lda     #$63
	sta     _game_timer
;
; win_reason = WIN_HONEY_COLLECTED; // default
;
	lda     #$20
	sta     _win_reason
;
; winner = UNDEFINED_WINNER;
;
	lda     #$00
	sta     _winner
;
; turbo_p1 = turbo_amount;
;
	lda     _turbo_amount
	sta     _turbo_p1
;
; turbo_p2 = turbo_amount;
;
	lda     _turbo_amount
	sta     _turbo_p2
;
; turbo_p3 = turbo_amount;
;
	lda     _turbo_amount
	sta     _turbo_p3
;
; turbo_p4 = turbo_amount;
;
	lda     _turbo_amount
	sta     _turbo_p4
;
; stun_p1 = 0;
;
	lda     #$00
	sta     _stun_p1
;
; stun_p2 = 0;
;
	sta     _stun_p2
;
; stun_p3 = 0;
;
	sta     _stun_p3
;
; quack2.moving = 0;
;
	sta     _quack2+5
;
; quack4.moving = 0;
;
	sta     _quack4+5
;
; quack2_cooldown = 0;
;
	sta     _quack2_cooldown
;
; quack4_cooldown = 0;
;
	sta     _quack4_cooldown
;
; bee1_bigbee_timer = 0;
;
	sta     _bee1_bigbee_timer
;
; bee3_bigbee_timer = 0;
;
	sta     _bee3_bigbee_timer
;
; ppu_wait_nmi();
;
	jsr     _ppu_wait_nmi
;
; oam_clear();
;
	jsr     _oam_clear
;
; draw_hud();
;
	jsr     _draw_hud
;
; update_hud();
;
	jsr     _update_hud
;
; draw_player_1();
;
	jsr     _draw_player_1
;
; draw_player_2();
;
	jsr     _draw_player_2
;
; draw_player_3();
;
	jsr     _draw_player_3
;
; draw_player_4();
;
	jsr     _draw_player_4
;
; oam_meta_spr(116, 100, gamesprites_big3_data);
;
	jsr     decsp2
	lda     #$74
	ldy     #$01
	sta     (sp),y
	lda     #$64
	dey
	sta     (sp),y
	lda     #<(_gamesprites_big3_data)
	ldx     #>(_gamesprites_big3_data)
	jsr     _oam_meta_spr
;
; sfx_play(SFX_TEAM1_DOT_COLLECT, 0);
;
	lda     #$00
	jsr     pusha
	jsr     _sfx_play
;
; ppu_wait_nmi();
;
	jsr     _ppu_wait_nmi
;
; delay(40);
;
	lda     #$28
	jsr     _delay
;
; oam_clear();
;
	jsr     _oam_clear
;
; update_hud();
;
	jsr     _update_hud
;
; draw_hud();
;
	jsr     _draw_hud
;
; draw_player_1();
;
	jsr     _draw_player_1
;
; draw_player_2();
;
	jsr     _draw_player_2
;
; draw_player_3();
;
	jsr     _draw_player_3
;
; draw_player_4();
;
	jsr     _draw_player_4
;
; ppu_wait_nmi();
;
	jsr     _ppu_wait_nmi
;
; oam_meta_spr(116, 100, gamesprites_big2_data);
;
	jsr     decsp2
	lda     #$74
	ldy     #$01
	sta     (sp),y
	lda     #$64
	dey
	sta     (sp),y
	lda     #<(_gamesprites_big2_data)
	ldx     #>(_gamesprites_big2_data)
	jsr     _oam_meta_spr
;
; sfx_play(SFX_TEAM1_DOT_COLLECT, 0);
;
	lda     #$00
	jsr     pusha
	jsr     _sfx_play
;
; delay(40);
;
	lda     #$28
	jsr     _delay
;
; oam_clear();
;
	jsr     _oam_clear
;
; update_hud();
;
	jsr     _update_hud
;
; draw_hud();
;
	jsr     _draw_hud
;
; draw_player_1();
;
	jsr     _draw_player_1
;
; draw_player_2();
;
	jsr     _draw_player_2
;
; draw_player_3();
;
	jsr     _draw_player_3
;
; draw_player_4();
;
	jsr     _draw_player_4
;
; ppu_wait_nmi();
;
	jsr     _ppu_wait_nmi
;
; oam_meta_spr(116, 100, gamesprites_big1_data);
;
	jsr     decsp2
	lda     #$74
	ldy     #$01
	sta     (sp),y
	lda     #$64
	dey
	sta     (sp),y
	lda     #<(_gamesprites_big1_data)
	ldx     #>(_gamesprites_big1_data)
	jsr     _oam_meta_spr
;
; sfx_play(SFX_TEAM1_DOT_COLLECT, 0);
;
	lda     #$00
	jsr     pusha
	jsr     _sfx_play
;
; delay(40);
;
	lda     #$28
	jsr     _delay
;
; oam_clear();
;
	jsr     _oam_clear
;
; update_hud();
;
	jsr     _update_hud
;
; draw_hud();
;
	jsr     _draw_hud
;
; draw_player_1();
;
	jsr     _draw_player_1
;
; draw_player_2();
;
	jsr     _draw_player_2
;
; draw_player_3();
;
	jsr     _draw_player_3
;
; draw_player_4();
;
	jsr     _draw_player_4
;
; ppu_wait_nmi();
;
	jsr     _ppu_wait_nmi
;
; sfx_play(SFX_START, 0);
;
	lda     #$08
	jsr     pusha
	lda     #$00
	jsr     _sfx_play
;
; delay(10);
;
	lda     #$0A
	jsr     _delay
;
; ppu_wait_nmi();
;
	jsr     _ppu_wait_nmi
;
; game_mode = MODE_GAME;
;
	lda     #$02
	sta     _game_mode
;
; if (settings_song == SONG_BEE)
;
	lda     _settings_song
;
; else if (settings_song == SONG_LAKE)
;
	beq     L2B99
	cmp     #$01
;
; else if (settings_song == SONG_HONEY)
;
	beq     L2B99
	cmp     #$02
;
; else if (settings_song == SONG_RANDOM)
;
	beq     L2B99
	cmp     #$03
	bne     L2BA3
;
; if (frame_counter % 3 == 0)
;
	lda     _frame_counter
	jsr     pusha0
	lda     #$03
	jsr     tosumoda0
	cpx     #$00
	bne     L25CE
	cmp     #$00
;
; else if (frame_counter % 3 == 1)
;
	beq     L2B99
L25CE:	lda     _frame_counter
	jsr     pusha0
	lda     #$03
	jsr     tosumoda0
	cpx     #$00
	bne     L25D4
	cmp     #$01
;
; else
;
	beq     L2B99
;
; song = SONG_HONEY;
;
L25D4:	lda     #$02
L2B99:	sta     _song
;
; if(settings_song == SONG_RANDOM)
;
L2BA3:	lda     _settings_song
	cmp     #$03
	bne     L25E9
;
; if (frame_counter % 3 == 0)
;
	lda     _frame_counter
	jsr     pusha0
	lda     #$03
	jsr     tosumoda0
	cpx     #$00
	bne     L25DE
	cmp     #$00
;
; else if (frame_counter % 3 == 1)
;
	beq     L2B9A
L25DE:	lda     _frame_counter
	jsr     pusha0
	lda     #$03
	jsr     tosumoda0
	cpx     #$00
	bne     L25E4
	cmp     #$01
;
; else
;
	beq     L2B9A
;
; song = SONG_HONEY;
;
L25E4:	lda     #$02
L2B9A:	sta     _song
;
; music_play(song);
;
L25E9:	lda     _song
	jmp     _music_play

.endproc

; ---------------------------------------------------------------
; void __near__ roundover_loop (void)
; ---------------------------------------------------------------

.segment	"CODE"

.proc	_roundover_loop: near

.segment	"CODE"

;
; ++frame_counter;
;
L29CE:	inc     _frame_counter
;
; draw_sprites();
;
	jsr     _draw_sprites
;
; update_hud();
;
	jsr     _update_hud
;
; draw_hud();
;
	jsr     _draw_hud
;
; ppu_wait_nmi();
;
	jsr     _ppu_wait_nmi
;
; read_controllers();
;
	jsr     _read_controllers
;
; if (pad1_new & PAD_START || pad2_new & PAD_START || pad3_new & PAD_START || pad4_new & PAD_START)
;
	lda     _pad1_new
	and     #$10
	bne     L2BA6
	lda     _pad2_new
	and     #$10
	bne     L2BA6
	lda     _pad3_new
	and     #$10
	bne     L2BA6
	lda     _pad4_new
	and     #$10
	beq     L29CE
;
; if (team1_wins >= 3)
;
L2BA6:	lda     _team1_wins
	cmp     #$03
;
; init_gameover_loop();
;
	jcs     _init_gameover_loop
;
; else if (team2_wins >= 3)
;
	lda     _team2_wins
	cmp     #$03
;
; init_gameover_loop();
;
	jcs     _init_gameover_loop
;
; start_round();
;
	jmp     _start_round

.endproc

; ---------------------------------------------------------------
; void __near__ game_counters (void)
; ---------------------------------------------------------------

.segment	"CODE"

.proc	_game_counters: near

.segment	"CODE"

;
; frame_counter++;
;
	inc     _frame_counter
;
; game_frame_timer++;
;
	inc     _game_frame_timer
;
; sprite_rotation++;
;
	inc     _sprite_rotation
;
; if (game_frame_timer >= tick_frequency)
;
	lda     _game_frame_timer
	cmp     _tick_frequency
	bcs     L2BB5
;
; }
;
	rts
;
; game_frame_timer = 0; // reset the frame timer
;
L2BB5:	lda     #$00
	sta     _game_frame_timer
;
; game_timer--;
;
	dec     _game_timer
;
; if (game_timer == 0)
;
	bne     L2BAB
;
; if (team1_score > team2_score)
;
	lda     _team1_score
	sec
	sbc     _team2_score
	bcc     L2BA9
	beq     L2BA9
;
; winner = ONETWO_WINNER;
;
	lda     #$01
	sta     _winner
;
; win_reason = WIN_MOST_HONEY_COLLECTED;
;
	sta     _win_reason
;
; sfx_play(SFX_TEAM1_WIN, 0);
;
	lda     #$02
;
; else if (team2_score > team1_score)
;
	jmp     L2BB4
L2BA9:	lda     _team2_score
	sec
	sbc     _team1_score
	bcc     L2BAA
	beq     L2BAA
;
; winner = THREEFOUR_WINNER;
;
	lda     #$02
	sta     _winner
;
; win_reason = WIN_MOST_HONEY_COLLECTED;
;
	lda     #$01
	sta     _win_reason
;
; sfx_play(SFX_TEAM2_WIN, 0);
;
	lda     #$03
;
; else
;
	jmp     L2BB4
;
; winner = TIE_WINNER;
;
L2BAA:	lda     #$03
	sta     _winner
;
; win_reason = WIN_TIMEUP;
;
	sta     _win_reason
;
; sfx_play(SFX_DRAW_GAME, 0);
;
	lda     #$04
L2BB4:	jsr     pusha
	lda     #$00
	jsr     _sfx_play
;
; init_roundover();
;
	jsr     _init_roundover
;
; if (quack2_cooldown > 0)
;
L2BAB:	lda     _quack2_cooldown
	beq     L2BAC
;
; quack2_cooldown--;
;
	dec     _quack2_cooldown
;
; if (quack4_cooldown > 0)
;
L2BAC:	lda     _quack4_cooldown
	beq     L2BAD
;
; quack4_cooldown--;
;
	dec     _quack4_cooldown
;
; if (stun_p1 > 0)
;
L2BAD:	lda     _stun_p1
	beq     L2BAE
;
; stun_p1--;
;
	dec     _stun_p1
;
; if (stun_p2 > 0)
;
L2BAE:	lda     _stun_p2
	beq     L2BAF
;
; stun_p2--;
;
	dec     _stun_p2
;
; if (stun_p3 > 0)
;
L2BAF:	lda     _stun_p3
	beq     L2BB0
;
; stun_p3--;
;
	dec     _stun_p3
;
; if (stun_p4 > 0)
;
L2BB0:	lda     _stun_p4
	beq     L2BB1
;
; stun_p4--;
;
	dec     _stun_p4
;
; if (bee1_bigbee_timer > 0)
;
L2BB1:	lda     _bee1_bigbee_timer
	beq     L2BB2
;
; bee1_bigbee_timer--;
;
	dec     _bee1_bigbee_timer
;
; if (bee3_bigbee_timer > 0)
;
L2BB2:	lda     _bee3_bigbee_timer
	beq     L2A1F
;
; bee3_bigbee_timer--;
;
	dec     _bee3_bigbee_timer
;
; }
;
L2A1F:	rts

.endproc

; ---------------------------------------------------------------
; void __near__ quack_movement (void)
; ---------------------------------------------------------------

.segment	"CODE"

.proc	_quack_movement: near

.segment	"CODE"

;
; if (quack2.moving)
;
	lda     _quack2+5
	jeq     L1D85
;
; if (quack2.direction == DIR_LEFT)
;
	lda     _quack2+4
	cmp     #$02
	bne     L2BBC
;
; quack2.x -= (speed_option + SPEED_QUACK);
;
	lda     _speed_option
	ldx     _speed_option+1
	clc
	adc     #$60
	bcc     L1D3D
	inx
L1D3D:	eor     #$FF
	sec
	adc     _quack2
	sta     _quack2
	txa
	eor     #$FF
	adc     _quack2+1
	sta     _quack2+1
;
; else if (quack2.direction == DIR_RIGHT)
;
	jmp     L2BBF
L2BBC:	lda     _quack2+4
	cmp     #$03
	bne     L2BBD
;
; quack2.x += (speed_option + SPEED_QUACK);
;
	lda     _speed_option
	ldx     _speed_option+1
	clc
	adc     #$60
	bcc     L2BB8
	inx
	clc
L2BB8:	adc     _quack2
	sta     _quack2
	txa
	adc     _quack2+1
	sta     _quack2+1
;
; else if (quack2.direction == DIR_UP)
;
	jmp     L2BBF
L2BBD:	lda     _quack2+4
	bne     L2BBE
;
; quack2.y -= (speed_option + SPEED_QUACK);
;
	lda     _speed_option
	ldx     _speed_option+1
	clc
	adc     #$60
	bcc     L1D4B
	inx
L1D4B:	eor     #$FF
	sec
	adc     _quack2+2
	sta     _quack2+2
	txa
	eor     #$FF
;
; else if (quack2.direction == DIR_DOWN)
;
	jmp     L2BD2
L2BBE:	lda     _quack2+4
	cmp     #$01
	bne     L2BBF
;
; quack2.y += (speed_option + SPEED_QUACK);
;
	lda     _speed_option
	ldx     _speed_option+1
	clc
	adc     #$60
	bcc     L2BB9
	inx
	clc
L2BB9:	adc     _quack2+2
	sta     _quack2+2
	txa
L2BD2:	adc     _quack2+2+1
	sta     _quack2+2+1
;
; temp_x2 = quack2.x >> 8;
;
L2BBF:	lda     _quack2+1
	sta     _temp_x2
;
; temp_y2 = quack2.y >> 8;
;
	lda     _quack2+3
	sta     _temp_y2
;
; if (quack_tile_solid())
;
	jsr     _quack_tile_solid
	tax
	beq     L2BC0
;
; quack2.moving = 0;
;
	lda     #$00
	sta     _quack2+5
;
; temp_x = BoxGuy1.x >> 8;
;
L2BC0:	lda     _BoxGuy1+1
	sta     _temp_x
;
; temp_y = BoxGuy1.y >> 8;
;
	lda     _BoxGuy1+3
	sta     _temp_y
;
; temp_x2 = quack2.x >> 8;
;
	lda     _quack2+1
	sta     _temp_x2
;
; temp_y2 = quack2.y >> 8;
;
	lda     _quack2+3
	sta     _temp_y2
;
; if (sprite_collision())
;
	jsr     _sprite_collision
	tax
	beq     L2BC2
;
; if (bee1_bigbee_timer == 0)
;
	lda     _bee1_bigbee_timer
	bne     L2BC1
;
; stun_p1 = STUN_DURATION;
;
	lda     #$03
	sta     _stun_p1
;
; quack2.moving = 0;
;
L2BC1:	lda     #$00
	sta     _quack2+5
;
; temp_x = BoxGuy2.x >> 8;
;
L2BC2:	lda     _BoxGuy2+1
	sta     _temp_x
;
; temp_y = BoxGuy2.y >> 8;
;
	lda     _BoxGuy2+3
	sta     _temp_y
;
; if (sprite_collision())
;
	jsr     _sprite_collision
	tax
	beq     L2BC3
;
; stun_p2 = STUN_DURATION;
;
	lda     #$03
	sta     _stun_p2
;
; quack2.moving = 0;
;
	lda     #$00
	sta     _quack2+5
;
; temp_x = BoxGuy3.x >> 8;
;
L2BC3:	lda     _BoxGuy3+1
	sta     _temp_x
;
; temp_y = BoxGuy3.y >> 8;
;
	lda     _BoxGuy3+3
	sta     _temp_y
;
; if (sprite_collision())
;
	jsr     _sprite_collision
	tax
	beq     L2BC5
;
; if (bee3_bigbee_timer == 0)
;
	lda     _bee3_bigbee_timer
	bne     L2BC4
;
; stun_p3 = STUN_DURATION;
;
	lda     #$03
	sta     _stun_p3
;
; quack2.moving = 0;
;
L2BC4:	lda     #$00
	sta     _quack2+5
;
; temp_x = BoxGuy4.x >> 8;
;
L2BC5:	lda     _BoxGuy4+1
	sta     _temp_x
;
; temp_y = BoxGuy4.y >> 8;
;
	lda     _BoxGuy4+3
	sta     _temp_y
;
; if (sprite_collision())
;
	jsr     _sprite_collision
	tax
	beq     L1D85
;
; stun_p4 = STUN_DURATION;
;
	lda     #$03
	sta     _stun_p4
;
; quack2.moving = 0;
;
	lda     #$00
	sta     _quack2+5
;
; if (quack4.moving)
;
L1D85:	lda     _quack4+5
	bne     L2BD4
;
; }
;
	rts
;
; if (quack4.direction == DIR_LEFT)
;
L2BD4:	lda     _quack4+4
	cmp     #$02
	bne     L2BC6
;
; quack4.x -= (speed_option + SPEED_QUACK);
;
	lda     _speed_option
	ldx     _speed_option+1
	clc
	adc     #$60
	bcc     L1D92
	inx
L1D92:	eor     #$FF
	sec
	adc     _quack4
	sta     _quack4
	txa
	eor     #$FF
	adc     _quack4+1
	sta     _quack4+1
;
; else if (quack4.direction == DIR_RIGHT)
;
	jmp     L2BC9
L2BC6:	lda     _quack4+4
	cmp     #$03
	bne     L2BC7
;
; quack4.x += (speed_option + SPEED_QUACK);
;
	lda     _speed_option
	ldx     _speed_option+1
	clc
	adc     #$60
	bcc     L2BBA
	inx
	clc
L2BBA:	adc     _quack4
	sta     _quack4
	txa
	adc     _quack4+1
	sta     _quack4+1
;
; else if (quack4.direction == DIR_UP)
;
	jmp     L2BC9
L2BC7:	lda     _quack4+4
	bne     L2BC8
;
; quack4.y -= (speed_option + SPEED_QUACK);
;
	lda     _speed_option
	ldx     _speed_option+1
	clc
	adc     #$60
	bcc     L1DA0
	inx
L1DA0:	eor     #$FF
	sec
	adc     _quack4+2
	sta     _quack4+2
	txa
	eor     #$FF
;
; else if (quack4.direction == DIR_DOWN)
;
	jmp     L2BD3
L2BC8:	lda     _quack4+4
	cmp     #$01
	bne     L2BC9
;
; quack4.y += (speed_option + SPEED_QUACK);
;
	lda     _speed_option
	ldx     _speed_option+1
	clc
	adc     #$60
	bcc     L2BBB
	inx
	clc
L2BBB:	adc     _quack4+2
	sta     _quack4+2
	txa
L2BD3:	adc     _quack4+2+1
	sta     _quack4+2+1
;
; temp_x2 = quack4.x >> 8;
;
L2BC9:	lda     _quack4+1
	sta     _temp_x2
;
; temp_y2 = quack4.y >> 8;
;
	lda     _quack4+3
	sta     _temp_y2
;
; if (quack_tile_solid())
;
	jsr     _quack_tile_solid
	tax
	beq     L2BCA
;
; quack4.moving = 0;
;
	lda     #$00
	sta     _quack4+5
;
; temp_x = BoxGuy1.x >> 8;
;
L2BCA:	lda     _BoxGuy1+1
	sta     _temp_x
;
; temp_y = BoxGuy1.y >> 8;
;
	lda     _BoxGuy1+3
	sta     _temp_y
;
; temp_x2 = quack4.x >> 8;
;
	lda     _quack4+1
	sta     _temp_x2
;
; temp_y2 = quack4.y >> 8;
;
	lda     _quack4+3
	sta     _temp_y2
;
; if (sprite_collision())
;
	jsr     _sprite_collision
	tax
	beq     L2BCC
;
; if (bee1_bigbee_timer == 0)
;
	lda     _bee1_bigbee_timer
	bne     L2BCB
;
; stun_p1 = STUN_DURATION;
;
	lda     #$03
	sta     _stun_p1
;
; quack4.moving = 0;
;
L2BCB:	lda     #$00
	sta     _quack4+5
;
; temp_x = BoxGuy2.x >> 8;
;
L2BCC:	lda     _BoxGuy2+1
	sta     _temp_x
;
; temp_y = BoxGuy2.y >> 8;
;
	lda     _BoxGuy2+3
	sta     _temp_y
;
; if (sprite_collision())
;
	jsr     _sprite_collision
	tax
	beq     L2BCD
;
; stun_p2 = STUN_DURATION;
;
	lda     #$03
	sta     _stun_p2
;
; quack4.moving = 0;
;
	lda     #$00
	sta     _quack4+5
;
; temp_x = BoxGuy3.x >> 8;
;
L2BCD:	lda     _BoxGuy3+1
	sta     _temp_x
;
; temp_y = BoxGuy3.y >> 8;
;
	lda     _BoxGuy3+3
	sta     _temp_y
;
; if (sprite_collision())
;
	jsr     _sprite_collision
	tax
	beq     L2BCF
;
; if (bee3_bigbee_timer == 0)
;
	lda     _bee3_bigbee_timer
	bne     L2BCE
;
; stun_p3 = STUN_DURATION;
;
	lda     #$03
	sta     _stun_p3
;
; quack4.moving = 0;
;
L2BCE:	lda     #$00
	sta     _quack4+5
;
; temp_x = BoxGuy4.x >> 8;
;
L2BCF:	lda     _BoxGuy4+1
	sta     _temp_x
;
; temp_y = BoxGuy4.y >> 8;
;
	lda     _BoxGuy4+3
	sta     _temp_y
;
; if (sprite_collision())
;
	jsr     _sprite_collision
	tax
	beq     L1DDA
;
; stun_p4 = STUN_DURATION;
;
	lda     #$03
	sta     _stun_p4
;
; quack4.moving = 0;
;
	lda     #$00
	sta     _quack4+5
;
; }
;
L1DDA:	rts

.endproc

; ---------------------------------------------------------------
; void __near__ load_bg_palette (void)
; ---------------------------------------------------------------

.segment	"CODE"

.proc	_load_bg_palette: near

.segment	"CODE"

;
; if (map == MAP_OUTDOORS)
;
	lda     _map
	cmp     #$01
	bne     L2BD5
;
; pal_bg(palette_outdoors_bg);
;
	lda     #<(_palette_outdoors_bg)
	ldx     #>(_palette_outdoors_bg)
	jmp     _pal_bg
;
; else if (map == MAP_COMBS)
;
L2BD5:	lda     _map
	bne     L2BD6
;
; pal_bg(palette_combsnplants_bg);
;
	lda     #<(_palette_combsnplants_bg)
	ldx     #>(_palette_combsnplants_bg)
	jmp     _pal_bg
;
; else if (map == MAP_VINES)
;
L2BD6:	lda     _map
	cmp     #$02
	bne     L2655
;
; pal_bg(palette_vineswoflowers_bg);
;
	lda     #<(_palette_vineswoflowers_bg)
	ldx     #>(_palette_vineswoflowers_bg)
	jmp     _pal_bg
;
; }
;
L2655:	rts

.endproc

; ---------------------------------------------------------------
; void __near__ update_options_screen (void)
; ---------------------------------------------------------------

.segment	"CODE"

.proc	_update_options_screen: near

.segment	"CODE"

;
; temp_x = 64;
;
	lda     #$40
	sta     _temp_x
;
; if (current_settings_choice == SETTING_SPEED)
;
	lda     _current_settings_choice
	bne     L2BDB
;
; temp_y = 80;
;
	lda     #$50
;
; else if (current_settings_choice == SETTING_MAP)
;
	jmp     L2BD7
L2BDB:	lda     _current_settings_choice
	cmp     #$01
	bne     L2BDC
;
; temp_y = 112;
;
	lda     #$70
;
; else if (current_settings_choice == SETTING_SONG)
;
	jmp     L2BD7
L2BDC:	lda     _current_settings_choice
	cmp     #$02
	bne     L2BDD
;
; temp_y = 144;
;
	lda     #$90
L2BD7:	sta     _temp_y
;
; if (settings_speed == GAME_SLOW)
;
L2BDD:	lda     _settings_speed
	bne     L2BDE
;
; multi_vram_buffer_horz("SLOW   ", 7, NTADR_A(11, 10));
;
	jsr     decsp3
	lda     #<(L2694)
	ldy     #$01
	sta     (sp),y
	iny
	lda     #>(L2694)
;
; else if (settings_speed == GAME_REGULAR)
;
	jmp     L2BF2
L2BDE:	lda     _settings_speed
	cmp     #$01
	bne     L2BDF
;
; multi_vram_buffer_horz("REGULAR", 7, NTADR_A(11, 10));
;
	jsr     decsp3
	lda     #<(L26A1)
	ldy     #$01
	sta     (sp),y
	iny
	lda     #>(L26A1)
;
; else if (settings_speed == GAME_FAST)
;
	jmp     L2BF2
L2BDF:	lda     _settings_speed
	cmp     #$02
	bne     L2BE0
;
; multi_vram_buffer_horz("FAST   ", 7, NTADR_A(11, 10));
;
	jsr     decsp3
	lda     #<(L26AE)
	ldy     #$01
	sta     (sp),y
	iny
	lda     #>(L26AE)
L2BF2:	sta     (sp),y
	lda     #$07
	ldy     #$00
	sta     (sp),y
	ldx     #$21
	lda     #$4B
	jsr     _multi_vram_buffer_horz
;
; if (settings_map == MAP_RANDOM)
;
L2BE0:	lda     _settings_map
	cmp     #$03
	bne     L2BE1
;
; multi_vram_buffer_horz("RANDOM  ", 8, NTADR_A(11, 14));
;
	jsr     decsp3
	lda     #<(L26BA)
	ldy     #$01
	sta     (sp),y
	iny
	lda     #>(L26BA)
;
; else if (settings_map == MAP_OUTDOORS)
;
	jmp     L2BF3
L2BE1:	lda     _settings_map
	cmp     #$01
	bne     L2BE2
;
; multi_vram_buffer_horz("OUTDOORS", 8, NTADR_A(11, 14));
;
	jsr     decsp3
	lda     #<(L26C7)
	ldy     #$01
	sta     (sp),y
	iny
	lda     #>(L26C7)
;
; else if (settings_map == MAP_COMBS)
;
	jmp     L2BF3
L2BE2:	lda     _settings_map
	bne     L2BE3
;
; multi_vram_buffer_horz("COMBS   ", 8, NTADR_A(11, 14));
;
	jsr     decsp3
	lda     #<(L26D4)
	ldy     #$01
	sta     (sp),y
	iny
	lda     #>(L26D4)
;
; else if (settings_map == MAP_VINES)
;
	jmp     L2BF3
L2BE3:	lda     _settings_map
	cmp     #$02
	bne     L2BE4
;
; multi_vram_buffer_horz("VINES   ", 8, NTADR_A(11, 14));
;
	jsr     decsp3
	lda     #<(L26E1)
	ldy     #$01
	sta     (sp),y
	iny
	lda     #>(L26E1)
L2BF3:	sta     (sp),y
	lda     #$08
	ldy     #$00
	sta     (sp),y
	ldx     #$21
	lda     #$CB
	jsr     _multi_vram_buffer_horz
;
; if (settings_song == SONG_BEE)
;
L2BE4:	lda     _settings_song
	bne     L2BE5
;
; multi_vram_buffer_horz("BEE   ", 6, NTADR_A(11, 18));
;
	jsr     decsp3
	lda     #<(L26ED)
	ldy     #$01
	sta     (sp),y
	iny
	lda     #>(L26ED)
	sta     (sp),y
	lda     #$06
	ldy     #$00
	sta     (sp),y
	ldx     #$22
	lda     #$4B
	jsr     _multi_vram_buffer_horz
;
; song = SONG_BEE;
;
	lda     #$00
;
; else if (settings_song == SONG_LAKE)
;
	jmp     L2BDA
L2BE5:	lda     _settings_song
	cmp     #$01
	bne     L2BE6
;
; multi_vram_buffer_horz("LAKE  ", 6, NTADR_A(11, 18));
;
	jsr     decsp3
	lda     #<(L26FC)
	ldy     #$01
	sta     (sp),y
	iny
	lda     #>(L26FC)
	sta     (sp),y
	lda     #$06
	ldy     #$00
	sta     (sp),y
	ldx     #$22
	lda     #$4B
	jsr     _multi_vram_buffer_horz
;
; song = SONG_LAKE;
;
	lda     #$01
;
; else if (settings_song == SONG_HONEY)
;
	jmp     L2BDA
L2BE6:	lda     _settings_song
	cmp     #$02
	bne     L2BE7
;
; multi_vram_buffer_horz("HONEY ", 6, NTADR_A(11, 18));
;
	jsr     decsp3
	lda     #<(L270B)
	ldy     #$01
	sta     (sp),y
	iny
	lda     #>(L270B)
	sta     (sp),y
	lda     #$06
	ldy     #$00
	sta     (sp),y
	ldx     #$22
	lda     #$4B
	jsr     _multi_vram_buffer_horz
;
; song = SONG_HONEY;
;
	lda     #$02
;
; } else if (settings_song == SONG_RANDOM)
;
	jmp     L2BDA
L2BE7:	lda     _settings_song
	cmp     #$03
	bne     L2717
;
; multi_vram_buffer_horz("RANDOM", 6, NTADR_A(11, 18));
;
	jsr     decsp3
	lda     #<(L271A)
	ldy     #$01
	sta     (sp),y
	iny
	lda     #>(L271A)
	sta     (sp),y
	lda     #$06
	ldy     #$00
	sta     (sp),y
	ldx     #$22
	lda     #$4B
	jsr     _multi_vram_buffer_horz
;
; song = SONG_RANDOM;
;
	lda     #$03
L2BDA:	sta     _song
;
; }
;
L2717:	rts

.endproc

; ---------------------------------------------------------------
; void __near__ draw_win_round_sprite (void)
; ---------------------------------------------------------------

.segment	"CODE"

.proc	_draw_win_round_sprite: near

.segment	"CODE"

;
; if (temp_win_reason == WIN_HONEY_COLLECTED)
;
	lda     _temp_win_reason
	cmp     #$20
	bne     L2BF4
;
; oam_meta_spr(temp_x, temp_y, gamesprites_win_icon_honey);
;
	jsr     decsp2
	lda     _temp_x
	ldy     #$01
	sta     (sp),y
	lda     _temp_y
	dey
	sta     (sp),y
	lda     #<(_gamesprites_win_icon_honey)
	ldx     #>(_gamesprites_win_icon_honey)
	jmp     _oam_meta_spr
;
; else if (temp_win_reason == WIN_MOST_HONEY_COLLECTED)
;
L2BF4:	lda     _temp_win_reason
	cmp     #$01
	bne     L2BF5
;
; oam_meta_spr(temp_x, temp_y, gamesprites_win_icon_time);
;
	jsr     decsp2
	lda     _temp_x
	ldy     #$01
	sta     (sp),y
	lda     _temp_y
	dey
	sta     (sp),y
	lda     #<(_gamesprites_win_icon_time)
	ldx     #>(_gamesprites_win_icon_time)
	jmp     _oam_meta_spr
;
; else if (temp_win_reason == WIN_BEE_EATEN)
;
L2BF5:	lda     _temp_win_reason
	cmp     #$04
	bne     L2BF6
;
; if (temp_win_team == 1)
;
	lda     _temp_win_team
	cmp     #$01
	bne     L1C89
;
; oam_meta_spr(temp_x, temp_y, gamesprites_win_redduck);
;
	jsr     decsp2
	lda     _temp_x
	ldy     #$01
	sta     (sp),y
	lda     _temp_y
	dey
	sta     (sp),y
	lda     #<(_gamesprites_win_redduck)
	ldx     #>(_gamesprites_win_redduck)
	jmp     _oam_meta_spr
;
; oam_meta_spr(temp_x, temp_y, gamesprites_win_blueduck);
;
L1C89:	jsr     decsp2
	lda     _temp_x
	ldy     #$01
	sta     (sp),y
	lda     _temp_y
	dey
	sta     (sp),y
	lda     #<(_gamesprites_win_blueduck)
	ldx     #>(_gamesprites_win_blueduck)
	jmp     _oam_meta_spr
;
; else if (temp_win_reason == WIN_DUCK_EATEN)
;
L2BF6:	lda     _temp_win_reason
	cmp     #$02
	bne     L2BF7
;
; if (temp_win_team == 1)
;
	lda     _temp_win_team
	cmp     #$01
	bne     L1C97
;
; oam_meta_spr(temp_x, temp_y, gamesprites_win_redbee);
;
	jsr     decsp2
	lda     _temp_x
	ldy     #$01
	sta     (sp),y
	lda     _temp_y
	dey
	sta     (sp),y
	lda     #<(_gamesprites_win_redbee)
	ldx     #>(_gamesprites_win_redbee)
	jmp     _oam_meta_spr
;
; oam_meta_spr(temp_x, temp_y, gamesprites_win_bluebee);
;
L1C97:	jsr     decsp2
	lda     _temp_x
	ldy     #$01
	sta     (sp),y
	lda     _temp_y
	dey
	sta     (sp),y
	lda     #<(_gamesprites_win_bluebee)
	ldx     #>(_gamesprites_win_bluebee)
	jmp     _oam_meta_spr
;
; else if (temp_win_reason == WIN_FRIENDLY_FIRE_BEE_EATEN)
;
L2BF7:	lda     _temp_win_reason
	cmp     #$10
	bne     L2BF8
;
; if (temp_win_team == 1)
;
	lda     _temp_win_team
	cmp     #$01
	bne     L1CA5
;
; oam_meta_spr(temp_x, temp_y, gamesprites_win_blueduck);
;
	jsr     decsp2
	lda     _temp_x
	ldy     #$01
	sta     (sp),y
	lda     _temp_y
	dey
	sta     (sp),y
	lda     #<(_gamesprites_win_blueduck)
	ldx     #>(_gamesprites_win_blueduck)
	jmp     _oam_meta_spr
;
; oam_meta_spr(temp_x, temp_y, gamesprites_win_redduck);
;
L1CA5:	jsr     decsp2
	lda     _temp_x
	ldy     #$01
	sta     (sp),y
	lda     _temp_y
	dey
	sta     (sp),y
	lda     #<(_gamesprites_win_redduck)
	ldx     #>(_gamesprites_win_redduck)
	jmp     _oam_meta_spr
;
; else if (temp_win_reason == WIN_FRIENDLY_FIRE_DUCK_EATEN)
;
L2BF8:	lda     _temp_win_reason
	cmp     #$08
	bne     L1CB9
;
; if (temp_win_team == 1)
;
	lda     _temp_win_team
	cmp     #$01
	bne     L1CB3
;
; oam_meta_spr(temp_x, temp_y, gamesprites_win_bluebee);
;
	jsr     decsp2
	lda     _temp_x
	ldy     #$01
	sta     (sp),y
	lda     _temp_y
	dey
	sta     (sp),y
	lda     #<(_gamesprites_win_bluebee)
	ldx     #>(_gamesprites_win_bluebee)
	jmp     _oam_meta_spr
;
; oam_meta_spr(temp_x, temp_y, gamesprites_win_redbee);
;
L1CB3:	jsr     decsp2
	lda     _temp_x
	ldy     #$01
	sta     (sp),y
	lda     _temp_y
	dey
	sta     (sp),y
	lda     #<(_gamesprites_win_redbee)
	ldx     #>(_gamesprites_win_redbee)
	jmp     _oam_meta_spr
;
; }
;
L1CB9:	rts

.endproc

; ---------------------------------------------------------------
; void __near__ display_round_summary (void)
; ---------------------------------------------------------------

.segment	"CODE"

.proc	_display_round_summary: near

.segment	"CODE"

;
; if (temp_winner == TEAM1_WIN)
;
	lda     _temp_winner
	cmp     #$80
	bne     L2BFB
;
; multi_vram_buffer_horz("RED", 3, NTADR_A(16, temp_y));
;
	jsr     decsp3
	lda     #<(L2845)
	ldy     #$01
	sta     (sp),y
	iny
	lda     #>(L2845)
	sta     (sp),y
	lda     #$03
;
; else if (temp_winner == TEAM2_WIN)
;
	jmp     L2C1B
L2BFB:	lda     _temp_winner
	cmp     #$40
	bne     L2BFC
;
; multi_vram_buffer_horz("BLUE", 4, NTADR_A(16, temp_y));
;
	jsr     decsp3
	lda     #<(L2852)
	ldy     #$01
	sta     (sp),y
	iny
	lda     #>(L2852)
	sta     (sp),y
	lda     #$04
L2C1B:	ldy     #$00
	sta     (sp),y
	ldx     #$00
	lda     _temp_y
	jsr     aslax4
	stx     tmp1
	asl     a
	rol     tmp1
	ora     #$10
	pha
	lda     tmp1
	ora     #$20
	tax
	pla
	jsr     _multi_vram_buffer_horz
;
; if ((temp_round == WIN_HONEY_COLLECTED))
;
L2BFC:	lda     _temp_round
	cmp     #$20
	bne     L2BFD
;
; multi_vram_buffer_horz("100 HONEY COLLECTED", 19, NTADR_A(7, temp_y + 1));
;
	jsr     decsp3
	lda     #<(L285F)
	ldy     #$01
	sta     (sp),y
	iny
	lda     #>(L285F)
	sta     (sp),y
	lda     #$13
;
; else if (temp_round == WIN_FRIENDLY_FIRE_BEE_EATEN)
;
	jmp     L2C20
L2BFD:	lda     _temp_round
	cmp     #$10
	bne     L2BFE
;
; multi_vram_buffer_horz("ENEMY ATE THEIR BEE", 19, NTADR_A(7, temp_y + 1));
;
	jsr     decsp3
	lda     #<(L286D)
	ldy     #$01
	sta     (sp),y
	iny
	lda     #>(L286D)
	sta     (sp),y
	lda     #$13
;
; else if (temp_round == WIN_FRIENDLY_FIRE_DUCK_EATEN)
;
	jmp     L2C20
L2BFE:	lda     _temp_round
	cmp     #$08
	bne     L2BFF
;
; multi_vram_buffer_horz("ENEMY ATE THEIR DUCK", 20, NTADR_A(7, temp_y + 1));
;
	jsr     decsp3
	lda     #<(L287B)
	ldy     #$01
	sta     (sp),y
	iny
	lda     #>(L287B)
;
; else if (temp_round == WIN_BEE_EATEN)
;
	jmp     L2C22
L2BFF:	lda     _temp_round
	cmp     #$04
	bne     L2C00
;
; multi_vram_buffer_horz("ENEMY BEE EATEN", 15, NTADR_A(7, temp_y + 1));
;
	jsr     decsp3
	lda     #<(L2889)
	ldy     #$01
	sta     (sp),y
	iny
	lda     #>(L2889)
	sta     (sp),y
	lda     #$0F
;
; else if (temp_round == WIN_DUCK_EATEN)
;
	jmp     L2C20
L2C00:	lda     _temp_round
	cmp     #$02
	bne     L2C01
;
; multi_vram_buffer_horz("ENEMY DUCK EATEN", 16, NTADR_A(7, temp_y + 1));
;
	jsr     decsp3
	lda     #<(L2897)
	ldy     #$01
	sta     (sp),y
	iny
	lda     #>(L2897)
	sta     (sp),y
	lda     #$10
;
; else if (temp_round == WIN_MOST_HONEY_COLLECTED)
;
	jmp     L2C20
L2C01:	lda     _temp_round
	cmp     #$01
	bne     L28A2
;
; multi_vram_buffer_horz("COLLECTED MORE HONEY", 20, NTADR_A(7, temp_y + 1));
;
	jsr     decsp3
	lda     #<(L28A5)
	ldy     #$01
	sta     (sp),y
	iny
	lda     #>(L28A5)
L2C22:	sta     (sp),y
	lda     #$14
L2C20:	ldy     #$00
	sta     (sp),y
	ldx     #$00
	lda     _temp_y
	clc
	adc     #$01
	bcc     L28AD
	inx
L28AD:	jsr     shlax4
	stx     tmp1
	asl     a
	rol     tmp1
	ora     #$07
	pha
	lda     tmp1
	ora     #$20
	tax
	pla
	jsr     _multi_vram_buffer_horz
;
; ppu_wait_nmi();
;
L28A2:	jmp     _ppu_wait_nmi

.endproc

; ---------------------------------------------------------------
; unsigned char __near__ bg_collision_sub (void)
; ---------------------------------------------------------------

.segment	"CODE"

.proc	_bg_collision_sub: near

.segment	"CODE"

;
; if (temp_y >= 0xf0)
;
	lda     _temp_y
	cmp     #$F0
	ldx     #$00
	bcc     L2C23
;
; return 0;
;
	txa
	rts
;
; temp = map_ptr[((temp_y >> 3) << 5) + (temp_x >> 3)];
;
L2C23:	lda     _temp_y
	lsr     a
	lsr     a
	lsr     a
	jsr     aslax4
	stx     tmp1
	asl     a
	rol     tmp1
	ldx     tmp1
	sta     ptr1
	stx     ptr1+1
	lda     _temp_x
	lsr     a
	lsr     a
	lsr     a
	clc
	adc     ptr1
	pha
	lda     #$00
	adc     ptr1+1
	tax
	pla
	clc
	adc     _map_ptr
	sta     ptr1
	txa
	adc     _map_ptr+1
	sta     ptr1+1
	ldy     #$00
	lda     (ptr1),y
	sta     _temp
;
; if (temp == 0xc6 || temp == 0xc7 || temp == 0xc8 || temp == 0xc9 || temp == 0xca || temp == 0xa5)
;
	cmp     #$C6
	beq     L2C24
	lda     _temp
	cmp     #$C7
	beq     L2C24
	cmp     #$C8
	beq     L2C24
	cmp     #$C9
	beq     L2C24
	cmp     #$CA
	beq     L2C24
	cmp     #$A5
	bne     L2C25
;
; return 0;
;
L2C24:	ldx     #$00
	txa
	rts
;
; else if (temp == 0xb6 || temp == 0xb7 || temp == 0xb8 || temp == 0xb9 || temp == 0xba || temp == 0x00 || temp == 0x69 || temp == 0x6a || temp == 0x6b)
;
L2C25:	lda     _temp
	cmp     #$B6
	beq     L2C26
	cmp     #$B7
	beq     L2C26
	cmp     #$B8
	beq     L2C26
	cmp     #$B9
	beq     L2C26
	cmp     #$BA
	beq     L2C26
	lda     _temp
	beq     L2C26
	cmp     #$69
	beq     L2C26
	cmp     #$6A
	beq     L2C26
	cmp     #$6B
	beq     L2C26
	ldx     #$00
	jmp     L2C27
;
; return 0;
;
L2C26:	ldx     #$00
	txa
	rts
;
; return 1;
;
L2C27:	lda     #$01
;
; }
;
	rts

.endproc

; ---------------------------------------------------------------
; unsigned char __near__ bg_coll_L (void)
; ---------------------------------------------------------------

.segment	"CODE"

.proc	_bg_coll_L: near

.segment	"CODE"

;
; temp_x = Generic.x;
;
	lda     _Generic
	sta     _temp_x
;
; eject_L = temp_x & 0x07; // distance to next tile boundary
;
	and     #$07
	sta     _eject_L
;
; temp_y = Generic.y + 2;
;
	lda     _Generic+1
	clc
	adc     #$02
	sta     _temp_y
;
; if (bg_collision_sub())
;
	jsr     _bg_collision_sub
	tax
	beq     L2C29
;
; return 1;
;
	ldx     #$00
	lda     #$01
	rts
;
; temp_y = Generic.y + Generic.height;
;
L2C29:	lda     _Generic+1
	clc
	adc     _Generic+3
	sta     _temp_y
;
; temp_y -= 2;
;
	sec
	sbc     #$02
	sta     _temp_y
;
; if (bg_collision_sub())
;
	jsr     _bg_collision_sub
	tax
	beq     L2C2B
;
; return 1;
;
	ldx     #$00
	lda     #$01
	rts
;
; }
;
L2C2B:	rts

.endproc

; ---------------------------------------------------------------
; unsigned char __near__ bg_coll_R (void)
; ---------------------------------------------------------------

.segment	"CODE"

.proc	_bg_coll_R: near

.segment	"CODE"

;
; temp_x = Generic.x + Generic.width;
;
	lda     _Generic
	clc
	adc     _Generic+2
	sta     _temp_x
;
; eject_R = 8 - (temp_x & 0x07); // distance to next tile boundary
;
	lda     #$08
	jsr     pusha0
	lda     _temp_x
	and     #$07
	jsr     tossuba0
	sta     _eject_R
;
; temp_y = Generic.y + 2;
;
	lda     _Generic+1
	clc
	adc     #$02
	sta     _temp_y
;
; if (bg_collision_sub())
;
	jsr     _bg_collision_sub
	tax
	beq     L2C2E
;
; return 1;
;
	ldx     #$00
	lda     #$01
	rts
;
; temp_y = Generic.y + Generic.height;
;
L2C2E:	lda     _Generic+1
	clc
	adc     _Generic+3
	sta     _temp_y
;
; temp_y -= 2;
;
	sec
	sbc     #$02
	sta     _temp_y
;
; if (bg_collision_sub())
;
	jsr     _bg_collision_sub
	tax
	beq     L2C30
;
; return 1;
;
	ldx     #$00
	lda     #$01
	rts
;
; }
;
L2C30:	rts

.endproc

; ---------------------------------------------------------------
; unsigned char __near__ bg_coll_U (void)
; ---------------------------------------------------------------

.segment	"CODE"

.proc	_bg_coll_U: near

.segment	"CODE"

;
; temp_x = Generic.x + 2;
;
	lda     _Generic
	clc
	adc     #$02
	sta     _temp_x
;
; temp_y = Generic.y;
;
	lda     _Generic+1
	sta     _temp_y
;
; eject_U = temp_y & 0x07; // distance to next tile boundary
;
	and     #$07
	sta     _eject_U
;
; if (bg_collision_sub())
;
	jsr     _bg_collision_sub
	tax
	beq     L2C32
;
; return 1;
;
	ldx     #$00
	lda     #$01
	rts
;
; temp_x = Generic.x + Generic.width;
;
L2C32:	lda     _Generic
	clc
	adc     _Generic+2
	sta     _temp_x
;
; temp_x -= 2;
;
	sec
	sbc     #$02
	sta     _temp_x
;
; if (bg_collision_sub())
;
	jsr     _bg_collision_sub
	tax
	beq     L2C34
;
; return 1;
;
	ldx     #$00
	lda     #$01
	rts
;
; }
;
L2C34:	rts

.endproc

; ---------------------------------------------------------------
; unsigned char __near__ bg_coll_D (void)
; ---------------------------------------------------------------

.segment	"CODE"

.proc	_bg_coll_D: near

.segment	"CODE"

;
; temp_x = Generic.x + 2;
;
	lda     _Generic
	clc
	adc     #$02
	sta     _temp_x
;
; temp_y = Generic.y + Generic.height;
;
	lda     _Generic+1
	clc
	adc     _Generic+3
	sta     _temp_y
;
; eject_D = 8 - (temp_y & 0x07); // distance to next tile boundary
;
	lda     #$08
	jsr     pusha0
	lda     _temp_y
	and     #$07
	jsr     tossuba0
	sta     _eject_D
;
; if (bg_collision_sub())
;
	jsr     _bg_collision_sub
	tax
	beq     L2C37
;
; return 1;
;
	ldx     #$00
	lda     #$01
	rts
;
; temp_x = Generic.x + Generic.width;
;
L2C37:	lda     _Generic
	clc
	adc     _Generic+2
	sta     _temp_x
;
; temp_x -= 2;
;
	sec
	sbc     #$02
	sta     _temp_x
;
; if (bg_collision_sub())
;
	jsr     _bg_collision_sub
	tax
	beq     L2C39
;
; return 1;
;
	ldx     #$00
	lda     #$01
	rts
;
; }
;
L2C39:	rts

.endproc

; ---------------------------------------------------------------
; unsigned char __near__ sprite_collision (void)
; ---------------------------------------------------------------

.segment	"CODE"

.proc	_sprite_collision: near

.segment	"CODE"

;
; if (temp_x < temp_x2 + collision_box_size && temp_x + collision_box_size > temp_x2 &&
;
	lda     _temp_x
	jsr     pusha0
	lda     _temp_x2
	clc
	adc     _collision_box_size
	bcc     L2C3A
	ldx     #$01
L2C3A:	jsr     tosicmp
	bcs     L20CB
	ldx     #$00
	lda     _temp_x
	clc
	adc     _collision_box_size
	bcc     L2C3B
	inx
L2C3B:	sec
	sbc     _temp_x2
	sta     tmp1
	txa
	sbc     #$00
	ora     tmp1
	bcc     L20CB
	beq     L20CB
;
; temp_y < temp_y2 + collision_box_size && temp_y + collision_box_size > temp_y2)
;
	lda     _temp_y
	jsr     pusha0
	lda     _temp_y2
	clc
	adc     _collision_box_size
	bcc     L2C3C
	ldx     #$01
L2C3C:	jsr     tosicmp
	bcs     L20CB
	ldx     #$00
	lda     _temp_y
	clc
	adc     _collision_box_size
	bcc     L2C3D
	inx
L2C3D:	sec
	sbc     _temp_y2
	sta     tmp1
	txa
	sbc     #$00
	ora     tmp1
	beq     L20CB
	bcs     L20CA
L20CB:	ldx     #$00
	txa
	rts
;
; return 1;
;
L20CA:	ldx     #$00
	lda     #$01
	rts

.endproc

; ---------------------------------------------------------------
; unsigned char __near__ check_powerup_collision (void)
; ---------------------------------------------------------------

.segment	"CODE"

.proc	_check_powerup_collision: near

.segment	"CODE"

;
; if (temp_x + 4 >= temp_x2 && temp_x + 4 < temp_x2 + 16 &&
;
	ldx     #$00
	lda     _temp_x
	clc
	adc     #$04
	bcc     L20D3
	inx
L20D3:	cmp     _temp_x2
	txa
	sbc     #$00
	lda     #$00
	tax
	bcc     L2C43
	lda     _temp_x
	clc
	adc     #$04
	bcc     L20D5
	inx
L20D5:	jsr     pushax
	ldx     #$00
	lda     _temp_x2
	clc
	adc     #$10
	bcc     L20D6
	inx
L20D6:	jsr     tosicmp
	bcs     L20D4
;
; temp_y + 4 >= temp_y2 && temp_y + 4 < temp_y2 + 16)
;
	ldx     #$00
	lda     _temp_y
	clc
	adc     #$04
	bcc     L20D7
	inx
L20D7:	cmp     _temp_y2
	txa
	sbc     #$00
	lda     #$00
	tax
	bcc     L2C43
	lda     _temp_y
	clc
	adc     #$04
	bcc     L20D8
	inx
L20D8:	jsr     pushax
	ldx     #$00
	lda     _temp_y2
	clc
	adc     #$10
	bcc     L20D9
	inx
L20D9:	jsr     tosicmp
	bcc     L20D2
L20D4:	ldx     #$00
	txa
	rts
;
; return 1;
;
L20D2:	ldx     #$00
	lda     #$01
	rts
;
; }
;
L2C43:	rts

.endproc

; ---------------------------------------------------------------
; void __near__ main (void)
; ---------------------------------------------------------------

.segment	"CODE"

.proc	_main: near

.segment	"CODE"

;
; init_system();
;
	jsr     _init_system
;
; init_title_loop();
;
	jsr     _init_title_loop
;
; set_music_speed(7); //need to do this every frame. 
;
L190B:	lda     #$07
	jsr     _set_music_speed
;
; if (game_mode == MODE_TITLE)
;
	lda     _game_mode
	bne     L2C44
;
; title_loop();
;
	jsr     _title_loop
;
; if (game_mode == MODE_OPTIONS)
;
L2C44:	lda     _game_mode
	cmp     #$01
	bne     L2C45
;
; options_loop();
;
	jsr     _options_loop
;
; if (game_mode == MODE_GAME)
;
L2C45:	lda     _game_mode
	cmp     #$02
	bne     L2C46
;
; game_loop();
;
	jsr     _game_loop
;
; if (game_mode == MODE_GAMEOVER)
;
L2C46:	lda     _game_mode
	cmp     #$03
	bne     L2C47
;
; gameover_loop();
;
	jsr     _gameover_loop
;
; if (game_mode == MODE_ROUNDOVER)
;
L2C47:	lda     _game_mode
	cmp     #$04
	bne     L190B
;
; roundover_loop();
;
	jsr     _roundover_loop
;
; while (1)
;
	jmp     L190B

.endproc

; ---------------------------------------------------------------
; unsigned char __near__ quack_tile_solid (void)
; ---------------------------------------------------------------

.segment	"CODE"

.proc	_quack_tile_solid: near

.segment	"CODE"

;
; if (temp_y2 >= 0xf0)
;
	lda     _temp_y2
	cmp     #$F0
	ldx     #$00
	bcc     L2C48
;
; return 0;
;
	txa
	rts
;
; largeindex = ((temp_y2 >> 3) << 5) + (temp_x2 >> 3);
;
L2C48:	lda     _temp_y2
	lsr     a
	lsr     a
	lsr     a
	jsr     aslax4
	stx     tmp1
	asl     a
	rol     tmp1
	ldx     tmp1
	sta     ptr1
	stx     ptr1+1
	lda     _temp_x2
	lsr     a
	lsr     a
	lsr     a
	clc
	adc     ptr1
	sta     _largeindex
	lda     #$00
	adc     ptr1+1
	sta     _largeindex+1
;
; temp = map_ptr[largeindex];
;
	lda     _map_ptr
	clc
	adc     _largeindex
	sta     ptr1
	lda     _map_ptr+1
	adc     _largeindex+1
	sta     ptr1+1
	ldy     #$00
	lda     (ptr1),y
	sta     _temp
;
; if (temp == 0xc6 || temp == 0xc7 || temp == 0xc8 || temp == 0xc9 || temp == 0xca || temp == 0xa5)
;
	cmp     #$C6
	beq     L2C49
	lda     _temp
	cmp     #$C7
	beq     L2C49
	cmp     #$C8
	beq     L2C49
	cmp     #$C9
	beq     L2C49
	cmp     #$CA
	beq     L2C49
	cmp     #$A5
	bne     L2C4A
;
; return 0;
;
L2C49:	ldx     #$00
	txa
	rts
;
; else if (temp == 0xb6 || temp == 0xb7 || temp == 0xb8 || temp == 0xb9 || temp == 0xba || temp == 0x00 || temp == 0x69 || temp == 0x6a || temp == 0x6b)
;
L2C4A:	lda     _temp
	cmp     #$B6
	beq     L2C4B
	cmp     #$B7
	beq     L2C4B
	cmp     #$B8
	beq     L2C4B
	cmp     #$B9
	beq     L2C4B
	cmp     #$BA
	beq     L2C4B
	lda     _temp
	beq     L2C4B
	cmp     #$69
	beq     L2C4B
	cmp     #$6A
	beq     L2C4B
	cmp     #$6B
	beq     L2C4B
	ldx     #$00
	jmp     L2C4C
;
; return 0;
;
L2C4B:	ldx     #$00
	txa
	rts
;
; return 1;
;
L2C4C:	lda     #$01
;
; }
;
	rts

.endproc

; ---------------------------------------------------------------
; void __near__ check_powerup (void)
; ---------------------------------------------------------------

.segment	"CODE"

.proc	_check_powerup: near

.segment	"CODE"

;
; if (powerup1 == 1)
;
	lda     _powerup1
	cmp     #$01
	bne     L2C54
;
; if (map == MAP_COMBS)
;
	lda     _map
	bne     L2C51
;
; temp_x2 = COMBS_FLOWER_X[0];
;
	lda     _COMBS_FLOWER_X
	sta     _temp_x2
;
; temp_y2 = COMBS_FLOWER_Y[0];
;
	lda     _COMBS_FLOWER_Y
;
; else if (map == MAP_VINES)
;
	jmp     L2C4D
L2C51:	lda     _map
	cmp     #$02
	bne     L2C52
;
; temp_x2 = VINES_FLOWER_X[0];
;
	lda     _VINES_FLOWER_X
	sta     _temp_x2
;
; temp_y2 = VINES_FLOWER_Y[0];
;
	lda     _VINES_FLOWER_Y
;
; else if (map == MAP_OUTDOORS)
;
	jmp     L2C4D
L2C52:	lda     _map
	cmp     #$01
	bne     L1DF5
;
; temp_x2 = OUTDOORS_FLOWER_X[0];
;
	lda     _OUTDOORS_FLOWER_X
	sta     _temp_x2
;
; temp_y2 = OUTDOORS_FLOWER_Y[0];
;
	lda     _OUTDOORS_FLOWER_Y
L2C4D:	sta     _temp_y2
;
; if (check_powerup_collision())
;
L1DF5:	jsr     _check_powerup_collision
	tax
	beq     L2C54
;
; powerup1 = 0; // Remove powerup
;
	lda     #$00
	sta     _powerup1
;
; if (temp == 1)
;
	lda     _temp
	cmp     #$01
	bne     L2C53
;
; bee1_bigbee_timer = POWERUP_TIMER;
;
	lda     #$0C
	sta     _bee1_bigbee_timer
;
; else if (temp == 3)
;
	jmp     L1E06
L2C53:	lda     _temp
	cmp     #$03
	bne     L1E06
;
; bee3_bigbee_timer = POWERUP_TIMER;
;
	lda     #$0C
	sta     _bee3_bigbee_timer
;
; sfx_play(SFX_POWERUP, 0);
;
L1E06:	lda     #$06
	jsr     pusha
	lda     #$00
	jsr     _sfx_play
;
; if (powerup2 == 1)
;
L2C54:	lda     _powerup2
	cmp     #$01
	bne     L2C58
;
; if (map == MAP_COMBS)
;
	lda     _map
	bne     L2C55
;
; temp_x2 = COMBS_FLOWER_X[1];
;
	lda     _COMBS_FLOWER_X+1
	sta     _temp_x2
;
; temp_y2 = COMBS_FLOWER_Y[1];
;
	lda     _COMBS_FLOWER_Y+1
;
; else if (map == MAP_VINES)
;
	jmp     L2C4E
L2C55:	lda     _map
	cmp     #$02
	bne     L2C56
;
; temp_x2 = VINES_FLOWER_X[1];
;
	lda     _VINES_FLOWER_X+1
	sta     _temp_x2
;
; temp_y2 = VINES_FLOWER_Y[1];
;
	lda     _VINES_FLOWER_Y+1
;
; else if (map == MAP_OUTDOORS)
;
	jmp     L2C4E
L2C56:	lda     _map
	cmp     #$01
	bne     L1E21
;
; temp_x2 = OUTDOORS_FLOWER_X[1];
;
	lda     _OUTDOORS_FLOWER_X+1
	sta     _temp_x2
;
; temp_y2 = OUTDOORS_FLOWER_Y[1];
;
	lda     _OUTDOORS_FLOWER_Y+1
L2C4E:	sta     _temp_y2
;
; if (check_powerup_collision())
;
L1E21:	jsr     _check_powerup_collision
	tax
	beq     L2C58
;
; powerup2 = 0; // Remove powerup
;
	lda     #$00
	sta     _powerup2
;
; if (temp == 1)
;
	lda     _temp
	cmp     #$01
	bne     L2C57
;
; bee1_bigbee_timer = POWERUP_TIMER;
;
	lda     #$0C
	sta     _bee1_bigbee_timer
;
; else if (temp == 3)
;
	jmp     L1E32
L2C57:	lda     _temp
	cmp     #$03
	bne     L1E32
;
; bee3_bigbee_timer = POWERUP_TIMER;
;
	lda     #$0C
	sta     _bee3_bigbee_timer
;
; sfx_play(SFX_POWERUP, 0);
;
L1E32:	lda     #$06
	jsr     pusha
	lda     #$00
	jsr     _sfx_play
;
; if (powerup3 == 1)
;
L2C58:	lda     _powerup3
	cmp     #$01
	bne     L2C5C
;
; if (map == MAP_COMBS)
;
	lda     _map
	bne     L2C59
;
; temp_x2 = COMBS_FLOWER_X[2];
;
	lda     _COMBS_FLOWER_X+2
	sta     _temp_x2
;
; temp_y2 = COMBS_FLOWER_Y[2];
;
	lda     _COMBS_FLOWER_Y+2
;
; else if (map == MAP_VINES)
;
	jmp     L2C4F
L2C59:	lda     _map
	cmp     #$02
	bne     L2C5A
;
; temp_x2 = VINES_FLOWER_X[2];
;
	lda     _VINES_FLOWER_X+2
	sta     _temp_x2
;
; temp_y2 = VINES_FLOWER_Y[2];
;
	lda     _VINES_FLOWER_Y+2
;
; else if (map == MAP_OUTDOORS)
;
	jmp     L2C4F
L2C5A:	lda     _map
	cmp     #$01
	bne     L1E4D
;
; temp_x2 = OUTDOORS_FLOWER_X[2];
;
	lda     _OUTDOORS_FLOWER_X+2
	sta     _temp_x2
;
; temp_y2 = OUTDOORS_FLOWER_Y[2];
;
	lda     _OUTDOORS_FLOWER_Y+2
L2C4F:	sta     _temp_y2
;
; if (check_powerup_collision())
;
L1E4D:	jsr     _check_powerup_collision
	tax
	beq     L2C5C
;
; powerup3 = 0; // Remove powerup
;
	lda     #$00
	sta     _powerup3
;
; if (temp == 1)
;
	lda     _temp
	cmp     #$01
	bne     L2C5B
;
; bee1_bigbee_timer = POWERUP_TIMER;
;
	lda     #$0C
	sta     _bee1_bigbee_timer
;
; else if (temp == 3)
;
	jmp     L1E5E
L2C5B:	lda     _temp
	cmp     #$03
	bne     L1E5E
;
; bee3_bigbee_timer = POWERUP_TIMER;
;
	lda     #$0C
	sta     _bee3_bigbee_timer
;
; sfx_play(SFX_POWERUP, 0);
;
L1E5E:	lda     #$06
	jsr     pusha
	lda     #$00
	jsr     _sfx_play
;
; if (powerup4 == 1)
;
L2C5C:	lda     _powerup4
	cmp     #$01
	bne     L1E81
;
; if (map == MAP_COMBS)
;
	lda     _map
	bne     L2C5D
;
; temp_x2 = COMBS_FLOWER_X[3];
;
	lda     _COMBS_FLOWER_X+3
	sta     _temp_x2
;
; temp_y2 = COMBS_FLOWER_Y[3];
;
	lda     _COMBS_FLOWER_Y+3
;
; else if (map == MAP_VINES)
;
	jmp     L2C50
L2C5D:	lda     _map
	cmp     #$02
	bne     L2C5E
;
; temp_x2 = VINES_FLOWER_X[3];
;
	lda     _VINES_FLOWER_X+3
	sta     _temp_x2
;
; temp_y2 = VINES_FLOWER_Y[3];
;
	lda     _VINES_FLOWER_Y+3
;
; else if (map == MAP_OUTDOORS)
;
	jmp     L2C50
L2C5E:	lda     _map
	cmp     #$01
	bne     L1E79
;
; temp_x2 = OUTDOORS_FLOWER_X[3];
;
	lda     _OUTDOORS_FLOWER_X+3
	sta     _temp_x2
;
; temp_y2 = OUTDOORS_FLOWER_Y[3];
;
	lda     _OUTDOORS_FLOWER_Y+3
L2C50:	sta     _temp_y2
;
; if (check_powerup_collision())
;
L1E79:	jsr     _check_powerup_collision
	tax
	beq     L1E81
;
; powerup4 = 0; // Remove powerup
;
	lda     #$00
	sta     _powerup4
;
; if (temp == 1)
;
	lda     _temp
	cmp     #$01
	bne     L2C5F
;
; bee1_bigbee_timer = POWERUP_TIMER;
;
	lda     #$0C
	sta     _bee1_bigbee_timer
;
; else if (temp == 3)
;
	jmp     L1E8A
L2C5F:	lda     _temp
	cmp     #$03
	bne     L1E8A
;
; bee3_bigbee_timer = POWERUP_TIMER;
;
	lda     #$0C
	sta     _bee3_bigbee_timer
;
; sfx_play(SFX_POWERUP, 0);
;
L1E8A:	lda     #$06
	jsr     pusha
	lda     #$00
	jmp     _sfx_play
;
; }
;
L1E81:	rts

.endproc

; ---------------------------------------------------------------
; unsigned char __near__ is_dot_consumed (unsigned int)
; ---------------------------------------------------------------

.segment	"CODE"

.proc	_is_dot_consumed: near

.segment	"CODE"

;
; {
;
	jsr     pushax
;
; unsigned char byte_index = map_index >> 3; // divide by 8
;
	ldy     #$01
	lda     (sp),y
	tax
	dey
	lda     (sp),y
	jsr     shrax3
	jsr     pusha
;
; unsigned char bit_index = map_index & 0x07; // modulo 8
;
	ldy     #$01
	lda     (sp),y
	and     #$07
	jsr     pusha
;
; return (consumed_dots[byte_index] >> bit_index) & 0x01;
;
	ldy     #$01
	lda     (sp),y
	tay
	lda     _consumed_dots,y
	sta     ptr1
	ldy     #$00
	lda     (sp),y
	tay
	lda     ptr1
L2C60:	lsr     a
	dey
	bpl     L2C60
	rol     a
	and     #$01
	ldx     #$00
;
; }
;
	jmp     incsp4

.endproc

; ---------------------------------------------------------------
; void __near__ mark_dot_consumed (unsigned int)
; ---------------------------------------------------------------

.segment	"CODE"

.proc	_mark_dot_consumed: near

.segment	"CODE"

;
; {
;
	jsr     pushax
;
; unsigned char byte_index = map_index >> 3; // divide by 8
;
	ldy     #$01
	lda     (sp),y
	tax
	dey
	lda     (sp),y
	jsr     shrax3
	jsr     pusha
;
; unsigned char bit_index = map_index & 0x07; // modulo 8
;
	ldy     #$01
	lda     (sp),y
	and     #$07
	jsr     pusha
;
; consumed_dots[byte_index] |= (0x01 << bit_index);
;
	lda     #<(_consumed_dots)
	ldx     #>(_consumed_dots)
	ldy     #$01
	clc
	adc     (sp),y
	bcc     L2071
	inx
L2071:	jsr     pushax
	sta     ptr1
	stx     ptr1+1
	ldy     #$00
	lda     (ptr1),y
	sta     ptr1
	ldy     #$02
	lda     (sp),y
	tay
	lda     #$01
L2C61:	asl     a
	dey
	bpl     L2C61
	ror     a
	ora     ptr1
	ldy     #$00
	jsr     staspidx
;
; }
;
	jmp     incsp4

.endproc

; ---------------------------------------------------------------
; void __near__ write_two_digits (unsigned char, unsigned char, unsigned char, unsigned char, __near__ unsigned char *)
; ---------------------------------------------------------------

.segment	"CODE"

.proc	_write_two_digits: near

.segment	"CODE"

;
; {
;
	jsr     pushax
;
; unsigned char tens = 0;
;
	lda     #$00
	jsr     pusha
;
; if (value >= 100)
;
	jsr     decsp1
	ldy     #$07
	lda     (sp),y
	cmp     #$64
	bcc     L2C64
;
; value = 0;
;
	lda     #$00
	sta     (sp),y
;
; if (value == *last_value)
;
L2C64:	lda     (sp),y
	jsr     pusha0
	ldy     #$05
	lda     (sp),y
	sta     ptr1+1
	dey
	lda     (sp),y
	sta     ptr1
	lda     (ptr1,x)
	jsr     tosicmp0
;
; return;
;
	bne     L2C67
;
; }
;
	jmp     incsp8
;
; *last_value = value;
;
L2C67:	ldy     #$03
	lda     (sp),y
	sta     ptr1+1
	dey
	lda     (sp),y
	sta     ptr1
	ldy     #$07
	lda     (sp),y
	ldy     #$00
	sta     (ptr1),y
;
; ones = value;
;
	ldy     #$07
	lda     (sp),y
	ldy     #$00
;
; while (ones >= 10)
;
	jmp     L2C62
;
; ones -= 10;
;
L2C66:	lda     (sp),y
	sec
	sbc     #$0A
	sta     (sp),y
;
; ++tens;
;
	ldy     #$01
	clc
	tya
	adc     (sp),y
L2C62:	sta     (sp),y
;
; while (ones >= 10)
;
	ldy     #$00
	lda     (sp),y
	cmp     #$0A
	bcs     L2C66
;
; one_vram_buffer(tens + 0x30, NTADR_A(x_tens, y));
;
	iny
	lda     (sp),y
	clc
	adc     #$30
	jsr     pusha
	ldy     #$05
	ldx     #$00
	lda     (sp),y
	jsr     aslax4
	stx     tmp1
	asl     a
	rol     tmp1
	sta     ptr1
	ldy     #$07
	lda     (sp),y
	ora     ptr1
	pha
	lda     tmp1
	ora     #$20
	tax
	pla
	jsr     _one_vram_buffer
;
; one_vram_buffer(ones + 0x30, NTADR_A(x_ones, y));
;
	ldy     #$00
	lda     (sp),y
	clc
	adc     #$30
	jsr     pusha
	ldy     #$05
	ldx     #$00
	lda     (sp),y
	jsr     aslax4
	stx     tmp1
	asl     a
	rol     tmp1
	sta     ptr1
	iny
	lda     (sp),y
	ora     ptr1
	pha
	lda     tmp1
	ora     #$20
	tax
	pla
	jsr     _one_vram_buffer
;
; }
;
	jmp     incsp8

.endproc

; ---------------------------------------------------------------
; void __near__ ai_dir_to_pad (void)
; ---------------------------------------------------------------

.segment	"CODE"

.proc	_ai_dir_to_pad: near

.segment	"CODE"

;
; if (ai_dir_work == DIR_UP)
;
	lda     _ai_dir_work
	bne     L2C69
;
; ai_pad_work = PAD_UP;
;
	lda     #$08
;
; else if (ai_dir_work == DIR_DOWN)
;
	jmp     L2C68
L2C69:	lda     _ai_dir_work
	cmp     #$01
	bne     L2C6A
;
; ai_pad_work = PAD_DOWN;
;
	lda     #$04
;
; else if (ai_dir_work == DIR_LEFT)
;
	jmp     L2C68
L2C6A:	lda     _ai_dir_work
	cmp     #$02
;
; else
;
	beq     L2C68
;
; ai_pad_work = PAD_RIGHT;
;
	lda     #$01
L2C68:	sta     _ai_pad_work
;
; }
;
	rts

.endproc

; ---------------------------------------------------------------
; void __near__ ai_update (void)
; ---------------------------------------------------------------

.segment	"CODE"

.proc	_ai_update: near

.segment	"CODE"

;
; if (ai_collision_work)
;
	lda     _ai_collision_work
	beq     L2128
;
; ai_timer_work = 0;
;
	lda     #$00
	sta     _ai_timer_work
;
; temp = ai_dir_work;
;
	lda     _ai_dir_work
	sta     _temp
;
; ai_dir_work = rand8() & 0x03;
;
L212E:	jsr     _rand8
	and     #$03
	sta     _ai_dir_work
;
; } while (ai_dir_work == temp);
;
	lda     _temp
	cmp     _ai_dir_work
	beq     L212E
;
; ai_collision_work = 0;
;
	lda     #$00
	sta     _ai_collision_work
;
; }
;
L2128:	rts

.endproc

