;
; File generated by cc65 v 2.18 - N/A
;
	.fopt		compiler,"cc65 v 2.18 - N/A"
	.setcpu		"6502"
	.smart		on
	.autoimport	on
	.case		on
	.debuginfo	off
	.importzp	sp, sreg, regsave, regbank
	.importzp	tmp1, tmp2, tmp3, tmp4, ptr1, ptr2, ptr3, ptr4
	.macpack	longbranch
	.forceimport	__STARTUP__
	.import		_pal_bg
	.import		_pal_spr
	.import		_ppu_wait_nmi
	.import		_ppu_off
	.import		_ppu_on_all
	.import		_oam_clear
	.import		_oam_meta_spr
	.import		_music_play
	.import		_music_stop
	.import		_sfx_play
	.import		_bank_spr
	.import		_vram_adr
	.import		_vram_put
	.import		_delay
	.import		_set_vram_buffer
	.import		_one_vram_buffer
	.import		_multi_vram_buffer_horz
	.import		_clear_vram_buffer
	.import		_set_scroll_y
	.import		_flush_vram_update2
	.import		_pad_poll_4score_1_3
	.import		_pad_poll_4score_2_4
	.export		_gamesprites_smallbeeleft0_data
	.export		_gamesprites_smallbeeleft1_data
	.export		_gamesprites_smallbeeleft2_data
	.export		_gamesprites_smallbeeright0_data
	.export		_gamesprites_smallbeeright1_data
	.export		_gamesprites_smallbeeright2_data
	.export		_gamesprites_bigbeeleft0_data
	.export		_gamesprites_bigbeeleft1_data
	.export		_gamesprites_bigbeeleft2_data
	.export		_gamesprites_bigbeeright0_data
	.export		_gamesprites_bigbeeright1_data
	.export		_gamesprites_bigbeeright2_data
	.export		_gamesprites_smallbee2left0_data
	.export		_gamesprites_smallbee2left1_data
	.export		_gamesprites_smallbee2left2_data
	.export		_gamesprites_smallbee2right0_data
	.export		_gamesprites_smallbee2right1_data
	.export		_gamesprites_smallbee2right2_data
	.export		_gamesprites_bigbee2left0_data
	.export		_gamesprites_bigbee2left1_data
	.export		_gamesprites_bigbee2left2_data
	.export		_gamesprites_bigbee2right0_data
	.export		_gamesprites_bigbee2right1_data
	.export		_gamesprites_bigbee2right2_data
	.export		_gamesprites_smallduckleft0_data
	.export		_gamesprites_smallduckleft1_data
	.export		_gamesprites_smallduckleft2_data
	.export		_gamesprites_smallduckright0_data
	.export		_gamesprites_smallduckright1_data
	.export		_gamesprites_smallduckright2_data
	.export		_gamesprites_smallduck2left0_data
	.export		_gamesprites_smallduck2left1_data
	.export		_gamesprites_smallduck2left2_data
	.export		_gamesprites_smallduck2right0_data
	.export		_gamesprites_smallduck2right1_data
	.export		_gamesprites_smallduck2right2_data
	.export		_gamesprites_big3_data
	.export		_gamesprites_big2_data
	.export		_gamesprites_big1_data
	.export		_gamesprites_box1_data
	.export		_gamesprites_box2_data
	.export		_gamesprites_box3_data
	.export		_gamesprites_box4_data
	.export		_gamesprites_quackright_data
	.export		_gamesprites_quackleft_data
	.export		_gamesprites_quackup_data
	.export		_gamesprites_quackdown_data
	.export		_gamesprites_powerup_data
	.export		_gamesprites_win_icon_honey
	.export		_gamesprites_win_icon_time
	.export		_gamesprites_win_blueduck
	.export		_gamesprites_win_redduck
	.export		_gamesprites_win_bluebee
	.export		_gamesprites_win_redbee
	.export		_gamesprites_win_unwon
	.export		_tick_frequency
	.export		_doublepad
	.export		_generic_pad
	.export		_turbo_p1
	.export		_turbo_p2
	.export		_turbo_p3
	.export		_turbo_p4
	.export		_prev_pad1
	.export		_prev_pad2
	.export		_prev_pad3
	.export		_prev_pad4
	.export		_pad1
	.export		_pad2
	.export		_pad3
	.export		_pad4
	.export		_pad4_ai
	.export		_pad1_new
	.export		_pad2_new
	.export		_pad3_new
	.export		_pad4_new
	.export		_ai_counter
	.export		_player1_ai_ready
	.export		_player2_ai_ready
	.export		_player3_ai_ready
	.export		_player4_ai_ready
	.export		_game_mode
	.export		_winner
	.export		_game_frame_timer
	.export		_game_timer
	.export		_speed_option
	.export		_current_speed
	.export		_force_redraw
	.export		_use_turbo
	.export		_turbo_amount
	.export		_ducks_go_faster_over_time
	.export		_map_positions
	.export		_collision
	.export		_collision_L
	.export		_collision_R
	.export		_collision_U
	.export		_collision_D
	.export		_coordinates
	.export		_temp1
	.export		_temp2
	.export		_temp3
	.export		_temp4
	.export		_temp5
	.export		_temp6
	.export		_tempint
	.export		_eject_L
	.export		_eject_R
	.export		_eject_D
	.export		_eject_U
	.export		_address
	.export		_x
	.export		_y
	.export		_index
	.export		_map
	.export		_scroll_x
	.export		_scroll_y
	.export		_hero_velocity_x
	.export		_hero_velocity_y
	.export		_old_x
	.export		_old_y
	.export		_signed_temp
	.export		_signed_temp2
	.export		_temp
	.export		_temp_x
	.export		_temp_y
	.export		_temp_x2
	.export		_temp_y2
	.export		_largeindex
	.export		_song
	.export		_collision_box_size
	.export		_current_settings_choice
	.export		_settings_map
	.export		_settings_speed
	.export		_settings_song
	.export		_map_ptr
	.export		_bit_index
	.export		_bit_offset
	.export		_frame_counter
	.export		_current_player
	.export		_team1_score
	.export		_team2_score
	.export		_temp_win_reason
	.export		_temp_win_team
	.export		_team1_wins
	.export		_team2_wins
	.export		_team1_win1
	.export		_team1_win2
	.export		_team1_win3
	.export		_team2_win1
	.export		_team2_win2
	.export		_team2_win3
	.export		_round_1_winner
	.export		_round_2_winner
	.export		_round_3_winner
	.export		_round_4_winner
	.export		_round_5_winner
	.export		_round_1
	.export		_round_2
	.export		_round_3
	.export		_round_4
	.export		_round_5
	.export		_temp_round
	.export		_temp_winner
	.export		_current_round
	.export		_win_reason
	.export		_powerup1
	.export		_powerup2
	.export		_powerup3
	.export		_powerup4
	.export		_bee1_bigbee_timer
	.export		_bee3_bigbee_timer
	.export		_sprite_rotation
	.export		_anim_frame_1
	.export		_anim_frame_2
	.export		_anim_frame_3
	.export		_anim_frame_4
	.export		_consumed_dots
	.export		_start_hold_timer
	.export		_start_held
	.export		_combs
	.export		_vines
	.export		_outdoors
	.export		_settings
	.export		_title
	.export		_Generic
	.export		_quack2
	.export		_quack4
	.export		_quack2_cooldown
	.export		_quack4_cooldown
	.export		_stun_p1
	.export		_stun_p2
	.export		_stun_p3
	.export		_stun_p4
	.export		_GenericBoxGuy
	.export		_BoxGuy1
	.export		_BoxGuy2
	.export		_BoxGuy3
	.export		_BoxGuy4
	.export		_COMBS_FLOWER_X
	.export		_COMBS_FLOWER_Y
	.export		_VINES_FLOWER_X
	.export		_VINES_FLOWER_Y
	.export		_OUTDOORS_FLOWER_X
	.export		_OUTDOORS_FLOWER_Y
	.export		_palette_combsnplants_bg
	.export		_palette_outdoors_bg
	.export		_palette_vineswoflowers_bg
	.export		_palette_sp
	.export		_palette_title_bg
	.export		_palette_options_bg
	.export		_metatiles1
	.export		_load_room
	.export		_draw_sprites
	.export		_draw_player_1
	.export		_draw_player_2
	.export		_draw_player_3
	.export		_draw_player_4
	.export		_movement
	.export		_check_tile_and_collect
	.export		_draw_hud
	.export		_read_controllers
	.export		_player4_ai
	.export		_chaser_ai
	.export		_game_loop
	.export		_title_loop
	.export		_options_loop
	.export		_gameover_loop
	.export		_init_game_loop
	.export		_init_options_loop
	.export		_init_gameover_loop
	.export		_init_title_loop
	.export		_init_system
	.export		_clear_background
	.export		_update_hud
	.export		_init_roundover
	.export		_start_round
	.export		_roundover_loop
	.export		_game_counters
	.export		_quack_movement
	.export		_load_bg_palette
	.export		_update_options_screen
	.export		_draw_win_round_sprite
	.export		_display_round_summary
	.export		_bg_collision_sub
	.export		_bg_coll_L
	.export		_bg_coll_R
	.export		_bg_coll_U
	.export		_bg_coll_D
	.export		_sprite_collision
	.export		_check_powerup_collision
	.export		_main
	.export		_quack_tile_solid
	.export		_check_powerup
	.export		_pellet_tiles
	.export		_blank_tiles
	.export		_is_dot_consumed
	.export		_mark_dot_consumed

.segment	"DATA"

_BoxGuy1:
	.word	$4000
	.word	$2800
	.res	2,$00
_BoxGuy2:
	.word	$8000
	.word	$3000
	.res	2,$00
_BoxGuy3:
	.word	$A000
	.word	$3000
	.res	2,$00
_BoxGuy4:
	.word	$C000
	.word	$4000
	.res	2,$00

.segment	"RODATA"

_gamesprites_smallbeeleft0_data:
	.byte	$00
	.byte	$00
	.byte	$27
	.byte	$00
	.byte	$08
	.byte	$00
	.byte	$28
	.byte	$00
	.byte	$80
_gamesprites_smallbeeleft1_data:
	.byte	$00
	.byte	$00
	.byte	$29
	.byte	$00
	.byte	$08
	.byte	$00
	.byte	$2A
	.byte	$00
	.byte	$80
_gamesprites_smallbeeleft2_data:
	.byte	$00
	.byte	$00
	.byte	$2B
	.byte	$00
	.byte	$08
	.byte	$00
	.byte	$2C
	.byte	$00
	.byte	$80
_gamesprites_smallbeeright0_data:
	.byte	$00
	.byte	$00
	.byte	$27
	.byte	$40
	.byte	$F8
	.byte	$00
	.byte	$28
	.byte	$40
	.byte	$80
_gamesprites_smallbeeright1_data:
	.byte	$00
	.byte	$00
	.byte	$29
	.byte	$40
	.byte	$F8
	.byte	$00
	.byte	$2A
	.byte	$40
	.byte	$80
_gamesprites_smallbeeright2_data:
	.byte	$00
	.byte	$00
	.byte	$2B
	.byte	$40
	.byte	$F8
	.byte	$00
	.byte	$2C
	.byte	$40
	.byte	$80
_gamesprites_bigbeeleft0_data:
	.byte	$FC
	.byte	$03
	.byte	$47
	.byte	$00
	.byte	$FC
	.byte	$FB
	.byte	$37
	.byte	$00
	.byte	$04
	.byte	$03
	.byte	$48
	.byte	$00
	.byte	$04
	.byte	$FB
	.byte	$38
	.byte	$00
	.byte	$80
_gamesprites_bigbeeleft1_data:
	.byte	$FC
	.byte	$03
	.byte	$49
	.byte	$00
	.byte	$FC
	.byte	$FB
	.byte	$39
	.byte	$00
	.byte	$04
	.byte	$FB
	.byte	$3A
	.byte	$00
	.byte	$04
	.byte	$03
	.byte	$4A
	.byte	$00
	.byte	$80
_gamesprites_bigbeeleft2_data:
	.byte	$FC
	.byte	$03
	.byte	$4B
	.byte	$00
	.byte	$FC
	.byte	$FB
	.byte	$3B
	.byte	$00
	.byte	$04
	.byte	$FB
	.byte	$3C
	.byte	$00
	.byte	$04
	.byte	$03
	.byte	$4C
	.byte	$00
	.byte	$80
_gamesprites_bigbeeright0_data:
	.byte	$04
	.byte	$03
	.byte	$47
	.byte	$40
	.byte	$04
	.byte	$FB
	.byte	$37
	.byte	$40
	.byte	$FC
	.byte	$03
	.byte	$48
	.byte	$40
	.byte	$FC
	.byte	$FB
	.byte	$38
	.byte	$40
	.byte	$80
_gamesprites_bigbeeright1_data:
	.byte	$04
	.byte	$03
	.byte	$49
	.byte	$40
	.byte	$04
	.byte	$FB
	.byte	$39
	.byte	$40
	.byte	$FC
	.byte	$FB
	.byte	$3A
	.byte	$40
	.byte	$FC
	.byte	$03
	.byte	$4A
	.byte	$40
	.byte	$80
_gamesprites_bigbeeright2_data:
	.byte	$04
	.byte	$03
	.byte	$4B
	.byte	$40
	.byte	$04
	.byte	$FB
	.byte	$3B
	.byte	$40
	.byte	$FC
	.byte	$FB
	.byte	$3C
	.byte	$40
	.byte	$FC
	.byte	$03
	.byte	$4C
	.byte	$40
	.byte	$80
_gamesprites_smallbee2left0_data:
	.byte	$00
	.byte	$00
	.byte	$27
	.byte	$02
	.byte	$08
	.byte	$00
	.byte	$28
	.byte	$02
	.byte	$80
_gamesprites_smallbee2left1_data:
	.byte	$00
	.byte	$00
	.byte	$29
	.byte	$02
	.byte	$08
	.byte	$00
	.byte	$2A
	.byte	$02
	.byte	$80
_gamesprites_smallbee2left2_data:
	.byte	$00
	.byte	$00
	.byte	$2B
	.byte	$02
	.byte	$08
	.byte	$00
	.byte	$2C
	.byte	$02
	.byte	$80
_gamesprites_smallbee2right0_data:
	.byte	$00
	.byte	$00
	.byte	$27
	.byte	$42
	.byte	$F8
	.byte	$00
	.byte	$28
	.byte	$42
	.byte	$80
_gamesprites_smallbee2right1_data:
	.byte	$00
	.byte	$00
	.byte	$29
	.byte	$42
	.byte	$F8
	.byte	$00
	.byte	$2A
	.byte	$42
	.byte	$80
_gamesprites_smallbee2right2_data:
	.byte	$00
	.byte	$00
	.byte	$2B
	.byte	$42
	.byte	$F8
	.byte	$00
	.byte	$2C
	.byte	$42
	.byte	$80
_gamesprites_bigbee2left0_data:
	.byte	$FC
	.byte	$03
	.byte	$47
	.byte	$02
	.byte	$FC
	.byte	$FB
	.byte	$37
	.byte	$02
	.byte	$04
	.byte	$03
	.byte	$48
	.byte	$02
	.byte	$04
	.byte	$FB
	.byte	$38
	.byte	$02
	.byte	$80
_gamesprites_bigbee2left1_data:
	.byte	$FC
	.byte	$03
	.byte	$49
	.byte	$02
	.byte	$FC
	.byte	$FB
	.byte	$39
	.byte	$02
	.byte	$04
	.byte	$FB
	.byte	$3A
	.byte	$02
	.byte	$04
	.byte	$03
	.byte	$4A
	.byte	$02
	.byte	$80
_gamesprites_bigbee2left2_data:
	.byte	$FC
	.byte	$03
	.byte	$4B
	.byte	$02
	.byte	$FC
	.byte	$FB
	.byte	$3B
	.byte	$02
	.byte	$04
	.byte	$FB
	.byte	$3C
	.byte	$02
	.byte	$04
	.byte	$03
	.byte	$4C
	.byte	$02
	.byte	$80
_gamesprites_bigbee2right0_data:
	.byte	$04
	.byte	$03
	.byte	$47
	.byte	$42
	.byte	$04
	.byte	$FB
	.byte	$37
	.byte	$42
	.byte	$FC
	.byte	$03
	.byte	$48
	.byte	$42
	.byte	$FC
	.byte	$FB
	.byte	$38
	.byte	$42
	.byte	$80
_gamesprites_bigbee2right1_data:
	.byte	$04
	.byte	$03
	.byte	$49
	.byte	$42
	.byte	$04
	.byte	$FB
	.byte	$39
	.byte	$42
	.byte	$FC
	.byte	$FB
	.byte	$3A
	.byte	$42
	.byte	$FC
	.byte	$03
	.byte	$4A
	.byte	$42
	.byte	$80
_gamesprites_bigbee2right2_data:
	.byte	$04
	.byte	$03
	.byte	$4B
	.byte	$42
	.byte	$04
	.byte	$FB
	.byte	$3B
	.byte	$42
	.byte	$FC
	.byte	$FB
	.byte	$6C
	.byte	$42
	.byte	$FC
	.byte	$03
	.byte	$4C
	.byte	$42
	.byte	$80
_gamesprites_smallduckleft0_data:
	.byte	$00
	.byte	$FF
	.byte	$0C
	.byte	$00
	.byte	$00
	.byte	$07
	.byte	$1C
	.byte	$00
	.byte	$80
_gamesprites_smallduckleft1_data:
	.byte	$00
	.byte	$FF
	.byte	$0D
	.byte	$00
	.byte	$00
	.byte	$07
	.byte	$1D
	.byte	$00
	.byte	$80
_gamesprites_smallduckleft2_data:
	.byte	$00
	.byte	$FF
	.byte	$0B
	.byte	$00
	.byte	$00
	.byte	$07
	.byte	$1C
	.byte	$40
	.byte	$80
_gamesprites_smallduckright0_data:
	.byte	$00
	.byte	$FF
	.byte	$0C
	.byte	$40
	.byte	$00
	.byte	$07
	.byte	$1C
	.byte	$40
	.byte	$80
_gamesprites_smallduckright1_data:
	.byte	$00
	.byte	$FF
	.byte	$0D
	.byte	$40
	.byte	$00
	.byte	$07
	.byte	$1D
	.byte	$40
	.byte	$80
_gamesprites_smallduckright2_data:
	.byte	$00
	.byte	$FF
	.byte	$0B
	.byte	$40
	.byte	$00
	.byte	$07
	.byte	$1C
	.byte	$00
	.byte	$80
_gamesprites_smallduck2left0_data:
	.byte	$00
	.byte	$FF
	.byte	$0C
	.byte	$02
	.byte	$00
	.byte	$07
	.byte	$1C
	.byte	$00
	.byte	$80
_gamesprites_smallduck2left1_data:
	.byte	$00
	.byte	$FF
	.byte	$0D
	.byte	$02
	.byte	$00
	.byte	$07
	.byte	$1D
	.byte	$02
	.byte	$80
_gamesprites_smallduck2left2_data:
	.byte	$00
	.byte	$FF
	.byte	$0B
	.byte	$02
	.byte	$00
	.byte	$07
	.byte	$1C
	.byte	$42
	.byte	$80
_gamesprites_smallduck2right0_data:
	.byte	$00
	.byte	$FF
	.byte	$0C
	.byte	$42
	.byte	$00
	.byte	$07
	.byte	$1C
	.byte	$42
	.byte	$80
_gamesprites_smallduck2right1_data:
	.byte	$00
	.byte	$FF
	.byte	$0D
	.byte	$42
	.byte	$00
	.byte	$07
	.byte	$1D
	.byte	$42
	.byte	$80
_gamesprites_smallduck2right2_data:
	.byte	$00
	.byte	$FF
	.byte	$0D
	.byte	$42
	.byte	$00
	.byte	$07
	.byte	$1C
	.byte	$02
	.byte	$80
_gamesprites_big3_data:
	.byte	$00
	.byte	$00
	.byte	$05
	.byte	$01
	.byte	$08
	.byte	$00
	.byte	$06
	.byte	$01
	.byte	$10
	.byte	$00
	.byte	$07
	.byte	$01
	.byte	$00
	.byte	$10
	.byte	$05
	.byte	$01
	.byte	$08
	.byte	$10
	.byte	$06
	.byte	$01
	.byte	$10
	.byte	$10
	.byte	$15
	.byte	$01
	.byte	$10
	.byte	$08
	.byte	$08
	.byte	$01
	.byte	$00
	.byte	$20
	.byte	$05
	.byte	$01
	.byte	$08
	.byte	$20
	.byte	$06
	.byte	$01
	.byte	$10
	.byte	$20
	.byte	$07
	.byte	$81
	.byte	$10
	.byte	$18
	.byte	$08
	.byte	$01
	.byte	$F8
	.byte	$00
	.byte	$03
	.byte	$01
	.byte	$18
	.byte	$00
	.byte	$03
	.byte	$01
	.byte	$F8
	.byte	$08
	.byte	$03
	.byte	$01
	.byte	$00
	.byte	$08
	.byte	$03
	.byte	$01
	.byte	$08
	.byte	$08
	.byte	$03
	.byte	$01
	.byte	$18
	.byte	$08
	.byte	$03
	.byte	$01
	.byte	$F8
	.byte	$10
	.byte	$03
	.byte	$01
	.byte	$18
	.byte	$10
	.byte	$03
	.byte	$01
	.byte	$18
	.byte	$18
	.byte	$03
	.byte	$01
	.byte	$18
	.byte	$20
	.byte	$03
	.byte	$01
	.byte	$08
	.byte	$18
	.byte	$03
	.byte	$01
	.byte	$00
	.byte	$18
	.byte	$03
	.byte	$01
	.byte	$F8
	.byte	$18
	.byte	$03
	.byte	$01
	.byte	$F8
	.byte	$20
	.byte	$03
	.byte	$01
	.byte	$20
	.byte	$00
	.byte	$03
	.byte	$01
	.byte	$F0
	.byte	$00
	.byte	$03
	.byte	$01
	.byte	$20
	.byte	$08
	.byte	$03
	.byte	$01
	.byte	$20
	.byte	$10
	.byte	$03
	.byte	$01
	.byte	$20
	.byte	$18
	.byte	$03
	.byte	$01
	.byte	$20
	.byte	$20
	.byte	$03
	.byte	$01
	.byte	$F0
	.byte	$08
	.byte	$03
	.byte	$01
	.byte	$F0
	.byte	$10
	.byte	$03
	.byte	$01
	.byte	$F0
	.byte	$18
	.byte	$03
	.byte	$01
	.byte	$F0
	.byte	$20
	.byte	$03
	.byte	$01
	.byte	$F0
	.byte	$F8
	.byte	$03
	.byte	$01
	.byte	$F8
	.byte	$F8
	.byte	$03
	.byte	$01
	.byte	$00
	.byte	$F8
	.byte	$03
	.byte	$01
	.byte	$08
	.byte	$F8
	.byte	$03
	.byte	$01
	.byte	$10
	.byte	$F8
	.byte	$03
	.byte	$01
	.byte	$18
	.byte	$F8
	.byte	$03
	.byte	$01
	.byte	$20
	.byte	$F8
	.byte	$03
	.byte	$01
	.byte	$F0
	.byte	$28
	.byte	$03
	.byte	$01
	.byte	$F8
	.byte	$28
	.byte	$03
	.byte	$01
	.byte	$00
	.byte	$28
	.byte	$03
	.byte	$01
	.byte	$08
	.byte	$28
	.byte	$03
	.byte	$01
	.byte	$10
	.byte	$28
	.byte	$03
	.byte	$01
	.byte	$18
	.byte	$28
	.byte	$03
	.byte	$01
	.byte	$20
	.byte	$28
	.byte	$03
	.byte	$01
	.byte	$80
_gamesprites_big2_data:
	.byte	$00
	.byte	$00
	.byte	$05
	.byte	$01
	.byte	$08
	.byte	$00
	.byte	$06
	.byte	$01
	.byte	$10
	.byte	$00
	.byte	$07
	.byte	$01
	.byte	$10
	.byte	$08
	.byte	$08
	.byte	$01
	.byte	$10
	.byte	$10
	.byte	$07
	.byte	$81
	.byte	$08
	.byte	$10
	.byte	$06
	.byte	$01
	.byte	$00
	.byte	$10
	.byte	$07
	.byte	$41
	.byte	$00
	.byte	$18
	.byte	$08
	.byte	$01
	.byte	$00
	.byte	$20
	.byte	$07
	.byte	$C1
	.byte	$08
	.byte	$20
	.byte	$06
	.byte	$01
	.byte	$10
	.byte	$20
	.byte	$05
	.byte	$41
	.byte	$F8
	.byte	$00
	.byte	$03
	.byte	$01
	.byte	$18
	.byte	$00
	.byte	$03
	.byte	$01
	.byte	$18
	.byte	$08
	.byte	$03
	.byte	$01
	.byte	$00
	.byte	$08
	.byte	$03
	.byte	$01
	.byte	$08
	.byte	$08
	.byte	$03
	.byte	$01
	.byte	$F8
	.byte	$08
	.byte	$03
	.byte	$01
	.byte	$F8
	.byte	$10
	.byte	$03
	.byte	$01
	.byte	$18
	.byte	$10
	.byte	$03
	.byte	$01
	.byte	$F8
	.byte	$18
	.byte	$03
	.byte	$01
	.byte	$08
	.byte	$18
	.byte	$03
	.byte	$01
	.byte	$10
	.byte	$18
	.byte	$03
	.byte	$01
	.byte	$18
	.byte	$18
	.byte	$03
	.byte	$01
	.byte	$F8
	.byte	$20
	.byte	$03
	.byte	$01
	.byte	$18
	.byte	$20
	.byte	$03
	.byte	$01
	.byte	$20
	.byte	$00
	.byte	$03
	.byte	$01
	.byte	$20
	.byte	$08
	.byte	$03
	.byte	$01
	.byte	$20
	.byte	$10
	.byte	$03
	.byte	$01
	.byte	$20
	.byte	$18
	.byte	$03
	.byte	$01
	.byte	$20
	.byte	$20
	.byte	$03
	.byte	$01
	.byte	$F0
	.byte	$00
	.byte	$03
	.byte	$01
	.byte	$F0
	.byte	$08
	.byte	$03
	.byte	$01
	.byte	$F0
	.byte	$10
	.byte	$03
	.byte	$01
	.byte	$F0
	.byte	$18
	.byte	$03
	.byte	$01
	.byte	$F0
	.byte	$20
	.byte	$03
	.byte	$01
	.byte	$F0
	.byte	$F8
	.byte	$03
	.byte	$01
	.byte	$F8
	.byte	$F8
	.byte	$03
	.byte	$01
	.byte	$00
	.byte	$F8
	.byte	$03
	.byte	$01
	.byte	$08
	.byte	$F8
	.byte	$03
	.byte	$01
	.byte	$10
	.byte	$F8
	.byte	$03
	.byte	$01
	.byte	$18
	.byte	$F8
	.byte	$03
	.byte	$01
	.byte	$20
	.byte	$F8
	.byte	$03
	.byte	$01
	.byte	$F0
	.byte	$28
	.byte	$03
	.byte	$01
	.byte	$F8
	.byte	$28
	.byte	$03
	.byte	$01
	.byte	$00
	.byte	$28
	.byte	$03
	.byte	$01
	.byte	$08
	.byte	$28
	.byte	$03
	.byte	$01
	.byte	$10
	.byte	$28
	.byte	$03
	.byte	$01
	.byte	$18
	.byte	$28
	.byte	$03
	.byte	$01
	.byte	$20
	.byte	$28
	.byte	$03
	.byte	$01
	.byte	$80
_gamesprites_big1_data:
	.byte	$08
	.byte	$08
	.byte	$15
	.byte	$01
	.byte	$08
	.byte	$10
	.byte	$08
	.byte	$01
	.byte	$08
	.byte	$18
	.byte	$08
	.byte	$01
	.byte	$00
	.byte	$20
	.byte	$05
	.byte	$01
	.byte	$10
	.byte	$20
	.byte	$05
	.byte	$41
	.byte	$00
	.byte	$08
	.byte	$05
	.byte	$01
	.byte	$08
	.byte	$20
	.byte	$17
	.byte	$01
	.byte	$08
	.byte	$00
	.byte	$16
	.byte	$01
	.byte	$F8
	.byte	$00
	.byte	$03
	.byte	$01
	.byte	$00
	.byte	$00
	.byte	$03
	.byte	$01
	.byte	$10
	.byte	$00
	.byte	$03
	.byte	$01
	.byte	$18
	.byte	$00
	.byte	$03
	.byte	$01
	.byte	$18
	.byte	$08
	.byte	$03
	.byte	$01
	.byte	$18
	.byte	$10
	.byte	$03
	.byte	$01
	.byte	$18
	.byte	$18
	.byte	$03
	.byte	$01
	.byte	$18
	.byte	$20
	.byte	$03
	.byte	$01
	.byte	$10
	.byte	$08
	.byte	$03
	.byte	$01
	.byte	$10
	.byte	$10
	.byte	$03
	.byte	$01
	.byte	$10
	.byte	$18
	.byte	$03
	.byte	$01
	.byte	$F8
	.byte	$08
	.byte	$03
	.byte	$01
	.byte	$F8
	.byte	$10
	.byte	$03
	.byte	$01
	.byte	$F8
	.byte	$18
	.byte	$03
	.byte	$01
	.byte	$F8
	.byte	$20
	.byte	$03
	.byte	$01
	.byte	$00
	.byte	$10
	.byte	$03
	.byte	$01
	.byte	$00
	.byte	$18
	.byte	$03
	.byte	$01
	.byte	$20
	.byte	$00
	.byte	$03
	.byte	$01
	.byte	$F0
	.byte	$00
	.byte	$03
	.byte	$01
	.byte	$20
	.byte	$08
	.byte	$03
	.byte	$01
	.byte	$20
	.byte	$10
	.byte	$03
	.byte	$01
	.byte	$20
	.byte	$18
	.byte	$03
	.byte	$01
	.byte	$20
	.byte	$20
	.byte	$03
	.byte	$01
	.byte	$F0
	.byte	$08
	.byte	$03
	.byte	$01
	.byte	$F0
	.byte	$10
	.byte	$03
	.byte	$01
	.byte	$F0
	.byte	$18
	.byte	$03
	.byte	$01
	.byte	$F0
	.byte	$20
	.byte	$03
	.byte	$01
	.byte	$F0
	.byte	$F8
	.byte	$03
	.byte	$01
	.byte	$F8
	.byte	$F8
	.byte	$03
	.byte	$01
	.byte	$00
	.byte	$F8
	.byte	$03
	.byte	$01
	.byte	$08
	.byte	$F8
	.byte	$03
	.byte	$01
	.byte	$10
	.byte	$F8
	.byte	$03
	.byte	$01
	.byte	$18
	.byte	$F8
	.byte	$03
	.byte	$01
	.byte	$20
	.byte	$F8
	.byte	$03
	.byte	$01
	.byte	$F0
	.byte	$28
	.byte	$03
	.byte	$01
	.byte	$F8
	.byte	$28
	.byte	$03
	.byte	$01
	.byte	$00
	.byte	$28
	.byte	$03
	.byte	$01
	.byte	$08
	.byte	$28
	.byte	$03
	.byte	$01
	.byte	$10
	.byte	$28
	.byte	$03
	.byte	$01
	.byte	$18
	.byte	$28
	.byte	$03
	.byte	$01
	.byte	$20
	.byte	$28
	.byte	$03
	.byte	$01
	.byte	$80
_gamesprites_box1_data:
	.byte	$00
	.byte	$00
	.byte	$12
	.byte	$00
	.byte	$80
_gamesprites_box2_data:
	.byte	$00
	.byte	$00
	.byte	$12
	.byte	$01
	.byte	$80
_gamesprites_box3_data:
	.byte	$00
	.byte	$00
	.byte	$12
	.byte	$02
	.byte	$80
_gamesprites_box4_data:
	.byte	$00
	.byte	$00
	.byte	$12
	.byte	$03
	.byte	$80
_gamesprites_quackright_data:
	.byte	$00
	.byte	$00
	.byte	$0E
	.byte	$00
	.byte	$80
_gamesprites_quackleft_data:
	.byte	$00
	.byte	$00
	.byte	$0E
	.byte	$40
	.byte	$80
_gamesprites_quackup_data:
	.byte	$00
	.byte	$00
	.byte	$0F
	.byte	$00
	.byte	$80
_gamesprites_quackdown_data:
	.byte	$00
	.byte	$00
	.byte	$0F
	.byte	$80
	.byte	$80
_gamesprites_powerup_data:
	.byte	$00
	.byte	$00
	.byte	$10
	.byte	$03
	.byte	$08
	.byte	$00
	.byte	$11
	.byte	$03
	.byte	$00
	.byte	$08
	.byte	$20
	.byte	$03
	.byte	$08
	.byte	$08
	.byte	$21
	.byte	$03
	.byte	$80
_gamesprites_win_icon_honey:
	.byte	$00
	.byte	$00
	.byte	$60
	.byte	$00
_gamesprites_win_icon_time:
	.byte	$00
	.byte	$00
	.byte	$61
	.byte	$00
_gamesprites_win_blueduck:
	.byte	$00
	.byte	$00
	.byte	$0B
	.byte	$02
	.byte	$80
_gamesprites_win_redduck:
	.byte	$00
	.byte	$00
	.byte	$0B
	.byte	$00
	.byte	$80
_gamesprites_win_bluebee:
	.byte	$00
	.byte	$00
	.byte	$27
	.byte	$02
	.byte	$80
_gamesprites_win_redbee:
	.byte	$00
	.byte	$00
	.byte	$27
	.byte	$00
	.byte	$80
_gamesprites_win_unwon:
	.byte	$00
	.byte	$00
	.byte	$26
	.byte	$00
	.byte	$80
_combs:
	.byte	$A7
	.byte	$B6
	.byte	$EE
	.byte	$EF
	.byte	$A7
	.byte	$5D
	.byte	$00
	.byte	$00
	.byte	$00
	.byte	$00
	.byte	$00
	.byte	$00
	.byte	$00
	.byte	$00
	.byte	$00
	.byte	$00
	.byte	$00
	.byte	$00
	.byte	$00
	.byte	$00
	.byte	$00
	.byte	$00
	.byte	$00
	.byte	$00
	.byte	$00
	.byte	$00
	.byte	$5C
	.byte	$EE
	.byte	$EF
	.byte	$B6
	.byte	$AB
	.byte	$B6
	.byte	$AB
	.byte	$A7
	.byte	$FE
	.byte	$FF
	.byte	$B6
	.byte	$5D
	.byte	$00
	.byte	$00
	.byte	$00
	.byte	$00
	.byte	$00
	.byte	$00
	.byte	$00
	.byte	$00
	.byte	$00
	.byte	$00
	.byte	$00
	.byte	$00
	.byte	$00
	.byte	$00
	.byte	$00
	.byte	$00
	.byte	$00
	.byte	$00
	.byte	$00
	.byte	$00
	.byte	$5C
	.byte	$FE
	.byte	$FF
	.byte	$A7
	.byte	$B6
	.byte	$A7
	.byte	$A7
	.byte	$B6
	.byte	$A7
	.byte	$B6
	.byte	$A8
	.byte	$5E
	.byte	$5F
	.byte	$5F
	.byte	$5F
	.byte	$5F
	.byte	$5F
	.byte	$5F
	.byte	$5F
	.byte	$5F
	.byte	$5F
	.byte	$5F
	.byte	$5F
	.byte	$5F
	.byte	$5F
	.byte	$5F
	.byte	$5F
	.byte	$5F
	.byte	$5F
	.byte	$5F
	.byte	$5F
	.byte	$5F
	.byte	$5B
	.byte	$AA
	.byte	$B6
	.byte	$A7
	.byte	$B6
	.byte	$B6
	.byte	$B6
	.byte	$A7
	.byte	$F8
	.byte	$F9
	.byte	$E8
	.byte	$E9
	.byte	$F8
	.byte	$F9
	.byte	$F8
	.byte	$F9
	.byte	$BE
	.byte	$BF
	.byte	$EE
	.byte	$EF
	.byte	$F8
	.byte	$F9
	.byte	$F8
	.byte	$F9
	.byte	$EE
	.byte	$EF
	.byte	$EE
	.byte	$EF
	.byte	$E8
	.byte	$E9
	.byte	$F8
	.byte	$F9
	.byte	$F8
	.byte	$F9
	.byte	$F8
	.byte	$F9
	.byte	$AA
	.byte	$B6
	.byte	$A7
	.byte	$EB
	.byte	$B6
	.byte	$B8
	.byte	$C8
	.byte	$CA
	.byte	$C6
	.byte	$C6
	.byte	$C6
	.byte	$C8
	.byte	$DE
	.byte	$DF
	.byte	$FE
	.byte	$FF
	.byte	$C6
	.byte	$A7
	.byte	$A7
	.byte	$C6
	.byte	$FE
	.byte	$FF
	.byte	$FE
	.byte	$FF
	.byte	$C6
	.byte	$C6
	.byte	$C6
	.byte	$C6
	.byte	$C6
	.byte	$C6
	.byte	$B8
	.byte	$B8
	.byte	$EB
	.byte	$B6
	.byte	$B6
	.byte	$FB
	.byte	$B6
	.byte	$B8
	.byte	$CA
	.byte	$C8
	.byte	$EE
	.byte	$EF
	.byte	$C6
	.byte	$CA
	.byte	$C6
	.byte	$C6
	.byte	$C6
	.byte	$C8
	.byte	$C8
	.byte	$C8
	.byte	$C6
	.byte	$C8
	.byte	$C6
	.byte	$C6
	.byte	$C6
	.byte	$C9
	.byte	$C6
	.byte	$C9
	.byte	$EE
	.byte	$EF
	.byte	$C6
	.byte	$C9
	.byte	$B8
	.byte	$B8
	.byte	$FB
	.byte	$A7
	.byte	$CD
	.byte	$CD
	.byte	$CD
	.byte	$BF
	.byte	$C6
	.byte	$C6
	.byte	$FE
	.byte	$FF
	.byte	$F8
	.byte	$F9
	.byte	$E8
	.byte	$E9
	.byte	$A7
	.byte	$C6
	.byte	$C6
	.byte	$C6
	.byte	$C6
	.byte	$C6
	.byte	$C6
	.byte	$A7
	.byte	$E8
	.byte	$E9
	.byte	$F8
	.byte	$F9
	.byte	$FE
	.byte	$FF
	.byte	$C6
	.byte	$C9
	.byte	$BE
	.byte	$BF
	.byte	$EB
	.byte	$B6
	.byte	$CC
	.byte	$CB
	.byte	$DD
	.byte	$DF
	.byte	$C6
	.byte	$CA
	.byte	$C6
	.byte	$C8
	.byte	$C6
	.byte	$C6
	.byte	$C6
	.byte	$C8
	.byte	$C6
	.byte	$C6
	.byte	$A7
	.byte	$C6
	.byte	$C8
	.byte	$A7
	.byte	$C6
	.byte	$C6
	.byte	$C6
	.byte	$C6
	.byte	$C6
	.byte	$C6
	.byte	$C6
	.byte	$C6
	.byte	$C6
	.byte	$C6
	.byte	$DE
	.byte	$DF
	.byte	$FB
	.byte	$B6
	.byte	$CC
	.byte	$CF
	.byte	$C6
	.byte	$8C
	.byte	$E8
	.byte	$E9
	.byte	$F8
	.byte	$F9
	.byte	$8D
	.byte	$C6
	.byte	$F8
	.byte	$F9
	.byte	$F8
	.byte	$F9
	.byte	$EB
	.byte	$CA
	.byte	$C6
	.byte	$EB
	.byte	$F8
	.byte	$F9
	.byte	$F8
	.byte	$F9
	.byte	$C6
	.byte	$A7
	.byte	$F8
	.byte	$F9
	.byte	$E8
	.byte	$E9
	.byte	$A7
	.byte	$C6
	.byte	$EA
	.byte	$B6
	.byte	$CB
	.byte	$DF
	.byte	$C6
	.byte	$A7
	.byte	$C6
	.byte	$C6
	.byte	$C6
	.byte	$A7
	.byte	$EB
	.byte	$C6
	.byte	$C6
	.byte	$C6
	.byte	$C6
	.byte	$C6
	.byte	$FB
	.byte	$C6
	.byte	$C6
	.byte	$FB
	.byte	$CA
	.byte	$C6
	.byte	$C6
	.byte	$C6
	.byte	$C6
	.byte	$EB
	.byte	$8F
	.byte	$C9
	.byte	$C6
	.byte	$C6
	.byte	$EB
	.byte	$C6
	.byte	$FA
	.byte	$B8
	.byte	$DF
	.byte	$EB
	.byte	$C6
	.byte	$A7
	.byte	$C6
	.byte	$9C
	.byte	$CA
	.byte	$C6
	.byte	$FB
	.byte	$C6
	.byte	$F8
	.byte	$F9
	.byte	$F8
	.byte	$F9
	.byte	$A7
	.byte	$CA
	.byte	$C8
	.byte	$A7
	.byte	$E8
	.byte	$E9
	.byte	$F8
	.byte	$F9
	.byte	$C6
	.byte	$FB
	.byte	$C6
	.byte	$C6
	.byte	$A7
	.byte	$C6
	.byte	$FB
	.byte	$C7
	.byte	$EB
	.byte	$B9
	.byte	$B6
	.byte	$FB
	.byte	$C6
	.byte	$A7
	.byte	$C6
	.byte	$BE
	.byte	$BF
	.byte	$CA
	.byte	$C6
	.byte	$C6
	.byte	$CA
	.byte	$C6
	.byte	$C6
	.byte	$C6
	.byte	$C7
	.byte	$C8
	.byte	$C9
	.byte	$C6
	.byte	$C6
	.byte	$C6
	.byte	$C6
	.byte	$C6
	.byte	$C9
	.byte	$C6
	.byte	$C6
	.byte	$EE
	.byte	$EF
	.byte	$C6
	.byte	$A7
	.byte	$C6
	.byte	$FB
	.byte	$B6
	.byte	$A7
	.byte	$EB
	.byte	$C6
	.byte	$C6
	.byte	$C6
	.byte	$DE
	.byte	$DF
	.byte	$A7
	.byte	$F8
	.byte	$F9
	.byte	$F8
	.byte	$F9
	.byte	$F8
	.byte	$F9
	.byte	$8F
	.byte	$C6
	.byte	$C9
	.byte	$8E
	.byte	$F8
	.byte	$F9
	.byte	$A7
	.byte	$A7
	.byte	$F8
	.byte	$F9
	.byte	$A7
	.byte	$FE
	.byte	$FF
	.byte	$C6
	.byte	$C6
	.byte	$C6
	.byte	$ED
	.byte	$BF
	.byte	$B6
	.byte	$FB
	.byte	$C6
	.byte	$EB
	.byte	$C6
	.byte	$CA
	.byte	$C6
	.byte	$C6
	.byte	$C8
	.byte	$C6
	.byte	$C6
	.byte	$C6
	.byte	$C8
	.byte	$CA
	.byte	$C6
	.byte	$C7
	.byte	$C8
	.byte	$C6
	.byte	$C6
	.byte	$C8
	.byte	$CA
	.byte	$C6
	.byte	$C8
	.byte	$C6
	.byte	$CA
	.byte	$C6
	.byte	$C6
	.byte	$C6
	.byte	$EB
	.byte	$C6
	.byte	$FD
	.byte	$DF
	.byte	$B6
	.byte	$EB
	.byte	$C6
	.byte	$FB
	.byte	$F8
	.byte	$F9
	.byte	$F8
	.byte	$F9
	.byte	$A7
	.byte	$EE
	.byte	$EF
	.byte	$A7
	.byte	$F8
	.byte	$F9
	.byte	$A7
	.byte	$C8
	.byte	$C8
	.byte	$A7
	.byte	$F8
	.byte	$F9
	.byte	$A7
	.byte	$EE
	.byte	$EF
	.byte	$A7
	.byte	$F8
	.byte	$F9
	.byte	$F8
	.byte	$F9
	.byte	$FB
	.byte	$C6
	.byte	$EB
	.byte	$A7
	.byte	$B6
	.byte	$FB
	.byte	$C6
	.byte	$EE
	.byte	$EF
	.byte	$C6
	.byte	$C6
	.byte	$C6
	.byte	$A7
	.byte	$FE
	.byte	$FF
	.byte	$A7
	.byte	$C6
	.byte	$C6
	.byte	$C7
	.byte	$C8
	.byte	$C7
	.byte	$C6
	.byte	$C6
	.byte	$C6
	.byte	$A7
	.byte	$FE
	.byte	$FF
	.byte	$A7
	.byte	$C6
	.byte	$C6
	.byte	$C6
	.byte	$BE
	.byte	$BF
	.byte	$C7
	.byte	$FB
	.byte	$B6
	.byte	$BE
	.byte	$EC
	.byte	$C6
	.byte	$FE
	.byte	$FF
	.byte	$F8
	.byte	$F9
	.byte	$C6
	.byte	$C6
	.byte	$C6
	.byte	$C6
	.byte	$C6
	.byte	$C6
	.byte	$BE
	.byte	$BF
	.byte	$C6
	.byte	$C7
	.byte	$BE
	.byte	$BF
	.byte	$CA
	.byte	$C6
	.byte	$C6
	.byte	$C6
	.byte	$C6
	.byte	$C6
	.byte	$F8
	.byte	$F9
	.byte	$DE
	.byte	$DF
	.byte	$C8
	.byte	$EB
	.byte	$B6
	.byte	$DE
	.byte	$FC
	.byte	$C6
	.byte	$C6
	.byte	$C6
	.byte	$C6
	.byte	$C6
	.byte	$C6
	.byte	$EB
	.byte	$C6
	.byte	$A7
	.byte	$F8
	.byte	$F9
	.byte	$CE
	.byte	$CF
	.byte	$C6
	.byte	$C6
	.byte	$CE
	.byte	$CF
	.byte	$F8
	.byte	$F9
	.byte	$A7
	.byte	$C6
	.byte	$EB
	.byte	$C6
	.byte	$C6
	.byte	$CA
	.byte	$C6
	.byte	$C6
	.byte	$C6
	.byte	$FB
	.byte	$B6
	.byte	$B6
	.byte	$EB
	.byte	$C6
	.byte	$A7
	.byte	$F8
	.byte	$F9
	.byte	$A7
	.byte	$C6
	.byte	$FB
	.byte	$C6
	.byte	$C6
	.byte	$C6
	.byte	$8E
	.byte	$DE
	.byte	$DF
	.byte	$BE
	.byte	$BF
	.byte	$DE
	.byte	$DF
	.byte	$8F
	.byte	$C6
	.byte	$C6
	.byte	$C6
	.byte	$FB
	.byte	$C6
	.byte	$9C
	.byte	$9C
	.byte	$F8
	.byte	$F9
	.byte	$C7
	.byte	$EA
	.byte	$B6
	.byte	$B6
	.byte	$FB
	.byte	$C6
	.byte	$C6
	.byte	$C6
	.byte	$BE
	.byte	$BF
	.byte	$C6
	.byte	$EB
	.byte	$C6
	.byte	$A7
	.byte	$C6
	.byte	$C6
	.byte	$C6
	.byte	$C6
	.byte	$DE
	.byte	$DF
	.byte	$C6
	.byte	$C6
	.byte	$C6
	.byte	$C6
	.byte	$A7
	.byte	$C6
	.byte	$EB
	.byte	$C6
	.byte	$EE
	.byte	$EF
	.byte	$C6
	.byte	$C6
	.byte	$CA
	.byte	$FA
	.byte	$B6
	.byte	$B6
	.byte	$EA
	.byte	$C6
	.byte	$A7
	.byte	$A7
	.byte	$DE
	.byte	$DF
	.byte	$C6
	.byte	$FB
	.byte	$C6
	.byte	$8C
	.byte	$BE
	.byte	$BF
	.byte	$8D
	.byte	$C6
	.byte	$C9
	.byte	$C6
	.byte	$C6
	.byte	$8C
	.byte	$BE
	.byte	$BF
	.byte	$8D
	.byte	$C6
	.byte	$FB
	.byte	$C6
	.byte	$FE
	.byte	$FF
	.byte	$E8
	.byte	$E9
	.byte	$C6
	.byte	$EB
	.byte	$99
	.byte	$A7
	.byte	$FA
	.byte	$C6
	.byte	$C6
	.byte	$C6
	.byte	$C6
	.byte	$EB
	.byte	$C6
	.byte	$EA
	.byte	$C6
	.byte	$ED
	.byte	$BC
	.byte	$DC
	.byte	$EC
	.byte	$C7
	.byte	$C6
	.byte	$C6
	.byte	$C6
	.byte	$ED
	.byte	$BC
	.byte	$DC
	.byte	$EC
	.byte	$C9
	.byte	$EB
	.byte	$C6
	.byte	$A7
	.byte	$C6
	.byte	$C6
	.byte	$C6
	.byte	$C8
	.byte	$FB
	.byte	$B6
	.byte	$B6
	.byte	$EB
	.byte	$C6
	.byte	$F8
	.byte	$F9
	.byte	$A7
	.byte	$FB
	.byte	$C6
	.byte	$FA
	.byte	$C6
	.byte	$FD
	.byte	$BB
	.byte	$CB
	.byte	$FC
	.byte	$C6
	.byte	$BE
	.byte	$BF
	.byte	$C7
	.byte	$FD
	.byte	$BB
	.byte	$CB
	.byte	$FC
	.byte	$C6
	.byte	$FB
	.byte	$C6
	.byte	$A7
	.byte	$F8
	.byte	$F9
	.byte	$A7
	.byte	$C6
	.byte	$EB
	.byte	$B6
	.byte	$B6
	.byte	$FB
	.byte	$C6
	.byte	$C6
	.byte	$C6
	.byte	$C6
	.byte	$C6
	.byte	$C6
	.byte	$EB
	.byte	$C6
	.byte	$8E
	.byte	$DE
	.byte	$DF
	.byte	$8F
	.byte	$C6
	.byte	$DE
	.byte	$DF
	.byte	$C6
	.byte	$8E
	.byte	$DE
	.byte	$DF
	.byte	$8F
	.byte	$C6
	.byte	$EB
	.byte	$C6
	.byte	$C6
	.byte	$CA
	.byte	$C6
	.byte	$C6
	.byte	$CA
	.byte	$FB
	.byte	$B6
	.byte	$A7
	.byte	$EB
	.byte	$C6
	.byte	$A7
	.byte	$EE
	.byte	$EF
	.byte	$C6
	.byte	$9E
	.byte	$FB
	.byte	$C6
	.byte	$C7
	.byte	$C6
	.byte	$C6
	.byte	$C6
	.byte	$C6
	.byte	$C6
	.byte	$C6
	.byte	$C7
	.byte	$C6
	.byte	$CA
	.byte	$C6
	.byte	$C6
	.byte	$C6
	.byte	$FB
	.byte	$A7
	.byte	$C6
	.byte	$EE
	.byte	$EF
	.byte	$A7
	.byte	$C6
	.byte	$EB
	.byte	$B6
	.byte	$B6
	.byte	$FB
	.byte	$C6
	.byte	$C6
	.byte	$FE
	.byte	$FF
	.byte	$C6
	.byte	$C6
	.byte	$C6
	.byte	$C6
	.byte	$F8
	.byte	$F9
	.byte	$BE
	.byte	$BF
	.byte	$C7
	.byte	$EE
	.byte	$EF
	.byte	$C6
	.byte	$BE
	.byte	$BF
	.byte	$F8
	.byte	$F9
	.byte	$C6
	.byte	$C6
	.byte	$C6
	.byte	$C6
	.byte	$FE
	.byte	$FF
	.byte	$C6
	.byte	$C6
	.byte	$FB
	.byte	$AB
	.byte	$B6
	.byte	$EB
	.byte	$B8
	.byte	$B8
	.byte	$C6
	.byte	$A7
	.byte	$C6
	.byte	$BE
	.byte	$BF
	.byte	$C6
	.byte	$C6
	.byte	$C6
	.byte	$DE
	.byte	$DF
	.byte	$C6
	.byte	$FE
	.byte	$FF
	.byte	$C6
	.byte	$DE
	.byte	$DF
	.byte	$C6
	.byte	$C6
	.byte	$C6
	.byte	$BE
	.byte	$BF
	.byte	$C6
	.byte	$A7
	.byte	$C6
	.byte	$B8
	.byte	$B8
	.byte	$EB
	.byte	$A7
	.byte	$A7
	.byte	$FB
	.byte	$B8
	.byte	$B8
	.byte	$C6
	.byte	$C6
	.byte	$C6
	.byte	$CE
	.byte	$CF
	.byte	$EE
	.byte	$EF
	.byte	$C6
	.byte	$C6
	.byte	$C6
	.byte	$C6
	.byte	$C6
	.byte	$C6
	.byte	$C6
	.byte	$C6
	.byte	$C6
	.byte	$C6
	.byte	$BE
	.byte	$CD
	.byte	$BC
	.byte	$CF
	.byte	$C6
	.byte	$C6
	.byte	$C6
	.byte	$B8
	.byte	$B8
	.byte	$FB
	.byte	$B6
	.byte	$B6
	.byte	$A8
	.byte	$E8
	.byte	$E9
	.byte	$F8
	.byte	$F9
	.byte	$A7
	.byte	$CE
	.byte	$CF
	.byte	$FE
	.byte	$FF
	.byte	$F8
	.byte	$F9
	.byte	$F8
	.byte	$F9
	.byte	$E8
	.byte	$E9
	.byte	$F8
	.byte	$F9
	.byte	$F8
	.byte	$F9
	.byte	$CE
	.byte	$CC
	.byte	$CC
	.byte	$DB
	.byte	$A7
	.byte	$F8
	.byte	$F9
	.byte	$F8
	.byte	$F9
	.byte	$AA
	.byte	$B6
	.byte	$A7
	.byte	$B6
	.byte	$B6
	.byte	$B6
	.byte	$B6
	.byte	$A7
	.byte	$B6
	.byte	$DE
	.byte	$DF
	.byte	$A7
	.byte	$AF
	.byte	$B6
	.byte	$A7
	.byte	$B9
	.byte	$B6
	.byte	$B9
	.byte	$B6
	.byte	$A7
	.byte	$A7
	.byte	$B7
	.byte	$A8
	.byte	$DE
	.byte	$DD
	.byte	$DD
	.byte	$DF
	.byte	$B6
	.byte	$B7
	.byte	$B6
	.byte	$A7
	.byte	$A7
	.byte	$B6
	.byte	$B6
	.byte	$00
	.byte	$0C
	.byte	$0F
	.byte	$07
	.byte	$0D
	.byte	$0F
	.byte	$03
	.byte	$00
	.byte	$00
	.byte	$00
	.byte	$00
	.byte	$00
	.byte	$00
	.byte	$00
	.byte	$00
	.byte	$00
	.byte	$00
	.byte	$00
	.byte	$00
	.byte	$00
	.byte	$00
	.byte	$00
	.byte	$00
	.byte	$00
	.byte	$00
	.byte	$00
	.byte	$00
	.byte	$00
	.byte	$00
	.byte	$00
	.byte	$00
	.byte	$00
	.byte	$00
	.byte	$00
	.byte	$00
	.byte	$00
	.byte	$00
	.byte	$00
	.byte	$00
	.byte	$00
	.byte	$00
	.byte	$00
	.byte	$00
	.byte	$00
	.byte	$00
	.byte	$00
	.byte	$00
	.byte	$00
	.byte	$00
	.byte	$00
	.byte	$00
	.byte	$00
	.byte	$00
	.byte	$00
	.byte	$00
	.byte	$00
	.byte	$00
	.byte	$00
	.byte	$00
	.byte	$00
	.byte	$00
	.byte	$00
	.byte	$00
	.byte	$00
_vines:
	.byte	$CC
	.byte	$CC
	.byte	$CB
	.byte	$DD
	.byte	$BB
	.byte	$5D
	.byte	$00
	.byte	$00
	.byte	$00
	.byte	$00
	.byte	$00
	.byte	$00
	.byte	$00
	.byte	$00
	.byte	$00
	.byte	$00
	.byte	$00
	.byte	$00
	.byte	$00
	.byte	$00
	.byte	$00
	.byte	$00
	.byte	$00
	.byte	$00
	.byte	$00
	.byte	$00
	.byte	$5C
	.byte	$CC
	.byte	$A6
	.byte	$CC
	.byte	$CC
	.byte	$CC
	.byte	$CC
	.byte	$CC
	.byte	$CF
	.byte	$AB
	.byte	$CE
	.byte	$5D
	.byte	$00
	.byte	$00
	.byte	$00
	.byte	$00
	.byte	$00
	.byte	$00
	.byte	$00
	.byte	$00
	.byte	$00
	.byte	$00
	.byte	$00
	.byte	$00
	.byte	$00
	.byte	$00
	.byte	$00
	.byte	$00
	.byte	$00
	.byte	$00
	.byte	$00
	.byte	$00
	.byte	$5C
	.byte	$CC
	.byte	$CC
	.byte	$CC
	.byte	$CC
	.byte	$CC
	.byte	$CC
	.byte	$A6
	.byte	$DC
	.byte	$CD
	.byte	$BC
	.byte	$5E
	.byte	$5F
	.byte	$5F
	.byte	$5F
	.byte	$5F
	.byte	$5F
	.byte	$5F
	.byte	$5F
	.byte	$5F
	.byte	$5F
	.byte	$5F
	.byte	$5F
	.byte	$5F
	.byte	$5F
	.byte	$5F
	.byte	$5F
	.byte	$5F
	.byte	$5F
	.byte	$5F
	.byte	$5F
	.byte	$5F
	.byte	$5B
	.byte	$CC
	.byte	$CC
	.byte	$A6
	.byte	$CC
	.byte	$CC
	.byte	$CC
	.byte	$CB
	.byte	$DD
	.byte	$DD
	.byte	$DD
	.byte	$DD
	.byte	$DD
	.byte	$DD
	.byte	$DD
	.byte	$DD
	.byte	$DD
	.byte	$DD
	.byte	$DD
	.byte	$DD
	.byte	$DD
	.byte	$DD
	.byte	$DD
	.byte	$DD
	.byte	$DD
	.byte	$DD
	.byte	$DD
	.byte	$DD
	.byte	$DD
	.byte	$DD
	.byte	$DD
	.byte	$DD
	.byte	$DD
	.byte	$DD
	.byte	$DD
	.byte	$DD
	.byte	$BB
	.byte	$CC
	.byte	$CC
	.byte	$CF
	.byte	$00
	.byte	$00
	.byte	$C3
	.byte	$A5
	.byte	$D3
	.byte	$C4
	.byte	$C0
	.byte	$D4
	.byte	$A5
	.byte	$A5
	.byte	$A5
	.byte	$A5
	.byte	$A5
	.byte	$A5
	.byte	$A5
	.byte	$A5
	.byte	$A5
	.byte	$A5
	.byte	$A5
	.byte	$A5
	.byte	$D3
	.byte	$C4
	.byte	$C0
	.byte	$D4
	.byte	$A5
	.byte	$E0
	.byte	$00
	.byte	$00
	.byte	$CE
	.byte	$CC
	.byte	$CC
	.byte	$CF
	.byte	$00
	.byte	$00
	.byte	$E4
	.byte	$A5
	.byte	$A5
	.byte	$D3
	.byte	$D4
	.byte	$A5
	.byte	$A5
	.byte	$C0
	.byte	$A0
	.byte	$A1
	.byte	$C4
	.byte	$A5
	.byte	$A5
	.byte	$C0
	.byte	$E1
	.byte	$A0
	.byte	$C4
	.byte	$A5
	.byte	$A5
	.byte	$D3
	.byte	$D4
	.byte	$A5
	.byte	$A5
	.byte	$E4
	.byte	$00
	.byte	$00
	.byte	$CE
	.byte	$CC
	.byte	$CC
	.byte	$CF
	.byte	$A5
	.byte	$A5
	.byte	$A5
	.byte	$A5
	.byte	$A5
	.byte	$A5
	.byte	$A5
	.byte	$A5
	.byte	$C0
	.byte	$D4
	.byte	$B0
	.byte	$B1
	.byte	$F0
	.byte	$A5
	.byte	$A5
	.byte	$D0
	.byte	$00
	.byte	$B0
	.byte	$D3
	.byte	$C4
	.byte	$A5
	.byte	$A5
	.byte	$A5
	.byte	$A5
	.byte	$A5
	.byte	$A5
	.byte	$A5
	.byte	$A5
	.byte	$CE
	.byte	$CC
	.byte	$A6
	.byte	$CF
	.byte	$A5
	.byte	$A5
	.byte	$A5
	.byte	$A5
	.byte	$C0
	.byte	$C1
	.byte	$E2
	.byte	$C1
	.byte	$D4
	.byte	$00
	.byte	$00
	.byte	$00
	.byte	$F0
	.byte	$A5
	.byte	$A5
	.byte	$F0
	.byte	$00
	.byte	$00
	.byte	$00
	.byte	$D3
	.byte	$C1
	.byte	$E2
	.byte	$C1
	.byte	$C4
	.byte	$A5
	.byte	$A5
	.byte	$A5
	.byte	$A5
	.byte	$CE
	.byte	$CB
	.byte	$CC
	.byte	$CF
	.byte	$A5
	.byte	$A5
	.byte	$A5
	.byte	$A5
	.byte	$D3
	.byte	$C1
	.byte	$C1
	.byte	$C2
	.byte	$C1
	.byte	$E1
	.byte	$E2
	.byte	$C1
	.byte	$D4
	.byte	$A5
	.byte	$A5
	.byte	$D3
	.byte	$C2
	.byte	$C1
	.byte	$E1
	.byte	$C1
	.byte	$C1
	.byte	$C1
	.byte	$C1
	.byte	$D4
	.byte	$A5
	.byte	$A5
	.byte	$A5
	.byte	$A5
	.byte	$CE
	.byte	$CF
	.byte	$CC
	.byte	$CF
	.byte	$A5
	.byte	$E3
	.byte	$A5
	.byte	$A5
	.byte	$A5
	.byte	$A5
	.byte	$A5
	.byte	$A5
	.byte	$A5
	.byte	$A5
	.byte	$A5
	.byte	$A5
	.byte	$A5
	.byte	$A5
	.byte	$A5
	.byte	$A5
	.byte	$A5
	.byte	$A5
	.byte	$A5
	.byte	$A5
	.byte	$A5
	.byte	$A5
	.byte	$A5
	.byte	$A5
	.byte	$A5
	.byte	$A5
	.byte	$E3
	.byte	$A5
	.byte	$CE
	.byte	$CF
	.byte	$CC
	.byte	$CF
	.byte	$A5
	.byte	$D3
	.byte	$C1
	.byte	$E1
	.byte	$C1
	.byte	$C1
	.byte	$C4
	.byte	$A5
	.byte	$C0
	.byte	$E2
	.byte	$C5
	.byte	$E1
	.byte	$D1
	.byte	$A5
	.byte	$A5
	.byte	$D2
	.byte	$C1
	.byte	$C5
	.byte	$C1
	.byte	$C4
	.byte	$A5
	.byte	$C0
	.byte	$F2
	.byte	$C1
	.byte	$C1
	.byte	$E1
	.byte	$D4
	.byte	$A5
	.byte	$CE
	.byte	$CF
	.byte	$CC
	.byte	$CF
	.byte	$A5
	.byte	$A5
	.byte	$A5
	.byte	$A5
	.byte	$A5
	.byte	$A5
	.byte	$F0
	.byte	$A5
	.byte	$F0
	.byte	$C0
	.byte	$D4
	.byte	$A5
	.byte	$A5
	.byte	$A5
	.byte	$A5
	.byte	$A5
	.byte	$A5
	.byte	$D3
	.byte	$C4
	.byte	$D0
	.byte	$A5
	.byte	$F0
	.byte	$A5
	.byte	$A5
	.byte	$A5
	.byte	$A5
	.byte	$A5
	.byte	$A5
	.byte	$CE
	.byte	$DC
	.byte	$CC
	.byte	$CF
	.byte	$A5
	.byte	$C0
	.byte	$C1
	.byte	$E2
	.byte	$C1
	.byte	$C1
	.byte	$D4
	.byte	$A5
	.byte	$D3
	.byte	$D4
	.byte	$A5
	.byte	$A5
	.byte	$A5
	.byte	$A5
	.byte	$A5
	.byte	$A5
	.byte	$A5
	.byte	$A5
	.byte	$D3
	.byte	$D4
	.byte	$A5
	.byte	$D3
	.byte	$E2
	.byte	$C1
	.byte	$C1
	.byte	$C1
	.byte	$C4
	.byte	$A5
	.byte	$CE
	.byte	$CC
	.byte	$CC
	.byte	$CF
	.byte	$A5
	.byte	$F0
	.byte	$A5
	.byte	$A5
	.byte	$A5
	.byte	$A5
	.byte	$A5
	.byte	$A5
	.byte	$A5
	.byte	$A5
	.byte	$A5
	.byte	$A5
	.byte	$A7
	.byte	$A5
	.byte	$A5
	.byte	$A7
	.byte	$A5
	.byte	$A5
	.byte	$A5
	.byte	$A5
	.byte	$A5
	.byte	$A5
	.byte	$A5
	.byte	$A5
	.byte	$A5
	.byte	$A5
	.byte	$C3
	.byte	$A5
	.byte	$CE
	.byte	$CC
	.byte	$CC
	.byte	$CF
	.byte	$A5
	.byte	$F0
	.byte	$A5
	.byte	$C0
	.byte	$C1
	.byte	$C4
	.byte	$A5
	.byte	$E3
	.byte	$A5
	.byte	$A5
	.byte	$A5
	.byte	$A7
	.byte	$A7
	.byte	$A5
	.byte	$A5
	.byte	$A7
	.byte	$A7
	.byte	$A5
	.byte	$A5
	.byte	$A5
	.byte	$E3
	.byte	$A5
	.byte	$C0
	.byte	$E2
	.byte	$C4
	.byte	$A5
	.byte	$F0
	.byte	$A5
	.byte	$CE
	.byte	$CC
	.byte	$CC
	.byte	$CF
	.byte	$A5
	.byte	$F0
	.byte	$A5
	.byte	$F0
	.byte	$A5
	.byte	$F0
	.byte	$A5
	.byte	$F0
	.byte	$A5
	.byte	$A5
	.byte	$A7
	.byte	$A7
	.byte	$A7
	.byte	$B6
	.byte	$B6
	.byte	$A7
	.byte	$A7
	.byte	$A7
	.byte	$A5
	.byte	$A5
	.byte	$E0
	.byte	$A5
	.byte	$F0
	.byte	$A5
	.byte	$F0
	.byte	$A5
	.byte	$F0
	.byte	$A5
	.byte	$CE
	.byte	$CC
	.byte	$CC
	.byte	$CF
	.byte	$A5
	.byte	$F0
	.byte	$A5
	.byte	$E4
	.byte	$A5
	.byte	$F0
	.byte	$A5
	.byte	$E4
	.byte	$A5
	.byte	$A5
	.byte	$EE
	.byte	$EF
	.byte	$B6
	.byte	$B6
	.byte	$B6
	.byte	$B6
	.byte	$EE
	.byte	$EF
	.byte	$A5
	.byte	$A5
	.byte	$E4
	.byte	$A5
	.byte	$F0
	.byte	$A5
	.byte	$E4
	.byte	$A5
	.byte	$F0
	.byte	$A5
	.byte	$CE
	.byte	$A6
	.byte	$CC
	.byte	$CF
	.byte	$A5
	.byte	$F0
	.byte	$A5
	.byte	$A5
	.byte	$A5
	.byte	$F0
	.byte	$A5
	.byte	$A5
	.byte	$A5
	.byte	$A5
	.byte	$FE
	.byte	$FF
	.byte	$B6
	.byte	$B6
	.byte	$B6
	.byte	$B6
	.byte	$FE
	.byte	$FF
	.byte	$A5
	.byte	$A5
	.byte	$A5
	.byte	$A5
	.byte	$F0
	.byte	$A5
	.byte	$A5
	.byte	$A5
	.byte	$F0
	.byte	$A5
	.byte	$CE
	.byte	$CC
	.byte	$CC
	.byte	$CF
	.byte	$A5
	.byte	$F0
	.byte	$A5
	.byte	$A5
	.byte	$A5
	.byte	$F0
	.byte	$A5
	.byte	$E3
	.byte	$A5
	.byte	$A5
	.byte	$A7
	.byte	$A7
	.byte	$A7
	.byte	$B6
	.byte	$B6
	.byte	$A7
	.byte	$A7
	.byte	$A7
	.byte	$A5
	.byte	$A5
	.byte	$E3
	.byte	$A5
	.byte	$F0
	.byte	$A5
	.byte	$A5
	.byte	$A5
	.byte	$E0
	.byte	$A5
	.byte	$CE
	.byte	$CC
	.byte	$A6
	.byte	$CF
	.byte	$A5
	.byte	$E0
	.byte	$A5
	.byte	$E3
	.byte	$A5
	.byte	$F0
	.byte	$A5
	.byte	$F0
	.byte	$A5
	.byte	$A5
	.byte	$A5
	.byte	$A7
	.byte	$A7
	.byte	$A5
	.byte	$A5
	.byte	$A7
	.byte	$A7
	.byte	$A5
	.byte	$A5
	.byte	$A5
	.byte	$F0
	.byte	$A5
	.byte	$F0
	.byte	$A5
	.byte	$E3
	.byte	$A5
	.byte	$F0
	.byte	$A5
	.byte	$CE
	.byte	$CC
	.byte	$CC
	.byte	$CF
	.byte	$A5
	.byte	$F0
	.byte	$A5
	.byte	$F0
	.byte	$A5
	.byte	$F0
	.byte	$A5
	.byte	$F0
	.byte	$A5
	.byte	$A5
	.byte	$A5
	.byte	$A5
	.byte	$A7
	.byte	$A5
	.byte	$A5
	.byte	$A7
	.byte	$A5
	.byte	$A5
	.byte	$A5
	.byte	$A5
	.byte	$F0
	.byte	$A5
	.byte	$D0
	.byte	$A5
	.byte	$F0
	.byte	$A5
	.byte	$F0
	.byte	$A5
	.byte	$CE
	.byte	$CC
	.byte	$CC
	.byte	$CF
	.byte	$A5
	.byte	$E4
	.byte	$A5
	.byte	$F0
	.byte	$A5
	.byte	$F0
	.byte	$A5
	.byte	$E4
	.byte	$A5
	.byte	$C0
	.byte	$C4
	.byte	$A5
	.byte	$A5
	.byte	$A5
	.byte	$A5
	.byte	$A5
	.byte	$A5
	.byte	$C0
	.byte	$C4
	.byte	$A5
	.byte	$E4
	.byte	$A5
	.byte	$F0
	.byte	$A5
	.byte	$F0
	.byte	$A5
	.byte	$E4
	.byte	$A5
	.byte	$CE
	.byte	$CC
	.byte	$CC
	.byte	$CF
	.byte	$A5
	.byte	$A5
	.byte	$A5
	.byte	$D3
	.byte	$C1
	.byte	$D4
	.byte	$A5
	.byte	$A5
	.byte	$A5
	.byte	$F0
	.byte	$D3
	.byte	$C4
	.byte	$A5
	.byte	$A5
	.byte	$A5
	.byte	$A5
	.byte	$C0
	.byte	$D4
	.byte	$F0
	.byte	$A5
	.byte	$A5
	.byte	$A5
	.byte	$D3
	.byte	$C1
	.byte	$D4
	.byte	$A5
	.byte	$A5
	.byte	$A5
	.byte	$CE
	.byte	$CC
	.byte	$CC
	.byte	$CF
	.byte	$A5
	.byte	$A5
	.byte	$A5
	.byte	$A5
	.byte	$A5
	.byte	$A5
	.byte	$A5
	.byte	$A5
	.byte	$A5
	.byte	$F0
	.byte	$00
	.byte	$D3
	.byte	$C4
	.byte	$A5
	.byte	$A5
	.byte	$C0
	.byte	$D4
	.byte	$00
	.byte	$F0
	.byte	$A5
	.byte	$A5
	.byte	$A5
	.byte	$A5
	.byte	$A5
	.byte	$A5
	.byte	$A5
	.byte	$A5
	.byte	$A5
	.byte	$CE
	.byte	$CC
	.byte	$CC
	.byte	$CF
	.byte	$F2
	.byte	$E1
	.byte	$C1
	.byte	$D1
	.byte	$A5
	.byte	$A5
	.byte	$D2
	.byte	$C1
	.byte	$C1
	.byte	$F1
	.byte	$E1
	.byte	$C1
	.byte	$D4
	.byte	$A5
	.byte	$A5
	.byte	$D3
	.byte	$C1
	.byte	$C1
	.byte	$F1
	.byte	$C1
	.byte	$C1
	.byte	$C1
	.byte	$D1
	.byte	$A5
	.byte	$A5
	.byte	$D2
	.byte	$E2
	.byte	$E1
	.byte	$CE
	.byte	$A6
	.byte	$CC
	.byte	$CF
	.byte	$A5
	.byte	$A5
	.byte	$A5
	.byte	$A5
	.byte	$A5
	.byte	$A5
	.byte	$A5
	.byte	$A5
	.byte	$A5
	.byte	$E4
	.byte	$A5
	.byte	$A5
	.byte	$A5
	.byte	$A5
	.byte	$A5
	.byte	$A5
	.byte	$A5
	.byte	$A5
	.byte	$E4
	.byte	$A5
	.byte	$A5
	.byte	$A5
	.byte	$A5
	.byte	$A5
	.byte	$A5
	.byte	$A5
	.byte	$A5
	.byte	$A5
	.byte	$CE
	.byte	$CC
	.byte	$CC
	.byte	$CF
	.byte	$00
	.byte	$00
	.byte	$C0
	.byte	$A0
	.byte	$A1
	.byte	$F2
	.byte	$C4
	.byte	$A5
	.byte	$A5
	.byte	$A5
	.byte	$A5
	.byte	$C0
	.byte	$E1
	.byte	$C1
	.byte	$C1
	.byte	$E2
	.byte	$C4
	.byte	$A5
	.byte	$A5
	.byte	$A5
	.byte	$A5
	.byte	$C0
	.byte	$F2
	.byte	$A0
	.byte	$A1
	.byte	$C4
	.byte	$00
	.byte	$00
	.byte	$CE
	.byte	$CC
	.byte	$CC
	.byte	$CF
	.byte	$00
	.byte	$00
	.byte	$F0
	.byte	$B0
	.byte	$B1
	.byte	$00
	.byte	$F0
	.byte	$A5
	.byte	$A5
	.byte	$A5
	.byte	$A5
	.byte	$F0
	.byte	$00
	.byte	$00
	.byte	$00
	.byte	$00
	.byte	$F0
	.byte	$A5
	.byte	$A5
	.byte	$A5
	.byte	$A5
	.byte	$F0
	.byte	$00
	.byte	$B0
	.byte	$B1
	.byte	$E0
	.byte	$00
	.byte	$00
	.byte	$CE
	.byte	$CC
	.byte	$CC
	.byte	$DC
	.byte	$CD
	.byte	$CD
	.byte	$CD
	.byte	$CD
	.byte	$CD
	.byte	$CD
	.byte	$CD
	.byte	$CD
	.byte	$CD
	.byte	$CD
	.byte	$CD
	.byte	$CD
	.byte	$CD
	.byte	$CD
	.byte	$CD
	.byte	$CD
	.byte	$CD
	.byte	$CD
	.byte	$CD
	.byte	$CD
	.byte	$CD
	.byte	$CD
	.byte	$CD
	.byte	$CD
	.byte	$CD
	.byte	$CD
	.byte	$CD
	.byte	$CD
	.byte	$BC
	.byte	$CC
	.byte	$CC
	.byte	$CC
	.byte	$CC
	.byte	$A6
	.byte	$CC
	.byte	$CC
	.byte	$CC
	.byte	$CC
	.byte	$CC
	.byte	$CC
	.byte	$CC
	.byte	$A6
	.byte	$CC
	.byte	$CC
	.byte	$CC
	.byte	$CC
	.byte	$CC
	.byte	$A6
	.byte	$A6
	.byte	$CC
	.byte	$CC
	.byte	$CC
	.byte	$A6
	.byte	$CC
	.byte	$CC
	.byte	$CC
	.byte	$CC
	.byte	$A6
	.byte	$CC
	.byte	$CC
	.byte	$CC
	.byte	$CC
	.byte	$00
	.byte	$00
	.byte	$00
	.byte	$00
	.byte	$00
	.byte	$00
	.byte	$00
	.byte	$00
	.byte	$44
	.byte	$55
	.byte	$55
	.byte	$55
	.byte	$55
	.byte	$55
	.byte	$55
	.byte	$11
	.byte	$44
	.byte	$55
	.byte	$55
	.byte	$55
	.byte	$55
	.byte	$55
	.byte	$55
	.byte	$11
	.byte	$44
	.byte	$55
	.byte	$55
	.byte	$01
	.byte	$04
	.byte	$55
	.byte	$55
	.byte	$11
	.byte	$44
	.byte	$55
	.byte	$55
	.byte	$00
	.byte	$00
	.byte	$55
	.byte	$55
	.byte	$11
	.byte	$44
	.byte	$55
	.byte	$55
	.byte	$51
	.byte	$54
	.byte	$55
	.byte	$55
	.byte	$11
	.byte	$44
	.byte	$55
	.byte	$55
	.byte	$55
	.byte	$55
	.byte	$55
	.byte	$55
	.byte	$11
	.byte	$00
	.byte	$00
	.byte	$00
	.byte	$00
	.byte	$00
	.byte	$00
	.byte	$00
	.byte	$00
_outdoors:
	.byte	$82
	.byte	$83
	.byte	$82
	.byte	$82
	.byte	$65
	.byte	$5D
	.byte	$00
	.byte	$00
	.byte	$00
	.byte	$00
	.byte	$00
	.byte	$00
	.byte	$00
	.byte	$00
	.byte	$00
	.byte	$00
	.byte	$00
	.byte	$00
	.byte	$00
	.byte	$00
	.byte	$00
	.byte	$00
	.byte	$00
	.byte	$00
	.byte	$00
	.byte	$00
	.byte	$5C
	.byte	$84
	.byte	$90
	.byte	$83
	.byte	$91
	.byte	$92
	.byte	$92
	.byte	$63
	.byte	$63
	.byte	$82
	.byte	$75
	.byte	$5D
	.byte	$00
	.byte	$00
	.byte	$00
	.byte	$00
	.byte	$00
	.byte	$00
	.byte	$00
	.byte	$00
	.byte	$00
	.byte	$00
	.byte	$00
	.byte	$00
	.byte	$00
	.byte	$00
	.byte	$00
	.byte	$00
	.byte	$00
	.byte	$00
	.byte	$00
	.byte	$00
	.byte	$5C
	.byte	$94
	.byte	$83
	.byte	$62
	.byte	$63
	.byte	$91
	.byte	$92
	.byte	$83
	.byte	$82
	.byte	$82
	.byte	$85
	.byte	$5E
	.byte	$5F
	.byte	$5F
	.byte	$5F
	.byte	$5F
	.byte	$5F
	.byte	$5F
	.byte	$5F
	.byte	$5F
	.byte	$5F
	.byte	$5F
	.byte	$5F
	.byte	$5F
	.byte	$5F
	.byte	$5F
	.byte	$5F
	.byte	$5F
	.byte	$5F
	.byte	$5F
	.byte	$5F
	.byte	$5F
	.byte	$5B
	.byte	$74
	.byte	$90
	.byte	$83
	.byte	$82
	.byte	$90
	.byte	$92
	.byte	$92
	.byte	$70
	.byte	$71
	.byte	$71
	.byte	$61
	.byte	$60
	.byte	$61
	.byte	$60
	.byte	$61
	.byte	$60
	.byte	$61
	.byte	$60
	.byte	$61
	.byte	$60
	.byte	$61
	.byte	$60
	.byte	$61
	.byte	$60
	.byte	$61
	.byte	$60
	.byte	$61
	.byte	$60
	.byte	$61
	.byte	$60
	.byte	$61
	.byte	$60
	.byte	$71
	.byte	$70
	.byte	$71
	.byte	$90
	.byte	$63
	.byte	$82
	.byte	$65
	.byte	$A5
	.byte	$A5
	.byte	$A5
	.byte	$A5
	.byte	$A5
	.byte	$A5
	.byte	$A5
	.byte	$A5
	.byte	$A5
	.byte	$A5
	.byte	$A5
	.byte	$A5
	.byte	$A5
	.byte	$A5
	.byte	$A5
	.byte	$A5
	.byte	$A5
	.byte	$A5
	.byte	$A5
	.byte	$A5
	.byte	$A5
	.byte	$A5
	.byte	$A5
	.byte	$A5
	.byte	$A5
	.byte	$A5
	.byte	$A5
	.byte	$A5
	.byte	$64
	.byte	$92
	.byte	$92
	.byte	$75
	.byte	$A5
	.byte	$78
	.byte	$67
	.byte	$67
	.byte	$77
	.byte	$A5
	.byte	$61
	.byte	$60
	.byte	$61
	.byte	$60
	.byte	$72
	.byte	$A5
	.byte	$61
	.byte	$61
	.byte	$60
	.byte	$60
	.byte	$A5
	.byte	$73
	.byte	$60
	.byte	$61
	.byte	$61
	.byte	$60
	.byte	$A5
	.byte	$78
	.byte	$68
	.byte	$68
	.byte	$77
	.byte	$A5
	.byte	$74
	.byte	$91
	.byte	$82
	.byte	$85
	.byte	$A5
	.byte	$66
	.byte	$72
	.byte	$73
	.byte	$66
	.byte	$A5
	.byte	$A5
	.byte	$A5
	.byte	$A5
	.byte	$A5
	.byte	$A3
	.byte	$A5
	.byte	$A5
	.byte	$A5
	.byte	$A5
	.byte	$A5
	.byte	$A5
	.byte	$B3
	.byte	$A5
	.byte	$A5
	.byte	$A5
	.byte	$A5
	.byte	$A5
	.byte	$76
	.byte	$73
	.byte	$72
	.byte	$76
	.byte	$A5
	.byte	$84
	.byte	$91
	.byte	$92
	.byte	$95
	.byte	$A5
	.byte	$76
	.byte	$62
	.byte	$62
	.byte	$66
	.byte	$A5
	.byte	$61
	.byte	$60
	.byte	$60
	.byte	$60
	.byte	$70
	.byte	$A5
	.byte	$B3
	.byte	$A5
	.byte	$A5
	.byte	$B3
	.byte	$A5
	.byte	$71
	.byte	$60
	.byte	$60
	.byte	$61
	.byte	$60
	.byte	$A5
	.byte	$66
	.byte	$62
	.byte	$63
	.byte	$66
	.byte	$A5
	.byte	$94
	.byte	$91
	.byte	$91
	.byte	$85
	.byte	$A5
	.byte	$76
	.byte	$62
	.byte	$63
	.byte	$66
	.byte	$A5
	.byte	$A5
	.byte	$A5
	.byte	$A5
	.byte	$A5
	.byte	$A5
	.byte	$A5
	.byte	$A3
	.byte	$A5
	.byte	$A5
	.byte	$A3
	.byte	$A5
	.byte	$A5
	.byte	$A5
	.byte	$A5
	.byte	$A5
	.byte	$A5
	.byte	$A5
	.byte	$76
	.byte	$63
	.byte	$63
	.byte	$66
	.byte	$A5
	.byte	$64
	.byte	$92
	.byte	$90
	.byte	$95
	.byte	$A5
	.byte	$76
	.byte	$62
	.byte	$92
	.byte	$76
	.byte	$A5
	.byte	$64
	.byte	$60
	.byte	$60
	.byte	$60
	.byte	$A5
	.byte	$A5
	.byte	$B3
	.byte	$A5
	.byte	$A5
	.byte	$B3
	.byte	$A5
	.byte	$A5
	.byte	$61
	.byte	$60
	.byte	$61
	.byte	$72
	.byte	$A5
	.byte	$66
	.byte	$62
	.byte	$92
	.byte	$76
	.byte	$A5
	.byte	$74
	.byte	$62
	.byte	$63
	.byte	$85
	.byte	$A5
	.byte	$76
	.byte	$63
	.byte	$63
	.byte	$66
	.byte	$A5
	.byte	$A3
	.byte	$A5
	.byte	$A5
	.byte	$A5
	.byte	$A5
	.byte	$A5
	.byte	$A3
	.byte	$A5
	.byte	$A5
	.byte	$A3
	.byte	$A5
	.byte	$A5
	.byte	$A5
	.byte	$A5
	.byte	$A5
	.byte	$A3
	.byte	$A5
	.byte	$66
	.byte	$63
	.byte	$62
	.byte	$66
	.byte	$A5
	.byte	$84
	.byte	$63
	.byte	$93
	.byte	$95
	.byte	$A5
	.byte	$66
	.byte	$71
	.byte	$70
	.byte	$66
	.byte	$A5
	.byte	$B3
	.byte	$A5
	.byte	$A5
	.byte	$A5
	.byte	$A5
	.byte	$A5
	.byte	$B3
	.byte	$A5
	.byte	$A5
	.byte	$B3
	.byte	$A5
	.byte	$A5
	.byte	$A5
	.byte	$A5
	.byte	$A5
	.byte	$B3
	.byte	$A5
	.byte	$76
	.byte	$70
	.byte	$71
	.byte	$76
	.byte	$A5
	.byte	$94
	.byte	$91
	.byte	$93
	.byte	$65
	.byte	$A5
	.byte	$78
	.byte	$67
	.byte	$67
	.byte	$77
	.byte	$A5
	.byte	$A5
	.byte	$A5
	.byte	$60
	.byte	$61
	.byte	$60
	.byte	$60
	.byte	$70
	.byte	$A5
	.byte	$A5
	.byte	$70
	.byte	$61
	.byte	$60
	.byte	$60
	.byte	$61
	.byte	$A5
	.byte	$A5
	.byte	$A5
	.byte	$78
	.byte	$67
	.byte	$67
	.byte	$77
	.byte	$A5
	.byte	$64
	.byte	$91
	.byte	$92
	.byte	$75
	.byte	$A5
	.byte	$A5
	.byte	$A5
	.byte	$A5
	.byte	$A5
	.byte	$A5
	.byte	$A5
	.byte	$A5
	.byte	$A5
	.byte	$A5
	.byte	$A5
	.byte	$A5
	.byte	$A5
	.byte	$A5
	.byte	$A5
	.byte	$A5
	.byte	$A5
	.byte	$A5
	.byte	$A5
	.byte	$A5
	.byte	$A5
	.byte	$A5
	.byte	$A5
	.byte	$A5
	.byte	$A5
	.byte	$A5
	.byte	$A5
	.byte	$A5
	.byte	$71
	.byte	$70
	.byte	$86
	.byte	$88
	.byte	$A5
	.byte	$A5
	.byte	$00
	.byte	$00
	.byte	$A5
	.byte	$A5
	.byte	$84
	.byte	$81
	.byte	$80
	.byte	$81
	.byte	$80
	.byte	$81
	.byte	$60
	.byte	$A5
	.byte	$A5
	.byte	$61
	.byte	$80
	.byte	$81
	.byte	$72
	.byte	$73
	.byte	$72
	.byte	$73
	.byte	$A5
	.byte	$A5
	.byte	$00
	.byte	$00
	.byte	$A5
	.byte	$A5
	.byte	$87
	.byte	$86
	.byte	$96
	.byte	$79
	.byte	$A5
	.byte	$A5
	.byte	$00
	.byte	$00
	.byte	$A5
	.byte	$A5
	.byte	$94
	.byte	$91
	.byte	$91
	.byte	$63
	.byte	$91
	.byte	$95
	.byte	$A5
	.byte	$A5
	.byte	$A5
	.byte	$A5
	.byte	$91
	.byte	$91
	.byte	$91
	.byte	$62
	.byte	$91
	.byte	$95
	.byte	$A5
	.byte	$A5
	.byte	$00
	.byte	$00
	.byte	$A5
	.byte	$A5
	.byte	$89
	.byte	$96
	.byte	$96
	.byte	$96
	.byte	$86
	.byte	$86
	.byte	$69
	.byte	$6B
	.byte	$86
	.byte	$86
	.byte	$86
	.byte	$86
	.byte	$86
	.byte	$86
	.byte	$86
	.byte	$86
	.byte	$69
	.byte	$6A
	.byte	$6A
	.byte	$6B
	.byte	$86
	.byte	$86
	.byte	$86
	.byte	$86
	.byte	$86
	.byte	$86
	.byte	$86
	.byte	$86
	.byte	$69
	.byte	$6B
	.byte	$86
	.byte	$86
	.byte	$96
	.byte	$96
	.byte	$96
	.byte	$96
	.byte	$8A
	.byte	$8A
	.byte	$69
	.byte	$6B
	.byte	$8A
	.byte	$8A
	.byte	$8A
	.byte	$8A
	.byte	$8A
	.byte	$8A
	.byte	$8A
	.byte	$8A
	.byte	$69
	.byte	$6A
	.byte	$6A
	.byte	$6B
	.byte	$8A
	.byte	$8A
	.byte	$8A
	.byte	$8A
	.byte	$8A
	.byte	$8A
	.byte	$8A
	.byte	$8A
	.byte	$69
	.byte	$6B
	.byte	$8A
	.byte	$8A
	.byte	$96
	.byte	$96
	.byte	$96
	.byte	$79
	.byte	$A5
	.byte	$A5
	.byte	$A5
	.byte	$A5
	.byte	$A5
	.byte	$A5
	.byte	$64
	.byte	$63
	.byte	$62
	.byte	$63
	.byte	$91
	.byte	$75
	.byte	$A5
	.byte	$A5
	.byte	$A5
	.byte	$A5
	.byte	$84
	.byte	$62
	.byte	$90
	.byte	$63
	.byte	$62
	.byte	$65
	.byte	$A5
	.byte	$A5
	.byte	$A5
	.byte	$A5
	.byte	$A5
	.byte	$A5
	.byte	$89
	.byte	$96
	.byte	$8A
	.byte	$98
	.byte	$A5
	.byte	$A5
	.byte	$A5
	.byte	$A5
	.byte	$A5
	.byte	$A5
	.byte	$74
	.byte	$70
	.byte	$71
	.byte	$70
	.byte	$71
	.byte	$95
	.byte	$A5
	.byte	$A5
	.byte	$A5
	.byte	$A5
	.byte	$94
	.byte	$70
	.byte	$71
	.byte	$70
	.byte	$71
	.byte	$85
	.byte	$A5
	.byte	$A5
	.byte	$A5
	.byte	$A5
	.byte	$A5
	.byte	$A5
	.byte	$97
	.byte	$8A
	.byte	$92
	.byte	$65
	.byte	$A5
	.byte	$84
	.byte	$65
	.byte	$A5
	.byte	$66
	.byte	$A5
	.byte	$A5
	.byte	$A5
	.byte	$A5
	.byte	$A5
	.byte	$A5
	.byte	$B3
	.byte	$A5
	.byte	$A5
	.byte	$A5
	.byte	$A5
	.byte	$B3
	.byte	$A5
	.byte	$A5
	.byte	$A5
	.byte	$A5
	.byte	$A5
	.byte	$A5
	.byte	$66
	.byte	$A5
	.byte	$84
	.byte	$85
	.byte	$A5
	.byte	$80
	.byte	$81
	.byte	$92
	.byte	$75
	.byte	$A5
	.byte	$74
	.byte	$85
	.byte	$A5
	.byte	$78
	.byte	$67
	.byte	$68
	.byte	$67
	.byte	$67
	.byte	$77
	.byte	$A5
	.byte	$70
	.byte	$61
	.byte	$A5
	.byte	$A5
	.byte	$61
	.byte	$71
	.byte	$A5
	.byte	$78
	.byte	$67
	.byte	$68
	.byte	$67
	.byte	$67
	.byte	$77
	.byte	$A5
	.byte	$64
	.byte	$95
	.byte	$A5
	.byte	$74
	.byte	$91
	.byte	$82
	.byte	$85
	.byte	$A5
	.byte	$84
	.byte	$95
	.byte	$A5
	.byte	$A5
	.byte	$A5
	.byte	$A5
	.byte	$A5
	.byte	$A5
	.byte	$A5
	.byte	$A5
	.byte	$A5
	.byte	$A5
	.byte	$A5
	.byte	$A5
	.byte	$A5
	.byte	$A5
	.byte	$A5
	.byte	$A5
	.byte	$A5
	.byte	$A5
	.byte	$A5
	.byte	$A5
	.byte	$A5
	.byte	$A5
	.byte	$94
	.byte	$85
	.byte	$A5
	.byte	$84
	.byte	$91
	.byte	$92
	.byte	$95
	.byte	$A5
	.byte	$94
	.byte	$62
	.byte	$80
	.byte	$81
	.byte	$73
	.byte	$72
	.byte	$72
	.byte	$A5
	.byte	$78
	.byte	$67
	.byte	$67
	.byte	$77
	.byte	$A5
	.byte	$A5
	.byte	$78
	.byte	$67
	.byte	$67
	.byte	$77
	.byte	$A5
	.byte	$80
	.byte	$81
	.byte	$72
	.byte	$80
	.byte	$81
	.byte	$92
	.byte	$65
	.byte	$A5
	.byte	$94
	.byte	$91
	.byte	$92
	.byte	$65
	.byte	$A5
	.byte	$70
	.byte	$71
	.byte	$70
	.byte	$71
	.byte	$70
	.byte	$71
	.byte	$70
	.byte	$A5
	.byte	$A5
	.byte	$A5
	.byte	$A5
	.byte	$A5
	.byte	$A5
	.byte	$A5
	.byte	$A5
	.byte	$A5
	.byte	$A5
	.byte	$A5
	.byte	$A5
	.byte	$71
	.byte	$71
	.byte	$71
	.byte	$71
	.byte	$70
	.byte	$71
	.byte	$70
	.byte	$A5
	.byte	$64
	.byte	$62
	.byte	$63
	.byte	$75
	.byte	$A5
	.byte	$A5
	.byte	$A5
	.byte	$A5
	.byte	$A5
	.byte	$A5
	.byte	$A5
	.byte	$A5
	.byte	$A5
	.byte	$A5
	.byte	$A5
	.byte	$A5
	.byte	$A5
	.byte	$A5
	.byte	$A5
	.byte	$A5
	.byte	$A5
	.byte	$A5
	.byte	$A5
	.byte	$A5
	.byte	$A5
	.byte	$A5
	.byte	$A5
	.byte	$A5
	.byte	$A5
	.byte	$A5
	.byte	$A5
	.byte	$A5
	.byte	$74
	.byte	$62
	.byte	$82
	.byte	$85
	.byte	$00
	.byte	$00
	.byte	$61
	.byte	$60
	.byte	$61
	.byte	$60
	.byte	$A5
	.byte	$A5
	.byte	$60
	.byte	$61
	.byte	$60
	.byte	$61
	.byte	$60
	.byte	$A5
	.byte	$A5
	.byte	$61
	.byte	$61
	.byte	$60
	.byte	$60
	.byte	$61
	.byte	$A5
	.byte	$A5
	.byte	$60
	.byte	$61
	.byte	$60
	.byte	$60
	.byte	$00
	.byte	$00
	.byte	$84
	.byte	$91
	.byte	$82
	.byte	$95
	.byte	$00
	.byte	$00
	.byte	$A5
	.byte	$A5
	.byte	$A5
	.byte	$A5
	.byte	$A5
	.byte	$A5
	.byte	$A5
	.byte	$A5
	.byte	$A5
	.byte	$A5
	.byte	$A5
	.byte	$A5
	.byte	$A5
	.byte	$A5
	.byte	$A5
	.byte	$A5
	.byte	$A5
	.byte	$A5
	.byte	$A5
	.byte	$A5
	.byte	$A5
	.byte	$A5
	.byte	$A5
	.byte	$A5
	.byte	$00
	.byte	$00
	.byte	$94
	.byte	$91
	.byte	$92
	.byte	$90
	.byte	$80
	.byte	$81
	.byte	$80
	.byte	$80
	.byte	$81
	.byte	$80
	.byte	$72
	.byte	$73
	.byte	$80
	.byte	$81
	.byte	$80
	.byte	$72
	.byte	$73
	.byte	$80
	.byte	$81
	.byte	$80
	.byte	$80
	.byte	$81
	.byte	$80
	.byte	$81
	.byte	$72
	.byte	$73
	.byte	$80
	.byte	$81
	.byte	$80
	.byte	$81
	.byte	$80
	.byte	$81
	.byte	$90
	.byte	$91
	.byte	$90
	.byte	$91
	.byte	$90
	.byte	$91
	.byte	$92
	.byte	$90
	.byte	$91
	.byte	$63
	.byte	$62
	.byte	$91
	.byte	$91
	.byte	$91
	.byte	$90
	.byte	$91
	.byte	$91
	.byte	$90
	.byte	$91
	.byte	$92
	.byte	$90
	.byte	$91
	.byte	$90
	.byte	$91
	.byte	$90
	.byte	$91
	.byte	$62
	.byte	$91
	.byte	$90
	.byte	$92
	.byte	$82
	.byte	$83
	.byte	$90
	.byte	$91
	.byte	$AA
	.byte	$AA
	.byte	$AA
	.byte	$AA
	.byte	$AA
	.byte	$AA
	.byte	$AA
	.byte	$AA
	.byte	$22
	.byte	$20
	.byte	$AA
	.byte	$AA
	.byte	$AA
	.byte	$AA
	.byte	$80
	.byte	$88
	.byte	$22
	.byte	$22
	.byte	$2A
	.byte	$88
	.byte	$22
	.byte	$8A
	.byte	$88
	.byte	$88
	.byte	$32
	.byte	$00
	.byte	$A8
	.byte	$AA
	.byte	$AA
	.byte	$A2
	.byte	$00
	.byte	$F8
	.byte	$FF
	.byte	$3C
	.byte	$AF
	.byte	$A3
	.byte	$AC
	.byte	$AF
	.byte	$F3
	.byte	$FF
	.byte	$AA
	.byte	$A2
	.byte	$20
	.byte	$0A
	.byte	$0A
	.byte	$80
	.byte	$A8
	.byte	$AA
	.byte	$EA
	.byte	$AA
	.byte	$A2
	.byte	$A0
	.byte	$A0
	.byte	$A8
	.byte	$AA
	.byte	$BA
	.byte	$0A
	.byte	$0A
	.byte	$0A
	.byte	$0A
	.byte	$0A
	.byte	$0A
	.byte	$0A
	.byte	$0A
_settings:
	.byte	$00
	.byte	$00
	.byte	$00
	.byte	$00
	.byte	$00
	.byte	$00
	.byte	$00
	.byte	$00
	.byte	$00
	.byte	$00
	.byte	$00
	.byte	$00
	.byte	$00
	.byte	$00
	.byte	$00
	.byte	$00
	.byte	$00
	.byte	$00
	.byte	$00
	.byte	$00
	.byte	$00
	.byte	$00
	.byte	$00
	.byte	$00
	.byte	$00
	.byte	$00
	.byte	$00
	.byte	$00
	.byte	$00
	.byte	$00
	.byte	$00
	.byte	$00
	.byte	$00
	.byte	$C0
	.byte	$C1
	.byte	$C1
	.byte	$C2
	.byte	$C1
	.byte	$C1
	.byte	$E1
	.byte	$C1
	.byte	$C1
	.byte	$C5
	.byte	$E1
	.byte	$C1
	.byte	$C1
	.byte	$C1
	.byte	$C1
	.byte	$C1
	.byte	$C1
	.byte	$C1
	.byte	$C1
	.byte	$C2
	.byte	$C5
	.byte	$C1
	.byte	$C1
	.byte	$C1
	.byte	$F2
	.byte	$C1
	.byte	$C1
	.byte	$E2
	.byte	$C1
	.byte	$C4
	.byte	$00
	.byte	$00
	.byte	$F0
	.byte	$B6
	.byte	$B6
	.byte	$B6
	.byte	$B6
	.byte	$B6
	.byte	$B6
	.byte	$B6
	.byte	$B6
	.byte	$D0
	.byte	$B5
	.byte	$53
	.byte	$45
	.byte	$54
	.byte	$54
	.byte	$49
	.byte	$4E
	.byte	$47
	.byte	$53
	.byte	$B5
	.byte	$E0
	.byte	$B6
	.byte	$B6
	.byte	$B6
	.byte	$B6
	.byte	$B6
	.byte	$B6
	.byte	$B6
	.byte	$B6
	.byte	$F0
	.byte	$00
	.byte	$00
	.byte	$C3
	.byte	$B6
	.byte	$B6
	.byte	$B6
	.byte	$B6
	.byte	$B6
	.byte	$B6
	.byte	$B6
	.byte	$B6
	.byte	$D3
	.byte	$C1
	.byte	$C1
	.byte	$C1
	.byte	$C1
	.byte	$C1
	.byte	$C1
	.byte	$C1
	.byte	$C1
	.byte	$C1
	.byte	$C1
	.byte	$D4
	.byte	$B6
	.byte	$B6
	.byte	$B6
	.byte	$B6
	.byte	$B6
	.byte	$B6
	.byte	$B6
	.byte	$B6
	.byte	$D0
	.byte	$00
	.byte	$00
	.byte	$C3
	.byte	$B6
	.byte	$B6
	.byte	$B6
	.byte	$B6
	.byte	$B6
	.byte	$B6
	.byte	$B6
	.byte	$B6
	.byte	$B6
	.byte	$B6
	.byte	$B6
	.byte	$B6
	.byte	$B6
	.byte	$B6
	.byte	$B6
	.byte	$B6
	.byte	$B6
	.byte	$B6
	.byte	$B6
	.byte	$B6
	.byte	$B6
	.byte	$B6
	.byte	$B6
	.byte	$B6
	.byte	$B6
	.byte	$B6
	.byte	$B6
	.byte	$B6
	.byte	$F0
	.byte	$00
	.byte	$00
	.byte	$F0
	.byte	$B6
	.byte	$B6
	.byte	$B6
	.byte	$B6
	.byte	$B6
	.byte	$B6
	.byte	$B6
	.byte	$B6
	.byte	$B6
	.byte	$B6
	.byte	$B6
	.byte	$B6
	.byte	$B6
	.byte	$B6
	.byte	$B6
	.byte	$B6
	.byte	$B6
	.byte	$B6
	.byte	$B6
	.byte	$B6
	.byte	$B6
	.byte	$B6
	.byte	$B6
	.byte	$B6
	.byte	$B6
	.byte	$B6
	.byte	$B6
	.byte	$B6
	.byte	$F0
	.byte	$00
	.byte	$00
	.byte	$C3
	.byte	$B6
	.byte	$B6
	.byte	$B6
	.byte	$B6
	.byte	$B6
	.byte	$B6
	.byte	$B6
	.byte	$B6
	.byte	$B6
	.byte	$B6
	.byte	$B6
	.byte	$B6
	.byte	$B6
	.byte	$B6
	.byte	$B6
	.byte	$B6
	.byte	$B6
	.byte	$B6
	.byte	$B6
	.byte	$B6
	.byte	$B6
	.byte	$B6
	.byte	$B6
	.byte	$B6
	.byte	$B6
	.byte	$B6
	.byte	$B6
	.byte	$B6
	.byte	$C3
	.byte	$00
	.byte	$00
	.byte	$E0
	.byte	$B6
	.byte	$B6
	.byte	$B6
	.byte	$B6
	.byte	$B6
	.byte	$B6
	.byte	$B6
	.byte	$B6
	.byte	$B6
	.byte	$B6
	.byte	$B6
	.byte	$B6
	.byte	$B6
	.byte	$B6
	.byte	$B6
	.byte	$B6
	.byte	$B6
	.byte	$B6
	.byte	$B6
	.byte	$B6
	.byte	$B6
	.byte	$B6
	.byte	$B6
	.byte	$B6
	.byte	$B6
	.byte	$B6
	.byte	$B6
	.byte	$B6
	.byte	$D0
	.byte	$00
	.byte	$00
	.byte	$D0
	.byte	$B6
	.byte	$B6
	.byte	$B6
	.byte	$B6
	.byte	$B6
	.byte	$B6
	.byte	$B6
	.byte	$B6
	.byte	$B6
	.byte	$B6
	.byte	$B6
	.byte	$B6
	.byte	$B6
	.byte	$B6
	.byte	$B6
	.byte	$B6
	.byte	$B6
	.byte	$B6
	.byte	$B6
	.byte	$B6
	.byte	$B6
	.byte	$B6
	.byte	$B6
	.byte	$B6
	.byte	$B6
	.byte	$B6
	.byte	$B6
	.byte	$B6
	.byte	$C3
	.byte	$00
	.byte	$00
	.byte	$F0
	.byte	$B6
	.byte	$B6
	.byte	$B6
	.byte	$B6
	.byte	$B6
	.byte	$B6
	.byte	$B6
	.byte	$B6
	.byte	$B6
	.byte	$B6
	.byte	$B6
	.byte	$B6
	.byte	$B6
	.byte	$B6
	.byte	$B6
	.byte	$B6
	.byte	$B6
	.byte	$B6
	.byte	$B6
	.byte	$B6
	.byte	$B6
	.byte	$B6
	.byte	$B6
	.byte	$B6
	.byte	$B6
	.byte	$B6
	.byte	$B6
	.byte	$B6
	.byte	$E0
	.byte	$00
	.byte	$00
	.byte	$F0
	.byte	$B6
	.byte	$B6
	.byte	$B6
	.byte	$B6
	.byte	$B6
	.byte	$B6
	.byte	$B6
	.byte	$B6
	.byte	$B6
	.byte	$B6
	.byte	$B6
	.byte	$B6
	.byte	$B6
	.byte	$B6
	.byte	$B6
	.byte	$B6
	.byte	$B6
	.byte	$B6
	.byte	$B6
	.byte	$B6
	.byte	$B6
	.byte	$B6
	.byte	$B6
	.byte	$B6
	.byte	$B6
	.byte	$B6
	.byte	$B6
	.byte	$B6
	.byte	$C3
	.byte	$00
	.byte	$00
	.byte	$F0
	.byte	$B6
	.byte	$B6
	.byte	$B6
	.byte	$B6
	.byte	$B6
	.byte	$B6
	.byte	$B6
	.byte	$B6
	.byte	$B6
	.byte	$B6
	.byte	$B6
	.byte	$B6
	.byte	$B6
	.byte	$B6
	.byte	$B6
	.byte	$B6
	.byte	$B6
	.byte	$B6
	.byte	$B6
	.byte	$B6
	.byte	$B6
	.byte	$B6
	.byte	$B6
	.byte	$B6
	.byte	$B6
	.byte	$B6
	.byte	$B6
	.byte	$B6
	.byte	$F0
	.byte	$00
	.byte	$00
	.byte	$F0
	.byte	$B6
	.byte	$B6
	.byte	$B6
	.byte	$B6
	.byte	$B6
	.byte	$B6
	.byte	$B6
	.byte	$B6
	.byte	$B6
	.byte	$B6
	.byte	$B6
	.byte	$B6
	.byte	$B6
	.byte	$B6
	.byte	$B6
	.byte	$B6
	.byte	$B6
	.byte	$B6
	.byte	$B6
	.byte	$B6
	.byte	$B6
	.byte	$B6
	.byte	$B6
	.byte	$B6
	.byte	$B6
	.byte	$B6
	.byte	$B6
	.byte	$B6
	.byte	$F0
	.byte	$00
	.byte	$00
	.byte	$F0
	.byte	$B6
	.byte	$B6
	.byte	$B6
	.byte	$B6
	.byte	$B6
	.byte	$B6
	.byte	$B6
	.byte	$B6
	.byte	$B6
	.byte	$B6
	.byte	$B6
	.byte	$B6
	.byte	$B6
	.byte	$B6
	.byte	$B6
	.byte	$B6
	.byte	$B6
	.byte	$B6
	.byte	$B6
	.byte	$B6
	.byte	$B6
	.byte	$B6
	.byte	$B6
	.byte	$B6
	.byte	$B6
	.byte	$B6
	.byte	$B6
	.byte	$B6
	.byte	$F0
	.byte	$00
	.byte	$00
	.byte	$F0
	.byte	$B6
	.byte	$B6
	.byte	$B6
	.byte	$B6
	.byte	$B6
	.byte	$B6
	.byte	$B6
	.byte	$B6
	.byte	$B6
	.byte	$B6
	.byte	$B6
	.byte	$B6
	.byte	$B6
	.byte	$B6
	.byte	$B6
	.byte	$B6
	.byte	$B6
	.byte	$B6
	.byte	$B6
	.byte	$B6
	.byte	$B6
	.byte	$B6
	.byte	$B6
	.byte	$B6
	.byte	$B6
	.byte	$B6
	.byte	$B6
	.byte	$B6
	.byte	$F0
	.byte	$00
	.byte	$00
	.byte	$F0
	.byte	$B6
	.byte	$B6
	.byte	$B6
	.byte	$B6
	.byte	$B6
	.byte	$B6
	.byte	$B6
	.byte	$B6
	.byte	$B6
	.byte	$B6
	.byte	$B6
	.byte	$B6
	.byte	$B6
	.byte	$B6
	.byte	$B6
	.byte	$B6
	.byte	$B6
	.byte	$B6
	.byte	$B6
	.byte	$B6
	.byte	$B6
	.byte	$B6
	.byte	$B6
	.byte	$B6
	.byte	$B6
	.byte	$B6
	.byte	$B6
	.byte	$B6
	.byte	$F0
	.byte	$00
	.byte	$00
	.byte	$F0
	.byte	$B6
	.byte	$B6
	.byte	$B6
	.byte	$B6
	.byte	$B6
	.byte	$B6
	.byte	$B6
	.byte	$B6
	.byte	$B6
	.byte	$B6
	.byte	$B6
	.byte	$B6
	.byte	$B6
	.byte	$B6
	.byte	$B6
	.byte	$B6
	.byte	$B6
	.byte	$B6
	.byte	$B6
	.byte	$B6
	.byte	$B6
	.byte	$B6
	.byte	$B6
	.byte	$B6
	.byte	$B6
	.byte	$B6
	.byte	$B6
	.byte	$B6
	.byte	$E0
	.byte	$00
	.byte	$00
	.byte	$D0
	.byte	$B6
	.byte	$B6
	.byte	$B6
	.byte	$B6
	.byte	$B6
	.byte	$B6
	.byte	$B6
	.byte	$B6
	.byte	$B6
	.byte	$B6
	.byte	$B6
	.byte	$B6
	.byte	$B6
	.byte	$B6
	.byte	$B6
	.byte	$B6
	.byte	$B6
	.byte	$B6
	.byte	$B6
	.byte	$B6
	.byte	$B6
	.byte	$B6
	.byte	$B6
	.byte	$B6
	.byte	$B6
	.byte	$B6
	.byte	$B6
	.byte	$B6
	.byte	$F0
	.byte	$00
	.byte	$00
	.byte	$E0
	.byte	$B6
	.byte	$B6
	.byte	$B6
	.byte	$B6
	.byte	$B6
	.byte	$B6
	.byte	$B6
	.byte	$B6
	.byte	$B6
	.byte	$B6
	.byte	$B6
	.byte	$B6
	.byte	$B6
	.byte	$B6
	.byte	$B6
	.byte	$B6
	.byte	$B6
	.byte	$B6
	.byte	$B6
	.byte	$B6
	.byte	$B6
	.byte	$B6
	.byte	$B6
	.byte	$B6
	.byte	$B6
	.byte	$B6
	.byte	$B6
	.byte	$B6
	.byte	$F0
	.byte	$00
	.byte	$00
	.byte	$F0
	.byte	$B6
	.byte	$B6
	.byte	$B6
	.byte	$B6
	.byte	$B6
	.byte	$B6
	.byte	$B6
	.byte	$B6
	.byte	$B6
	.byte	$B6
	.byte	$B6
	.byte	$B6
	.byte	$B6
	.byte	$B6
	.byte	$B6
	.byte	$B6
	.byte	$B6
	.byte	$B6
	.byte	$B6
	.byte	$B6
	.byte	$B6
	.byte	$B6
	.byte	$B6
	.byte	$B6
	.byte	$B6
	.byte	$B6
	.byte	$B6
	.byte	$B6
	.byte	$F0
	.byte	$00
	.byte	$00
	.byte	$F0
	.byte	$B6
	.byte	$B6
	.byte	$B6
	.byte	$B6
	.byte	$B6
	.byte	$B6
	.byte	$B6
	.byte	$B6
	.byte	$B6
	.byte	$B6
	.byte	$B6
	.byte	$B6
	.byte	$B6
	.byte	$B6
	.byte	$B6
	.byte	$B6
	.byte	$B6
	.byte	$B6
	.byte	$B6
	.byte	$B6
	.byte	$B6
	.byte	$B6
	.byte	$B6
	.byte	$B6
	.byte	$B6
	.byte	$B6
	.byte	$B6
	.byte	$B6
	.byte	$D0
	.byte	$00
	.byte	$00
	.byte	$C3
	.byte	$B6
	.byte	$B6
	.byte	$B6
	.byte	$B6
	.byte	$B6
	.byte	$B6
	.byte	$B6
	.byte	$B6
	.byte	$B6
	.byte	$B6
	.byte	$B6
	.byte	$B6
	.byte	$B6
	.byte	$B6
	.byte	$B6
	.byte	$B6
	.byte	$B6
	.byte	$B6
	.byte	$B6
	.byte	$B6
	.byte	$B6
	.byte	$B6
	.byte	$B6
	.byte	$B6
	.byte	$B6
	.byte	$B6
	.byte	$B6
	.byte	$B6
	.byte	$E0
	.byte	$00
	.byte	$00
	.byte	$C3
	.byte	$B6
	.byte	$B6
	.byte	$B6
	.byte	$B6
	.byte	$B6
	.byte	$B6
	.byte	$B6
	.byte	$B6
	.byte	$B6
	.byte	$B6
	.byte	$B6
	.byte	$B6
	.byte	$B6
	.byte	$B6
	.byte	$B6
	.byte	$B6
	.byte	$B6
	.byte	$B6
	.byte	$B6
	.byte	$B6
	.byte	$B6
	.byte	$B6
	.byte	$B6
	.byte	$B6
	.byte	$B6
	.byte	$B6
	.byte	$B6
	.byte	$B6
	.byte	$F0
	.byte	$00
	.byte	$00
	.byte	$F0
	.byte	$B6
	.byte	$B6
	.byte	$B6
	.byte	$B6
	.byte	$B6
	.byte	$B6
	.byte	$B6
	.byte	$B6
	.byte	$B6
	.byte	$B6
	.byte	$B6
	.byte	$B6
	.byte	$B6
	.byte	$B6
	.byte	$B6
	.byte	$B6
	.byte	$B6
	.byte	$B6
	.byte	$B6
	.byte	$B6
	.byte	$B6
	.byte	$B6
	.byte	$B6
	.byte	$B6
	.byte	$B6
	.byte	$B6
	.byte	$B6
	.byte	$B6
	.byte	$F0
	.byte	$00
	.byte	$00
	.byte	$F0
	.byte	$B6
	.byte	$B6
	.byte	$B6
	.byte	$B6
	.byte	$B6
	.byte	$B6
	.byte	$B6
	.byte	$B6
	.byte	$B6
	.byte	$B6
	.byte	$B6
	.byte	$B6
	.byte	$B6
	.byte	$B6
	.byte	$B6
	.byte	$B6
	.byte	$B6
	.byte	$B6
	.byte	$B6
	.byte	$B6
	.byte	$B6
	.byte	$B6
	.byte	$B6
	.byte	$B6
	.byte	$B6
	.byte	$B6
	.byte	$B6
	.byte	$B6
	.byte	$C3
	.byte	$00
	.byte	$00
	.byte	$D0
	.byte	$B6
	.byte	$B6
	.byte	$B6
	.byte	$B6
	.byte	$B6
	.byte	$B6
	.byte	$B6
	.byte	$B6
	.byte	$B6
	.byte	$B6
	.byte	$B6
	.byte	$B6
	.byte	$B6
	.byte	$B6
	.byte	$B6
	.byte	$B6
	.byte	$B6
	.byte	$B6
	.byte	$B6
	.byte	$B6
	.byte	$B6
	.byte	$B6
	.byte	$B6
	.byte	$B6
	.byte	$B6
	.byte	$B6
	.byte	$B6
	.byte	$B6
	.byte	$F0
	.byte	$00
	.byte	$00
	.byte	$F0
	.byte	$B6
	.byte	$B6
	.byte	$B6
	.byte	$B6
	.byte	$B6
	.byte	$B6
	.byte	$B6
	.byte	$B6
	.byte	$B6
	.byte	$B6
	.byte	$B6
	.byte	$B6
	.byte	$B6
	.byte	$B6
	.byte	$B6
	.byte	$B6
	.byte	$B6
	.byte	$B6
	.byte	$B6
	.byte	$B6
	.byte	$B6
	.byte	$B6
	.byte	$B6
	.byte	$B6
	.byte	$B6
	.byte	$B6
	.byte	$B6
	.byte	$B6
	.byte	$C3
	.byte	$00
	.byte	$00
	.byte	$F0
	.byte	$B6
	.byte	$B6
	.byte	$B6
	.byte	$B6
	.byte	$B6
	.byte	$B6
	.byte	$B6
	.byte	$B6
	.byte	$B6
	.byte	$B6
	.byte	$B6
	.byte	$B6
	.byte	$B6
	.byte	$B6
	.byte	$B6
	.byte	$B6
	.byte	$B6
	.byte	$B6
	.byte	$B6
	.byte	$B6
	.byte	$B4
	.byte	$B6
	.byte	$B6
	.byte	$B6
	.byte	$B6
	.byte	$B6
	.byte	$B6
	.byte	$B6
	.byte	$F0
	.byte	$00
	.byte	$00
	.byte	$D3
	.byte	$A0
	.byte	$A1
	.byte	$C2
	.byte	$C1
	.byte	$F2
	.byte	$C1
	.byte	$C1
	.byte	$E1
	.byte	$E2
	.byte	$E1
	.byte	$E2
	.byte	$C1
	.byte	$C1
	.byte	$C1
	.byte	$C1
	.byte	$C1
	.byte	$C1
	.byte	$C1
	.byte	$C1
	.byte	$C1
	.byte	$D5
	.byte	$C1
	.byte	$A0
	.byte	$A1
	.byte	$C1
	.byte	$E1
	.byte	$E2
	.byte	$C1
	.byte	$D4
	.byte	$00
	.byte	$00
	.byte	$00
	.byte	$B0
	.byte	$B1
	.byte	$00
	.byte	$00
	.byte	$00
	.byte	$00
	.byte	$00
	.byte	$00
	.byte	$00
	.byte	$00
	.byte	$00
	.byte	$00
	.byte	$00
	.byte	$00
	.byte	$00
	.byte	$00
	.byte	$00
	.byte	$00
	.byte	$00
	.byte	$00
	.byte	$00
	.byte	$00
	.byte	$B0
	.byte	$B1
	.byte	$00
	.byte	$00
	.byte	$00
	.byte	$00
	.byte	$00
	.byte	$00
	.byte	$3A
	.byte	$0A
	.byte	$8A
	.byte	$AA
	.byte	$AA
	.byte	$29
	.byte	$0B
	.byte	$8A
	.byte	$13
	.byte	$00
	.byte	$00
	.byte	$00
	.byte	$00
	.byte	$00
	.byte	$00
	.byte	$88
	.byte	$22
	.byte	$00
	.byte	$00
	.byte	$00
	.byte	$00
	.byte	$00
	.byte	$00
	.byte	$8C
	.byte	$22
	.byte	$00
	.byte	$00
	.byte	$00
	.byte	$00
	.byte	$00
	.byte	$00
	.byte	$88
	.byte	$22
	.byte	$00
	.byte	$00
	.byte	$00
	.byte	$00
	.byte	$00
	.byte	$00
	.byte	$88
	.byte	$22
	.byte	$00
	.byte	$00
	.byte	$00
	.byte	$00
	.byte	$00
	.byte	$00
	.byte	$88
	.byte	$22
	.byte	$00
	.byte	$00
	.byte	$00
	.byte	$00
	.byte	$00
	.byte	$00
	.byte	$C8
	.byte	$0A
	.byte	$09
	.byte	$0A
	.byte	$0A
	.byte	$0A
	.byte	$06
	.byte	$0A
	.byte	$0A
_title:
	.byte	$BE
	.byte	$BF
	.byte	$8C
	.byte	$B6
	.byte	$B6
	.byte	$B6
	.byte	$A7
	.byte	$B6
	.byte	$B6
	.byte	$B6
	.byte	$B6
	.byte	$B6
	.byte	$B6
	.byte	$B6
	.byte	$B6
	.byte	$B6
	.byte	$BA
	.byte	$B6
	.byte	$B6
	.byte	$B6
	.byte	$B6
	.byte	$B6
	.byte	$B6
	.byte	$B6
	.byte	$B6
	.byte	$B6
	.byte	$B6
	.byte	$A9
	.byte	$A7
	.byte	$BE
	.byte	$CD
	.byte	$BF
	.byte	$CE
	.byte	$CF
	.byte	$B6
	.byte	$B6
	.byte	$B6
	.byte	$B6
	.byte	$B6
	.byte	$BA
	.byte	$B6
	.byte	$B6
	.byte	$B6
	.byte	$B8
	.byte	$B6
	.byte	$B6
	.byte	$B6
	.byte	$B6
	.byte	$B6
	.byte	$B6
	.byte	$B6
	.byte	$B8
	.byte	$B6
	.byte	$B6
	.byte	$B6
	.byte	$B6
	.byte	$B6
	.byte	$B8
	.byte	$B6
	.byte	$B6
	.byte	$B6
	.byte	$DE
	.byte	$BB
	.byte	$CF
	.byte	$DE
	.byte	$DF
	.byte	$B6
	.byte	$B6
	.byte	$B6
	.byte	$B6
	.byte	$B6
	.byte	$B6
	.byte	$B6
	.byte	$B6
	.byte	$BA
	.byte	$B6
	.byte	$B6
	.byte	$B6
	.byte	$B6
	.byte	$B6
	.byte	$B6
	.byte	$B6
	.byte	$B6
	.byte	$B6
	.byte	$B6
	.byte	$B6
	.byte	$B6
	.byte	$B6
	.byte	$B6
	.byte	$B6
	.byte	$B6
	.byte	$B6
	.byte	$B6
	.byte	$B6
	.byte	$DE
	.byte	$DF
	.byte	$BE
	.byte	$D7
	.byte	$B6
	.byte	$B6
	.byte	$B6
	.byte	$8D
	.byte	$B6
	.byte	$B6
	.byte	$9C
	.byte	$B6
	.byte	$DA
	.byte	$BF
	.byte	$BE
	.byte	$D7
	.byte	$B6
	.byte	$BE
	.byte	$D7
	.byte	$B6
	.byte	$9C
	.byte	$B6
	.byte	$A7
	.byte	$9C
	.byte	$A7
	.byte	$B6
	.byte	$BE
	.byte	$E7
	.byte	$BF
	.byte	$B6
	.byte	$B6
	.byte	$B6
	.byte	$B6
	.byte	$99
	.byte	$DE
	.byte	$D8
	.byte	$BA
	.byte	$B6
	.byte	$B6
	.byte	$A7
	.byte	$B6
	.byte	$B6
	.byte	$8D
	.byte	$B6
	.byte	$DE
	.byte	$D8
	.byte	$D9
	.byte	$DF
	.byte	$B6
	.byte	$DE
	.byte	$DB
	.byte	$D7
	.byte	$8D
	.byte	$B6
	.byte	$A7
	.byte	$B6
	.byte	$B6
	.byte	$B6
	.byte	$D9
	.byte	$DD
	.byte	$D8
	.byte	$B6
	.byte	$BA
	.byte	$B6
	.byte	$B6
	.byte	$B6
	.byte	$8F
	.byte	$B6
	.byte	$B6
	.byte	$B6
	.byte	$B6
	.byte	$A7
	.byte	$F8
	.byte	$F9
	.byte	$A7
	.byte	$B6
	.byte	$9C
	.byte	$B6
	.byte	$B6
	.byte	$8F
	.byte	$B6
	.byte	$8D
	.byte	$D9
	.byte	$DB
	.byte	$BF
	.byte	$B6
	.byte	$A7
	.byte	$9C
	.byte	$A7
	.byte	$B6
	.byte	$B6
	.byte	$EB
	.byte	$B6
	.byte	$B6
	.byte	$B6
	.byte	$B6
	.byte	$B6
	.byte	$B6
	.byte	$B6
	.byte	$B6
	.byte	$BA
	.byte	$B6
	.byte	$B6
	.byte	$9E
	.byte	$B6
	.byte	$B6
	.byte	$9D
	.byte	$B6
	.byte	$BE
	.byte	$D7
	.byte	$DA
	.byte	$BF
	.byte	$B6
	.byte	$A7
	.byte	$B6
	.byte	$D9
	.byte	$DF
	.byte	$B6
	.byte	$A7
	.byte	$B6
	.byte	$B6
	.byte	$B6
	.byte	$B6
	.byte	$FB
	.byte	$B6
	.byte	$B6
	.byte	$B6
	.byte	$B6
	.byte	$B8
	.byte	$B6
	.byte	$B6
	.byte	$B6
	.byte	$B6
	.byte	$B6
	.byte	$B6
	.byte	$A7
	.byte	$B6
	.byte	$B6
	.byte	$A7
	.byte	$B4
	.byte	$D9
	.byte	$DF
	.byte	$DE
	.byte	$D8
	.byte	$B6
	.byte	$8F
	.byte	$B6
	.byte	$B6
	.byte	$8E
	.byte	$B6
	.byte	$A7
	.byte	$A7
	.byte	$9F
	.byte	$B6
	.byte	$B6
	.byte	$8F
	.byte	$B6
	.byte	$B6
	.byte	$B6
	.byte	$B6
	.byte	$B6
	.byte	$B6
	.byte	$B6
	.byte	$AB
	.byte	$B6
	.byte	$B6
	.byte	$D2
	.byte	$E1
	.byte	$C1
	.byte	$C1
	.byte	$C1
	.byte	$D5
	.byte	$C1
	.byte	$E2
	.byte	$C1
	.byte	$E2
	.byte	$C1
	.byte	$C1
	.byte	$C1
	.byte	$E2
	.byte	$C1
	.byte	$E2
	.byte	$C1
	.byte	$C1
	.byte	$E1
	.byte	$C1
	.byte	$C1
	.byte	$E1
	.byte	$E2
	.byte	$D1
	.byte	$B6
	.byte	$B6
	.byte	$BA
	.byte	$B6
	.byte	$B6
	.byte	$B6
	.byte	$B6
	.byte	$B6
	.byte	$A4
	.byte	$A4
	.byte	$A4
	.byte	$A4
	.byte	$A4
	.byte	$A4
	.byte	$A4
	.byte	$A4
	.byte	$A4
	.byte	$A4
	.byte	$A4
	.byte	$A4
	.byte	$A4
	.byte	$A4
	.byte	$A4
	.byte	$A4
	.byte	$A4
	.byte	$A4
	.byte	$A4
	.byte	$A4
	.byte	$A4
	.byte	$A4
	.byte	$A4
	.byte	$A4
	.byte	$B6
	.byte	$B6
	.byte	$B6
	.byte	$B6
	.byte	$B6
	.byte	$B6
	.byte	$B6
	.byte	$B6
	.byte	$B9
	.byte	$B8
	.byte	$B6
	.byte	$B6
	.byte	$B9
	.byte	$B6
	.byte	$B9
	.byte	$B6
	.byte	$B6
	.byte	$B6
	.byte	$B6
	.byte	$B6
	.byte	$B6
	.byte	$B6
	.byte	$B6
	.byte	$B6
	.byte	$B6
	.byte	$B6
	.byte	$B6
	.byte	$B6
	.byte	$B6
	.byte	$B6
	.byte	$B6
	.byte	$B6
	.byte	$B7
	.byte	$B6
	.byte	$B6
	.byte	$B6
	.byte	$B6
	.byte	$B6
	.byte	$B6
	.byte	$B6
	.byte	$B6
	.byte	$B6
	.byte	$B6
	.byte	$B6
	.byte	$B6
	.byte	$B6
	.byte	$B6
	.byte	$B6
	.byte	$B6
	.byte	$B6
	.byte	$B6
	.byte	$B9
	.byte	$B6
	.byte	$B6
	.byte	$B6
	.byte	$B6
	.byte	$B6
	.byte	$B6
	.byte	$B6
	.byte	$B6
	.byte	$B6
	.byte	$B6
	.byte	$B6
	.byte	$B6
	.byte	$B6
	.byte	$B6
	.byte	$B6
	.byte	$B6
	.byte	$B6
	.byte	$B6
	.byte	$A7
	.byte	$B6
	.byte	$B6
	.byte	$B6
	.byte	$A7
	.byte	$B6
	.byte	$A7
	.byte	$F8
	.byte	$F9
	.byte	$A7
	.byte	$B6
	.byte	$A7
	.byte	$A7
	.byte	$A7
	.byte	$AB
	.byte	$A7
	.byte	$B6
	.byte	$DA
	.byte	$BF
	.byte	$A7
	.byte	$BE
	.byte	$D7
	.byte	$B6
	.byte	$A7
	.byte	$A7
	.byte	$A7
	.byte	$A7
	.byte	$A7
	.byte	$B6
	.byte	$B6
	.byte	$B6
	.byte	$B6
	.byte	$EB
	.byte	$B6
	.byte	$B7
	.byte	$B6
	.byte	$EB
	.byte	$B6
	.byte	$A7
	.byte	$B6
	.byte	$B6
	.byte	$B6
	.byte	$B6
	.byte	$B6
	.byte	$B6
	.byte	$EB
	.byte	$B6
	.byte	$B6
	.byte	$B6
	.byte	$DE
	.byte	$D8
	.byte	$B6
	.byte	$D9
	.byte	$DF
	.byte	$B6
	.byte	$B6
	.byte	$B6
	.byte	$A7
	.byte	$B6
	.byte	$B6
	.byte	$B6
	.byte	$B6
	.byte	$B6
	.byte	$B6
	.byte	$FB
	.byte	$B6
	.byte	$B6
	.byte	$B6
	.byte	$FB
	.byte	$B6
	.byte	$A7
	.byte	$B6
	.byte	$B6
	.byte	$B6
	.byte	$B6
	.byte	$B6
	.byte	$B6
	.byte	$FB
	.byte	$B6
	.byte	$B6
	.byte	$B6
	.byte	$BE
	.byte	$D7
	.byte	$B6
	.byte	$B6
	.byte	$B6
	.byte	$B6
	.byte	$B6
	.byte	$B6
	.byte	$EB
	.byte	$B6
	.byte	$B6
	.byte	$B6
	.byte	$B6
	.byte	$B6
	.byte	$B6
	.byte	$A8
	.byte	$A7
	.byte	$A7
	.byte	$A7
	.byte	$A9
	.byte	$B6
	.byte	$A7
	.byte	$A7
	.byte	$A7
	.byte	$B6
	.byte	$B9
	.byte	$B6
	.byte	$B6
	.byte	$A7
	.byte	$B6
	.byte	$B6
	.byte	$B6
	.byte	$D9
	.byte	$DF
	.byte	$A9
	.byte	$BE
	.byte	$D7
	.byte	$B6
	.byte	$B6
	.byte	$B6
	.byte	$FB
	.byte	$B6
	.byte	$B6
	.byte	$B6
	.byte	$B6
	.byte	$B6
	.byte	$B6
	.byte	$A7
	.byte	$B6
	.byte	$B6
	.byte	$B6
	.byte	$A7
	.byte	$B6
	.byte	$A7
	.byte	$B6
	.byte	$B6
	.byte	$B6
	.byte	$B6
	.byte	$B6
	.byte	$B6
	.byte	$99
	.byte	$B6
	.byte	$B6
	.byte	$B6
	.byte	$B6
	.byte	$B6
	.byte	$B6
	.byte	$D9
	.byte	$DF
	.byte	$B7
	.byte	$B6
	.byte	$B6
	.byte	$A7
	.byte	$B6
	.byte	$B7
	.byte	$B6
	.byte	$B6
	.byte	$B6
	.byte	$B6
	.byte	$EB
	.byte	$B6
	.byte	$B6
	.byte	$B6
	.byte	$EB
	.byte	$B6
	.byte	$EB
	.byte	$B6
	.byte	$B9
	.byte	$B6
	.byte	$B6
	.byte	$B6
	.byte	$B6
	.byte	$EB
	.byte	$B6
	.byte	$B6
	.byte	$B6
	.byte	$B6
	.byte	$B6
	.byte	$B6
	.byte	$B6
	.byte	$A7
	.byte	$B6
	.byte	$B6
	.byte	$B6
	.byte	$EB
	.byte	$B6
	.byte	$B6
	.byte	$B6
	.byte	$B6
	.byte	$B6
	.byte	$B6
	.byte	$FB
	.byte	$B6
	.byte	$B8
	.byte	$B6
	.byte	$FB
	.byte	$B6
	.byte	$FB
	.byte	$B6
	.byte	$B6
	.byte	$B6
	.byte	$B6
	.byte	$B6
	.byte	$B6
	.byte	$FB
	.byte	$B6
	.byte	$B6
	.byte	$B6
	.byte	$BE
	.byte	$D7
	.byte	$B6
	.byte	$DA
	.byte	$BF
	.byte	$B6
	.byte	$B6
	.byte	$B6
	.byte	$FB
	.byte	$B6
	.byte	$B6
	.byte	$B6
	.byte	$B6
	.byte	$B8
	.byte	$B6
	.byte	$A7
	.byte	$B6
	.byte	$B6
	.byte	$B6
	.byte	$A7
	.byte	$B6
	.byte	$A7
	.byte	$F8
	.byte	$F9
	.byte	$A7
	.byte	$B6
	.byte	$A7
	.byte	$A7
	.byte	$A7
	.byte	$A7
	.byte	$A7
	.byte	$B6
	.byte	$D9
	.byte	$DF
	.byte	$A7
	.byte	$DE
	.byte	$D8
	.byte	$B6
	.byte	$B4
	.byte	$B6
	.byte	$A7
	.byte	$B6
	.byte	$B6
	.byte	$B6
	.byte	$B6
	.byte	$A4
	.byte	$D2
	.byte	$E2
	.byte	$C1
	.byte	$C1
	.byte	$C1
	.byte	$E1
	.byte	$E2
	.byte	$C1
	.byte	$C1
	.byte	$E1
	.byte	$C1
	.byte	$C1
	.byte	$C1
	.byte	$C1
	.byte	$C1
	.byte	$E2
	.byte	$C1
	.byte	$C1
	.byte	$C1
	.byte	$E2
	.byte	$C1
	.byte	$C1
	.byte	$C1
	.byte	$C1
	.byte	$D5
	.byte	$C1
	.byte	$C1
	.byte	$C1
	.byte	$E1
	.byte	$D1
	.byte	$A4
	.byte	$A4
	.byte	$A4
	.byte	$A4
	.byte	$A4
	.byte	$A4
	.byte	$A4
	.byte	$A4
	.byte	$A4
	.byte	$A4
	.byte	$A4
	.byte	$A4
	.byte	$A4
	.byte	$A4
	.byte	$A4
	.byte	$A4
	.byte	$A4
	.byte	$A4
	.byte	$A4
	.byte	$A4
	.byte	$A4
	.byte	$A4
	.byte	$A4
	.byte	$A4
	.byte	$A4
	.byte	$A4
	.byte	$A4
	.byte	$A4
	.byte	$A4
	.byte	$A4
	.byte	$A4
	.byte	$A4
	.byte	$A4
	.byte	$B6
	.byte	$B6
	.byte	$B6
	.byte	$B6
	.byte	$B8
	.byte	$B8
	.byte	$B6
	.byte	$B8
	.byte	$B6
	.byte	$B6
	.byte	$B6
	.byte	$B6
	.byte	$B6
	.byte	$B6
	.byte	$B6
	.byte	$B6
	.byte	$B6
	.byte	$B6
	.byte	$B6
	.byte	$B6
	.byte	$B6
	.byte	$B6
	.byte	$B6
	.byte	$B6
	.byte	$B6
	.byte	$B6
	.byte	$AB
	.byte	$B6
	.byte	$B6
	.byte	$B6
	.byte	$B6
	.byte	$A7
	.byte	$B6
	.byte	$99
	.byte	$B6
	.byte	$B6
	.byte	$B6
	.byte	$B6
	.byte	$B6
	.byte	$B8
	.byte	$B6
	.byte	$B5
	.byte	$50
	.byte	$52
	.byte	$45
	.byte	$53
	.byte	$53
	.byte	$B6
	.byte	$B6
	.byte	$53
	.byte	$54
	.byte	$41
	.byte	$52
	.byte	$54
	.byte	$B5
	.byte	$B6
	.byte	$B6
	.byte	$B6
	.byte	$B6
	.byte	$B6
	.byte	$B6
	.byte	$B6
	.byte	$B6
	.byte	$B6
	.byte	$B6
	.byte	$B6
	.byte	$B6
	.byte	$A9
	.byte	$BE
	.byte	$D7
	.byte	$B6
	.byte	$B6
	.byte	$B6
	.byte	$B6
	.byte	$B6
	.byte	$B6
	.byte	$B6
	.byte	$B6
	.byte	$B6
	.byte	$B6
	.byte	$B6
	.byte	$B6
	.byte	$B6
	.byte	$B6
	.byte	$B6
	.byte	$B6
	.byte	$B6
	.byte	$B6
	.byte	$B6
	.byte	$B6
	.byte	$B6
	.byte	$B6
	.byte	$BE
	.byte	$BF
	.byte	$B6
	.byte	$B6
	.byte	$B6
	.byte	$B6
	.byte	$B6
	.byte	$B6
	.byte	$DE
	.byte	$DF
	.byte	$B6
	.byte	$3B
	.byte	$32
	.byte	$30
	.byte	$32
	.byte	$35
	.byte	$B6
	.byte	$42
	.byte	$52
	.byte	$49
	.byte	$41
	.byte	$4E
	.byte	$B6
	.byte	$3C
	.byte	$B6
	.byte	$41
	.byte	$4C
	.byte	$41
	.byte	$4E
	.byte	$B6
	.byte	$B6
	.byte	$B6
	.byte	$CE
	.byte	$CF
	.byte	$B6
	.byte	$B6
	.byte	$B6
	.byte	$B6
	.byte	$B6
	.byte	$B6
	.byte	$B6
	.byte	$B6
	.byte	$B6
	.byte	$B6
	.byte	$B6
	.byte	$B6
	.byte	$B6
	.byte	$B6
	.byte	$B6
	.byte	$B6
	.byte	$B6
	.byte	$B6
	.byte	$B7
	.byte	$B6
	.byte	$B6
	.byte	$B6
	.byte	$B6
	.byte	$B6
	.byte	$B6
	.byte	$B6
	.byte	$B6
	.byte	$B6
	.byte	$B8
	.byte	$B6
	.byte	$DE
	.byte	$DF
	.byte	$B6
	.byte	$B6
	.byte	$A7
	.byte	$B6
	.byte	$B6
	.byte	$B8
	.byte	$B6
	.byte	$B6
	.byte	$B6
	.byte	$B8
	.byte	$B6
	.byte	$B6
	.byte	$B6
	.byte	$B6
	.byte	$B6
	.byte	$B6
	.byte	$B6
	.byte	$B6
	.byte	$B6
	.byte	$B8
	.byte	$B6
	.byte	$B6
	.byte	$B6
	.byte	$B6
	.byte	$B6
	.byte	$B6
	.byte	$B6
	.byte	$B6
	.byte	$B6
	.byte	$B6
	.byte	$B6
	.byte	$B6
	.byte	$B6
	.byte	$B9
	.byte	$A7
	.byte	$BE
	.byte	$BF
	.byte	$B6
	.byte	$B6
	.byte	$B6
	.byte	$B8
	.byte	$B6
	.byte	$B6
	.byte	$B6
	.byte	$B6
	.byte	$B6
	.byte	$BE
	.byte	$BF
	.byte	$B6
	.byte	$B6
	.byte	$B6
	.byte	$B6
	.byte	$B8
	.byte	$B6
	.byte	$B6
	.byte	$A7
	.byte	$B6
	.byte	$B6
	.byte	$B9
	.byte	$B8
	.byte	$B6
	.byte	$B6
	.byte	$B6
	.byte	$B6
	.byte	$B9
	.byte	$BF
	.byte	$A7
	.byte	$CE
	.byte	$CF
	.byte	$A7
	.byte	$B6
	.byte	$B6
	.byte	$B6
	.byte	$B6
	.byte	$B6
	.byte	$B6
	.byte	$B6
	.byte	$AB
	.byte	$CE
	.byte	$CF
	.byte	$A7
	.byte	$B6
	.byte	$B6
	.byte	$B6
	.byte	$B6
	.byte	$B6
	.byte	$B6
	.byte	$B6
	.byte	$B6
	.byte	$B6
	.byte	$B6
	.byte	$B6
	.byte	$A7
	.byte	$B6
	.byte	$B6
	.byte	$A7
	.byte	$CE
	.byte	$CF
	.byte	$00
	.byte	$00
	.byte	$00
	.byte	$00
	.byte	$00
	.byte	$00
	.byte	$00
	.byte	$00
	.byte	$00
	.byte	$00
	.byte	$00
	.byte	$00
	.byte	$00
	.byte	$00
	.byte	$00
	.byte	$00
	.byte	$00
	.byte	$05
	.byte	$05
	.byte	$05
	.byte	$05
	.byte	$05
	.byte	$05
	.byte	$00
	.byte	$00
	.byte	$00
	.byte	$00
	.byte	$00
	.byte	$00
	.byte	$00
	.byte	$00
	.byte	$00
	.byte	$00
	.byte	$00
	.byte	$00
	.byte	$00
	.byte	$00
	.byte	$00
	.byte	$00
	.byte	$00
	.byte	$05
	.byte	$05
	.byte	$05
	.byte	$05
	.byte	$05
	.byte	$05
	.byte	$05
	.byte	$05
	.byte	$00
	.byte	$00
	.byte	$00
	.byte	$00
	.byte	$00
	.byte	$00
	.byte	$00
	.byte	$00
	.byte	$00
	.byte	$00
	.byte	$00
	.byte	$00
	.byte	$00
	.byte	$00
	.byte	$00
	.byte	$00
_COMBS_FLOWER_X:
	.byte	$10
	.byte	$E2
	.byte	$10
	.byte	$E2
_COMBS_FLOWER_Y:
	.byte	$20
	.byte	$20
	.byte	$D0
	.byte	$D0
_VINES_FLOWER_X:
	.byte	$10
	.byte	$E0
	.byte	$10
	.byte	$E0
_VINES_FLOWER_Y:
	.byte	$20
	.byte	$20
	.byte	$D0
	.byte	$D0
_OUTDOORS_FLOWER_X:
	.byte	$20
	.byte	$D0
	.byte	$10
	.byte	$E0
_OUTDOORS_FLOWER_Y:
	.byte	$70
	.byte	$70
	.byte	$D0
	.byte	$D0
_palette_combsnplants_bg:
	.byte	$0F
	.byte	$30
	.byte	$27
	.byte	$07
	.byte	$0F
	.byte	$35
	.byte	$26
	.byte	$07
	.byte	$0F
	.byte	$0F
	.byte	$30
	.byte	$30
	.byte	$0F
	.byte	$21
	.byte	$16
	.byte	$30
_palette_outdoors_bg:
	.byte	$0F
	.byte	$30
	.byte	$17
	.byte	$28
	.byte	$0F
	.byte	$35
	.byte	$26
	.byte	$07
	.byte	$0F
	.byte	$30
	.byte	$2A
	.byte	$1B
	.byte	$0F
	.byte	$30
	.byte	$21
	.byte	$11
_palette_vineswoflowers_bg:
	.byte	$0F
	.byte	$30
	.byte	$27
	.byte	$07
	.byte	$0F
	.byte	$30
	.byte	$2A
	.byte	$1B
	.byte	$0F
	.byte	$1A
	.byte	$30
	.byte	$38
	.byte	$0F
	.byte	$30
	.byte	$15
	.byte	$00
_palette_sp:
	.byte	$0F
	.byte	$16
	.byte	$30
	.byte	$38
	.byte	$0F
	.byte	$28
	.byte	$07
	.byte	$30
	.byte	$0F
	.byte	$2C
	.byte	$30
	.byte	$38
	.byte	$0F
	.byte	$10
	.byte	$38
	.byte	$30
_palette_title_bg:
	.byte	$0F
	.byte	$30
	.byte	$27
	.byte	$07
	.byte	$0F
	.byte	$07
	.byte	$2A
	.byte	$1B
	.byte	$0F
	.byte	$30
	.byte	$2A
	.byte	$1B
	.byte	$0F
	.byte	$30
	.byte	$21
	.byte	$11
_palette_options_bg:
	.byte	$0F
	.byte	$30
	.byte	$27
	.byte	$07
	.byte	$0F
	.byte	$24
	.byte	$2A
	.byte	$1B
	.byte	$0F
	.byte	$30
	.byte	$2A
	.byte	$1B
	.byte	$0F
	.byte	$27
	.byte	$2A
	.byte	$1B
_metatiles1:
	.byte	$02
	.byte	$02
	.byte	$02
	.byte	$02
	.byte	$03
	.byte	$04
	.byte	$04
	.byte	$04
	.byte	$04
	.byte	$01
	.byte	$09
	.byte	$09
	.byte	$09
	.byte	$09
	.byte	$02
	.byte	$05
	.byte	$06
	.byte	$08
	.byte	$07
	.byte	$01
	.byte	$05
	.byte	$06
	.byte	$08
	.byte	$07
	.byte	$00
_pellet_tiles:
	.byte	$C6
	.byte	$C7
	.byte	$C8
	.byte	$C9
	.byte	$CA
	.byte	$A5
_blank_tiles:
	.byte	$B6
	.byte	$B7
	.byte	$B8
	.byte	$B9
	.byte	$BA
	.byte	$00
	.byte	$69
	.byte	$6A
	.byte	$6B
L2672:
	.byte	$54,$45,$41,$4D,$20,$31,$20,$57,$49,$4E,$53,$20,$54,$48,$45,$20
	.byte	$4D,$41,$54,$43,$48,$21,$00
L267F:
	.byte	$54,$45,$41,$4D,$20,$32,$20,$57,$49,$4E,$53,$20,$54,$48,$45,$20
	.byte	$4D,$41,$54,$43,$48,$21,$00
L2596:
	.byte	$20,$20,$20,$20,$20,$20,$20,$20,$20,$20,$20,$20,$20,$20,$20,$20
	.byte	$20,$20,$20,$20,$20,$20,$00
L265B:
	.byte	$43,$4F,$4C,$4C,$45,$43,$54,$45,$44,$20,$4D,$4F,$52,$45,$20,$48
	.byte	$4F,$4E,$45,$59,$00
L2631:
	.byte	$45,$4E,$45,$4D,$59,$20,$41,$54,$45,$20,$54,$48,$45,$49,$52,$20
	.byte	$44,$55,$43,$4B,$00
L25E3	:=	L265B+0
L2623:
	.byte	$45,$4E,$45,$4D,$59,$20,$41,$54,$45,$20,$54,$48,$45,$49,$52,$20
	.byte	$42,$45,$45,$00
L25BC:
	.byte	$46,$52,$49,$45,$4E,$44,$4C,$59,$20,$44,$55,$43,$4B,$20,$45,$41
	.byte	$54,$45,$4E,$00
L25A2:
	.byte	$43,$4F,$4C,$4C,$45,$43,$54,$45,$44,$20,$31,$30,$30,$20,$48,$4F
	.byte	$4E,$45,$59,$00
L2615:
	.byte	$31,$30,$30,$20,$48,$4F,$4E,$45,$59,$20,$43,$4F,$4C,$4C,$45,$43
	.byte	$54,$45,$44,$00
L25AF:
	.byte	$46,$52,$49,$45,$4E,$44,$4C,$59,$20,$42,$45,$45,$20,$45,$41,$54
	.byte	$45,$4E,$00
L25D6:
	.byte	$42,$49,$47,$42,$45,$45,$20,$41,$54,$45,$20,$44,$55,$43,$4B,$21
	.byte	$00
L264D:
	.byte	$45,$4E,$45,$4D,$59,$20,$44,$55,$43,$4B,$20,$45,$41,$54,$45,$4E
	.byte	$00
L25C9:
	.byte	$45,$4E,$45,$4D,$59,$20,$42,$45,$45,$20,$45,$41,$54,$45,$4E,$00
L263F	:=	L25C9+0
L26E2:
	.byte	$50,$52,$45,$53,$53,$20,$53,$54,$41,$52,$54,$00
L25EE:
	.byte	$44,$52,$41,$57,$20,$47,$41,$4D,$45,$21,$00
L26D1:
	.byte	$52,$4F,$55,$4E,$44,$20,$35,$3A,$00
L26BE:
	.byte	$52,$4F,$55,$4E,$44,$20,$34,$3A,$00
L26AB:
	.byte	$52,$4F,$55,$4E,$44,$20,$33,$3A,$00
L24AB:
	.byte	$52,$41,$4E,$44,$4F,$4D,$20,$20,$00
L24B8:
	.byte	$4F,$55,$54,$44,$4F,$4F,$52,$53,$00
L24C5:
	.byte	$43,$4F,$4D,$42,$53,$20,$20,$20,$00
L24D2:
	.byte	$56,$49,$4E,$45,$53,$20,$20,$20,$00
L2689:
	.byte	$52,$4F,$55,$4E,$44,$20,$31,$3A,$00
L269A:
	.byte	$52,$4F,$55,$4E,$44,$20,$32,$3A,$00
L2488:
	.byte	$52,$45,$47,$55,$4C,$41,$52,$00
L2495:
	.byte	$46,$41,$53,$54,$20,$20,$20,$00
L247B:
	.byte	$53,$4C,$4F,$57,$20,$20,$20,$00
L2608:
	.byte	$54,$45,$41,$4D,$20,$32,$00
L24DC:
	.byte	$4D,$55,$53,$49,$43,$3A,$00
L246F:
	.byte	$53,$50,$45,$45,$44,$3A,$00
L25FB:
	.byte	$54,$45,$41,$4D,$20,$31,$00
L24F5:
	.byte	$4C,$41,$4B,$45,$20,$00
L2502	:=	L265B+15
L24E8:
	.byte	$42,$45,$45,$20,$20,$00
L249F:
	.byte	$4D,$41,$50,$3A,$00

.segment	"BSS"

_tick_frequency:
	.res	1,$00
.segment	"ZEROPAGE"
_doublepad:
	.res	2,$00
_generic_pad:
	.res	1,$00
_turbo_p1:
	.res	1,$00
_turbo_p2:
	.res	1,$00
_turbo_p3:
	.res	1,$00
_turbo_p4:
	.res	1,$00
_prev_pad1:
	.res	1,$00
_prev_pad2:
	.res	1,$00
_prev_pad3:
	.res	1,$00
_prev_pad4:
	.res	1,$00
_pad1:
	.res	1,$00
_pad2:
	.res	1,$00
_pad3:
	.res	1,$00
_pad4:
	.res	1,$00
_pad4_ai:
	.res	1,$00
_pad1_new:
	.res	1,$00
_pad2_new:
	.res	1,$00
_pad3_new:
	.res	1,$00
_pad4_new:
	.res	1,$00
_ai_counter:
	.res	1,$00
_player1_ai_ready:
	.res	1,$00
_player2_ai_ready:
	.res	1,$00
_player3_ai_ready:
	.res	1,$00
_player4_ai_ready:
	.res	1,$00
_game_mode:
	.res	1,$00
_winner:
	.res	1,$00
_game_frame_timer:
	.res	1,$00
_game_timer:
	.res	1,$00
_speed_option:
	.res	2,$00
_current_speed:
	.res	2,$00
_force_redraw:
	.res	1,$00
_use_turbo:
	.res	1,$00
_turbo_amount:
	.res	1,$00
_ducks_go_faster_over_time:
	.res	1,$00
_map_positions:
	.res	1,$00
_collision:
	.res	1,$00
_collision_L:
	.res	1,$00
_collision_R:
	.res	1,$00
_collision_U:
	.res	1,$00
_collision_D:
	.res	1,$00
_coordinates:
	.res	1,$00
_temp1:
	.res	1,$00
_temp2:
	.res	1,$00
_temp3:
	.res	1,$00
_temp4:
	.res	1,$00
_temp5:
	.res	2,$00
_temp6:
	.res	2,$00
_tempint:
	.res	2,$00
_eject_L:
	.res	1,$00
_eject_R:
	.res	1,$00
_eject_D:
	.res	1,$00
_eject_U:
	.res	1,$00
_address:
	.res	2,$00
_x:
	.res	1,$00
_y:
	.res	1,$00
_index:
	.res	1,$00
_map:
	.res	1,$00
_scroll_x:
	.res	2,$00
_scroll_y:
	.res	2,$00
_hero_velocity_x:
	.res	2,$00
_hero_velocity_y:
	.res	2,$00
_old_x:
	.res	2,$00
_old_y:
	.res	2,$00
_signed_temp:
	.res	1,$00
_signed_temp2:
	.res	1,$00
_temp:
	.res	1,$00
_temp_x:
	.res	1,$00
_temp_y:
	.res	1,$00
_temp_x2:
	.res	1,$00
_temp_y2:
	.res	1,$00
_largeindex:
	.res	2,$00
_song:
	.res	1,$00
_collision_box_size:
	.res	1,$00
_current_settings_choice:
	.res	1,$00
_settings_map:
	.res	1,$00
_settings_speed:
	.res	1,$00
_settings_song:
	.res	1,$00
_map_ptr:
	.res	2,$00
_bit_index:
	.res	1,$00
_bit_offset:
	.res	1,$00
_frame_counter:
	.res	1,$00
_current_player:
	.res	1,$00
_team1_score:
	.res	1,$00
_team2_score:
	.res	1,$00
_temp_win_reason:
	.res	1,$00
_temp_win_team:
	.res	1,$00
_team1_wins:
	.res	1,$00
_team2_wins:
	.res	1,$00
_team1_win1:
	.res	1,$00
_team1_win2:
	.res	1,$00
_team1_win3:
	.res	1,$00
_team2_win1:
	.res	1,$00
_team2_win2:
	.res	1,$00
_team2_win3:
	.res	1,$00
_round_1_winner:
	.res	1,$00
_round_2_winner:
	.res	1,$00
_round_3_winner:
	.res	1,$00
_round_4_winner:
	.res	1,$00
_round_5_winner:
	.res	1,$00
_round_1:
	.res	1,$00
_round_2:
	.res	1,$00
_round_3:
	.res	1,$00
_round_4:
	.res	1,$00
_round_5:
	.res	1,$00
_temp_round:
	.res	1,$00
_temp_winner:
	.res	1,$00
_current_round:
	.res	1,$00
_win_reason:
	.res	1,$00
_powerup1:
	.res	1,$00
_powerup2:
	.res	1,$00
_powerup3:
	.res	1,$00
_powerup4:
	.res	1,$00
_bee1_bigbee_timer:
	.res	1,$00
_bee3_bigbee_timer:
	.res	1,$00
_sprite_rotation:
	.res	1,$00
_anim_frame_1:
	.res	1,$00
_anim_frame_2:
	.res	1,$00
_anim_frame_3:
	.res	1,$00
_anim_frame_4:
	.res	1,$00
.segment	"BSS"
_consumed_dots:
	.res	128,$00
_start_hold_timer:
	.res	1,$00
_start_held:
	.res	1,$00
_Generic:
	.res	4,$00
_quack2:
	.res	6,$00
_quack4:
	.res	6,$00
_quack2_cooldown:
	.res	1,$00
_quack4_cooldown:
	.res	1,$00
_stun_p1:
	.res	1,$00
_stun_p2:
	.res	1,$00
_stun_p3:
	.res	1,$00
_stun_p4:
	.res	1,$00
_GenericBoxGuy:
	.res	6,$00

; ---------------------------------------------------------------
; void __near__ load_room (void)
; ---------------------------------------------------------------

.segment	"CODE"

.proc	_load_room: near

.segment	"CODE"

;
; ppu_off();
;
	jsr     _ppu_off
;
; vram_adr(NAMETABLE_A);
;
	ldx     #$20
	lda     #$00
	jsr     _vram_adr
;
; for (largeindex = 0; largeindex < 1024; ++largeindex)
;
	lda     #$00
	sta     _largeindex
	sta     _largeindex+1
L1911:	ldx     _largeindex+1
	cpx     #$04
	bcs     L1912
;
; if (game_mode == MODE_TITLE)
;
	lda     _game_mode
	bne     L2782
;
; vram_put(title[largeindex]);
;
	lda     #<(_title)
	sta     ptr1
	lda     #>(_title)
	clc
	adc     _largeindex+1
	sta     ptr1+1
	ldy     _largeindex
;
; else if (game_mode == MODE_OPTIONS)
;
	jmp     L2783
L2782:	lda     _game_mode
	cmp     #$01
	bne     L1920
;
; vram_put(settings[largeindex]);
;
	lda     #<(_settings)
	sta     ptr1
	lda     #>(_settings)
	clc
	adc     _largeindex+1
	sta     ptr1+1
	ldy     _largeindex
;
; else
;
	jmp     L2783
;
; vram_put(map_ptr[largeindex]);
;
L1920:	lda     _map_ptr
	clc
	adc     _largeindex
	sta     ptr1
	lda     _map_ptr+1
	adc     _largeindex+1
	sta     ptr1+1
	ldy     #$00
L2783:	lda     (ptr1),y
	jsr     _vram_put
;
; flush_vram_update2();
;
	jsr     _flush_vram_update2
;
; for (largeindex = 0; largeindex < 1024; ++largeindex)
;
	inc     _largeindex
	bne     L1911
	inc     _largeindex+1
	jmp     L1911
;
; ppu_on_all();
;
L1912:	jmp     _ppu_on_all

.endproc

; ---------------------------------------------------------------
; void __near__ draw_sprites (void)
; ---------------------------------------------------------------

.segment	"CODE"

.proc	_draw_sprites: near

.segment	"CODE"

;
; oam_clear();
;
	jsr     _oam_clear
;
; if (powerup1 == 1)
;
	lda     _powerup1
	cmp     #$01
	bne     L278C
;
; if (map == MAP_COMBS)
;
	lda     _map
	bne     L278A
;
; oam_meta_spr(COMBS_FLOWER_X[0], COMBS_FLOWER_Y[0], gamesprites_powerup_data);
;
	jsr     decsp2
	lda     _COMBS_FLOWER_X
	ldy     #$01
	sta     (sp),y
	lda     _COMBS_FLOWER_Y
;
; else if (map == MAP_VINES)
;
	jmp     L27A8
L278A:	lda     _map
	cmp     #$02
	bne     L278B
;
; oam_meta_spr(VINES_FLOWER_X[0], VINES_FLOWER_Y[0], gamesprites_powerup_data);
;
	jsr     decsp2
	lda     _VINES_FLOWER_X
	ldy     #$01
	sta     (sp),y
	lda     _VINES_FLOWER_Y
;
; else if (map == MAP_OUTDOORS)
;
	jmp     L27A8
L278B:	lda     _map
	cmp     #$01
	bne     L278C
;
; oam_meta_spr(OUTDOORS_FLOWER_X[0], OUTDOORS_FLOWER_Y[0], gamesprites_powerup_data);
;
	jsr     decsp2
	lda     _OUTDOORS_FLOWER_X
	ldy     #$01
	sta     (sp),y
	lda     _OUTDOORS_FLOWER_Y
L27A8:	dey
	sta     (sp),y
	lda     #<(_gamesprites_powerup_data)
	ldx     #>(_gamesprites_powerup_data)
	jsr     _oam_meta_spr
;
; if (powerup2 == 1)
;
L278C:	lda     _powerup2
	cmp     #$01
	bne     L278F
;
; if (map == MAP_COMBS)
;
	lda     _map
	bne     L278D
;
; oam_meta_spr(COMBS_FLOWER_X[1], COMBS_FLOWER_Y[1], gamesprites_powerup_data);
;
	jsr     decsp2
	lda     _COMBS_FLOWER_X+1
	ldy     #$01
	sta     (sp),y
	lda     _COMBS_FLOWER_Y+1
;
; else if (map == MAP_VINES)
;
	jmp     L27A9
L278D:	lda     _map
	cmp     #$02
	bne     L278E
;
; oam_meta_spr(VINES_FLOWER_X[1], VINES_FLOWER_Y[1], gamesprites_powerup_data);
;
	jsr     decsp2
	lda     _VINES_FLOWER_X+1
	ldy     #$01
	sta     (sp),y
	lda     _VINES_FLOWER_Y+1
;
; else if (map == MAP_OUTDOORS)
;
	jmp     L27A9
L278E:	lda     _map
	cmp     #$01
	bne     L278F
;
; oam_meta_spr(OUTDOORS_FLOWER_X[1], OUTDOORS_FLOWER_Y[1], gamesprites_powerup_data);
;
	jsr     decsp2
	lda     _OUTDOORS_FLOWER_X+1
	ldy     #$01
	sta     (sp),y
	lda     _OUTDOORS_FLOWER_Y+1
L27A9:	dey
	sta     (sp),y
	lda     #<(_gamesprites_powerup_data)
	ldx     #>(_gamesprites_powerup_data)
	jsr     _oam_meta_spr
;
; if (powerup3 == 1)
;
L278F:	lda     _powerup3
	cmp     #$01
	bne     L2792
;
; if (map == MAP_COMBS)
;
	lda     _map
	bne     L2790
;
; oam_meta_spr(COMBS_FLOWER_X[2], COMBS_FLOWER_Y[2], gamesprites_powerup_data);
;
	jsr     decsp2
	lda     _COMBS_FLOWER_X+2
	ldy     #$01
	sta     (sp),y
	lda     _COMBS_FLOWER_Y+2
;
; else if (map == MAP_VINES)
;
	jmp     L27AA
L2790:	lda     _map
	cmp     #$02
	bne     L2791
;
; oam_meta_spr(VINES_FLOWER_X[2], VINES_FLOWER_Y[2], gamesprites_powerup_data);
;
	jsr     decsp2
	lda     _VINES_FLOWER_X+2
	ldy     #$01
	sta     (sp),y
	lda     _VINES_FLOWER_Y+2
;
; else if (map == MAP_OUTDOORS)
;
	jmp     L27AA
L2791:	lda     _map
	cmp     #$01
	bne     L2792
;
; oam_meta_spr(OUTDOORS_FLOWER_X[2], OUTDOORS_FLOWER_Y[2], gamesprites_powerup_data);
;
	jsr     decsp2
	lda     _OUTDOORS_FLOWER_X+2
	ldy     #$01
	sta     (sp),y
	lda     _OUTDOORS_FLOWER_Y+2
L27AA:	dey
	sta     (sp),y
	lda     #<(_gamesprites_powerup_data)
	ldx     #>(_gamesprites_powerup_data)
	jsr     _oam_meta_spr
;
; if (powerup4 == 1)
;
L2792:	lda     _powerup4
	cmp     #$01
	bne     L1995
;
; if (map == MAP_COMBS)
;
	lda     _map
	bne     L2793
;
; oam_meta_spr(COMBS_FLOWER_X[3], COMBS_FLOWER_Y[3], gamesprites_powerup_data);
;
	jsr     decsp2
	lda     _COMBS_FLOWER_X+3
	ldy     #$01
	sta     (sp),y
	lda     _COMBS_FLOWER_Y+3
;
; else if (map == MAP_VINES)
;
	jmp     L27AB
L2793:	lda     _map
	cmp     #$02
	bne     L2794
;
; oam_meta_spr(VINES_FLOWER_X[3], VINES_FLOWER_Y[3], gamesprites_powerup_data);
;
	jsr     decsp2
	lda     _VINES_FLOWER_X+3
	ldy     #$01
	sta     (sp),y
	lda     _VINES_FLOWER_Y+3
;
; else if (map == MAP_OUTDOORS)
;
	jmp     L27AB
L2794:	lda     _map
	cmp     #$01
	bne     L1995
;
; oam_meta_spr(OUTDOORS_FLOWER_X[3], OUTDOORS_FLOWER_Y[3], gamesprites_powerup_data);
;
	jsr     decsp2
	lda     _OUTDOORS_FLOWER_X+3
	ldy     #$01
	sta     (sp),y
	lda     _OUTDOORS_FLOWER_Y+3
L27AB:	dey
	sta     (sp),y
	lda     #<(_gamesprites_powerup_data)
	ldx     #>(_gamesprites_powerup_data)
	jsr     _oam_meta_spr
;
; if (quack2.moving)
;
L1995:	lda     _quack2+5
	jeq     L19B8
;
; temp_x = quack2.x >> 8;
;
	lda     _quack2+1
	sta     _temp_x
;
; temp_y = quack2.y >> 8;
;
	lda     _quack2+3
	sta     _temp_y
;
; if (quack2.direction == DIR_LEFT)
;
	lda     _quack2+4
	cmp     #$02
	bne     L2795
;
; oam_meta_spr(temp_x, temp_y, gamesprites_quackleft_data);
;
	jsr     decsp2
	lda     _temp_x
	ldy     #$01
	sta     (sp),y
	lda     _temp_y
	dey
	sta     (sp),y
	lda     #<(_gamesprites_quackleft_data)
	ldx     #>(_gamesprites_quackleft_data)
;
; else if (quack2.direction == DIR_RIGHT)
;
	jmp     L2788
L2795:	lda     _quack2+4
	cmp     #$03
	bne     L2796
;
; oam_meta_spr(temp_x, temp_y, gamesprites_quackright_data);
;
	jsr     decsp2
	lda     _temp_x
	ldy     #$01
	sta     (sp),y
	lda     _temp_y
	dey
	sta     (sp),y
	lda     #<(_gamesprites_quackright_data)
	ldx     #>(_gamesprites_quackright_data)
;
; else if (quack2.direction == DIR_DOWN)
;
	jmp     L2788
L2796:	lda     _quack2+4
	cmp     #$01
	bne     L2797
;
; oam_meta_spr(temp_x, temp_y, gamesprites_quackdown_data);
;
	jsr     decsp2
	lda     _temp_x
	ldy     #$01
	sta     (sp),y
	lda     _temp_y
	dey
	sta     (sp),y
	lda     #<(_gamesprites_quackdown_data)
	ldx     #>(_gamesprites_quackdown_data)
;
; else if (quack2.direction == DIR_UP)
;
	jmp     L2788
L2797:	lda     _quack2+4
	bne     L19B8
;
; oam_meta_spr(temp_x, temp_y, gamesprites_quackup_data);
;
	jsr     decsp2
	lda     _temp_x
	ldy     #$01
	sta     (sp),y
	lda     _temp_y
	dey
	sta     (sp),y
	lda     #<(_gamesprites_quackup_data)
	ldx     #>(_gamesprites_quackup_data)
L2788:	jsr     _oam_meta_spr
;
; if (quack4.moving)
;
L19B8:	lda     _quack4+5
	jeq     L279B
;
; temp_x = quack4.x >> 8;
;
	lda     _quack4+1
	sta     _temp_x
;
; temp_y = quack4.y >> 8;
;
	lda     _quack4+3
	sta     _temp_y
;
; if (quack4.direction == DIR_LEFT)
;
	lda     _quack4+4
	cmp     #$02
	bne     L2798
;
; oam_meta_spr(temp_x, temp_y, gamesprites_quackleft_data);
;
	jsr     decsp2
	lda     _temp_x
	ldy     #$01
	sta     (sp),y
	lda     _temp_y
	dey
	sta     (sp),y
	lda     #<(_gamesprites_quackleft_data)
	ldx     #>(_gamesprites_quackleft_data)
;
; else if (quack4.direction == DIR_RIGHT)
;
	jmp     L2789
L2798:	lda     _quack4+4
	cmp     #$03
	bne     L2799
;
; oam_meta_spr(temp_x, temp_y, gamesprites_quackright_data);
;
	jsr     decsp2
	lda     _temp_x
	ldy     #$01
	sta     (sp),y
	lda     _temp_y
	dey
	sta     (sp),y
	lda     #<(_gamesprites_quackright_data)
	ldx     #>(_gamesprites_quackright_data)
;
; else if (quack4.direction == DIR_DOWN)
;
	jmp     L2789
L2799:	lda     _quack4+4
	cmp     #$01
	bne     L279A
;
; oam_meta_spr(temp_x, temp_y, gamesprites_quackdown_data);
;
	jsr     decsp2
	lda     _temp_x
	ldy     #$01
	sta     (sp),y
	lda     _temp_y
	dey
	sta     (sp),y
	lda     #<(_gamesprites_quackdown_data)
	ldx     #>(_gamesprites_quackdown_data)
;
; else if (quack4.direction == DIR_UP)
;
	jmp     L2789
L279A:	lda     _quack4+4
	bne     L279B
;
; oam_meta_spr(temp_x, temp_y, gamesprites_quackup_data);
;
	jsr     decsp2
	lda     _temp_x
	ldy     #$01
	sta     (sp),y
	lda     _temp_y
	dey
	sta     (sp),y
	lda     #<(_gamesprites_quackup_data)
	ldx     #>(_gamesprites_quackup_data)
L2789:	jsr     _oam_meta_spr
;
; switch (sprite_rotation & 0x03)
;
L279B:	lda     _sprite_rotation
	and     #$03
;
; }
;
	beq     L19E3
	cmp     #$01
	beq     L19E9
	cmp     #$02
	beq     L19EF
	cmp     #$03
	beq     L19F5
	rts
;
; draw_player_1();
;
L19E3:	jsr     _draw_player_1
;
; draw_player_2();
;
	jsr     _draw_player_2
;
; draw_player_3();
;
	jsr     _draw_player_3
;
; draw_player_4();
;
	jmp     _draw_player_4
;
; draw_player_2();
;
L19E9:	jsr     _draw_player_2
;
; draw_player_1();
;
	jsr     _draw_player_1
;
; draw_player_4();
;
	jsr     _draw_player_4
;
; draw_player_3();
;
	jmp     _draw_player_3
;
; draw_player_3();
;
L19EF:	jsr     _draw_player_3
;
; draw_player_4();
;
	jsr     _draw_player_4
;
; draw_player_1();
;
	jsr     _draw_player_1
;
; draw_player_2();
;
	jmp     _draw_player_2
;
; draw_player_4();
;
L19F5:	jsr     _draw_player_4
;
; draw_player_3();
;
	jsr     _draw_player_3
;
; draw_player_2();
;
	jsr     _draw_player_2
;
; draw_player_1();
;
	jmp     _draw_player_1

.endproc

; ---------------------------------------------------------------
; void __near__ draw_player_1 (void)
; ---------------------------------------------------------------

.segment	"CODE"

.proc	_draw_player_1: near

.segment	"CODE"

;
; temp_x = BoxGuy1.x >> 8;
;
	lda     _BoxGuy1+1
	sta     _temp_x
;
; temp_y = BoxGuy1.y >> 8;
;
	lda     _BoxGuy1+3
	sta     _temp_y
;
; if (winner == THREEFOUR_WINNER)
;
	lda     _winner
	cmp     #$02
	bne     L27AF
;
; if (BoxGuy1.direction == DIR_LEFT)
;
	lda     _BoxGuy1+4
	cmp     #$02
	bne     L27AE
;
; if (bee1_bigbee_timer > 0)
;
	lda     _bee1_bigbee_timer
	beq     L1A09
;
; oam_meta_spr(temp_x, temp_y, gamesprites_bigbeeleft0_data);
;
	jsr     decsp2
	lda     _temp_x
	ldy     #$01
	sta     (sp),y
	lda     _temp_y
	dey
	sta     (sp),y
	lda     #<(_gamesprites_bigbeeleft0_data)
	ldx     #>(_gamesprites_bigbeeleft0_data)
;
; else
;
	jmp     _oam_meta_spr
;
; oam_meta_spr(temp_x, temp_y, gamesprites_smallbeeleft0_data);
;
L1A09:	jsr     decsp2
	lda     _temp_x
	ldy     #$01
	sta     (sp),y
	lda     _temp_y
	dey
	sta     (sp),y
	lda     #<(_gamesprites_smallbeeleft0_data)
	ldx     #>(_gamesprites_smallbeeleft0_data)
	jmp     _oam_meta_spr
;
; if (bee1_bigbee_timer > 0)
;
L27AE:	lda     _bee1_bigbee_timer
	beq     L1A15
;
; oam_meta_spr(temp_x, temp_y, gamesprites_bigbeeright0_data);
;
	jsr     decsp2
	lda     _temp_x
	ldy     #$01
	sta     (sp),y
	lda     _temp_y
	dey
	sta     (sp),y
	lda     #<(_gamesprites_bigbeeright0_data)
	ldx     #>(_gamesprites_bigbeeright0_data)
	jmp     _oam_meta_spr
;
; oam_meta_spr(temp_x, temp_y, gamesprites_smallbeeright0_data);
;
L1A15:	jsr     decsp2
	lda     _temp_x
	ldy     #$01
	sta     (sp),y
	lda     _temp_y
	dey
	sta     (sp),y
	lda     #<(_gamesprites_smallbeeright0_data)
	ldx     #>(_gamesprites_smallbeeright0_data)
	jmp     _oam_meta_spr
;
; if (stun_p1 > 0 && frame_counter % 2 == 0 && winner == UNDEFINED_WINNER)
;
L27AF:	lda     _stun_p1
	beq     L27B3
	lda     _frame_counter
	and     #$01
	bne     L27B3
	lda     _winner
	bne     L27B3
;
; return; // flash when stunned (only if game is still ongoing)
;
	rts
;
; if ((frame_counter % 10) == 0)
;
L27B3:	lda     _frame_counter
	jsr     pusha0
	lda     #$0A
	jsr     tosumoda0
	cpx     #$00
	bne     L1A25
	cmp     #$00
	bne     L1A25
;
; anim_frame_1 = (anim_frame_1 + 1) % 3;
;
	lda     _anim_frame_1
	clc
	adc     #$01
	bcc     L1A2C
	inx
L1A2C:	jsr     pushax
	lda     #$03
	jsr     tosumoda0
	sta     _anim_frame_1
;
; if (bee1_bigbee_timer > 0)
;
L1A25:	lda     _bee1_bigbee_timer
	jeq     L27B9
;
; if (bee1_bigbee_timer < BIGBEE_FLICKER_START)
;
	cmp     #$04
	bcs     L27B6
;
; if ((frame_counter % 4) < 2 && winner == UNDEFINED_WINNER)
;
	lda     _frame_counter
	and     #$03
	cmp     #$02
	bcs     L27B6
	lda     _winner
	bne     L27B6
;
; return; // Skip drawing this frame
;
	rts
;
; if (BoxGuy1.direction == DIR_LEFT)
;
L27B6:	lda     _BoxGuy1+4
	cmp     #$02
	bne     L27B7
;
; switch (anim_frame_1)
;
	lda     _anim_frame_1
;
; }
;
	beq     L1A3D
	cmp     #$01
	beq     L1A43
	cmp     #$02
	beq     L1A49
	rts
;
; oam_meta_spr(temp_x, temp_y, gamesprites_bigbeeleft0_data);
;
L1A3D:	jsr     decsp2
	lda     _temp_x
	ldy     #$01
	sta     (sp),y
	lda     _temp_y
	dey
	sta     (sp),y
	lda     #<(_gamesprites_bigbeeleft0_data)
	ldx     #>(_gamesprites_bigbeeleft0_data)
	jmp     _oam_meta_spr
;
; oam_meta_spr(temp_x, temp_y, gamesprites_bigbeeleft1_data);
;
L1A43:	jsr     decsp2
	lda     _temp_x
	ldy     #$01
	sta     (sp),y
	lda     _temp_y
	dey
	sta     (sp),y
	lda     #<(_gamesprites_bigbeeleft1_data)
	ldx     #>(_gamesprites_bigbeeleft1_data)
	jmp     _oam_meta_spr
;
; oam_meta_spr(temp_x, temp_y, gamesprites_bigbeeleft2_data);
;
L1A49:	jsr     decsp2
	lda     _temp_x
	ldy     #$01
	sta     (sp),y
	lda     _temp_y
	dey
	sta     (sp),y
	lda     #<(_gamesprites_bigbeeleft2_data)
	ldx     #>(_gamesprites_bigbeeleft2_data)
	jmp     _oam_meta_spr
;
; else if (BoxGuy1.direction == DIR_RIGHT)
;
L27B7:	lda     _BoxGuy1+4
	cmp     #$03
	bne     L27B8
;
; switch (anim_frame_1)
;
	lda     _anim_frame_1
;
; }
;
	beq     L1A55
	cmp     #$01
	beq     L1A5B
	cmp     #$02
	beq     L1A61
	rts
;
; oam_meta_spr(temp_x, temp_y, gamesprites_bigbeeright0_data);
;
L1A55:	jsr     decsp2
	lda     _temp_x
	ldy     #$01
	sta     (sp),y
	lda     _temp_y
	dey
	sta     (sp),y
	lda     #<(_gamesprites_bigbeeright0_data)
	ldx     #>(_gamesprites_bigbeeright0_data)
	jmp     _oam_meta_spr
;
; oam_meta_spr(temp_x, temp_y, gamesprites_bigbeeright1_data);
;
L1A5B:	jsr     decsp2
	lda     _temp_x
	ldy     #$01
	sta     (sp),y
	lda     _temp_y
	dey
	sta     (sp),y
	lda     #<(_gamesprites_bigbeeright1_data)
	ldx     #>(_gamesprites_bigbeeright1_data)
	jmp     _oam_meta_spr
;
; oam_meta_spr(temp_x, temp_y, gamesprites_bigbeeright2_data);
;
L1A61:	jsr     decsp2
	lda     _temp_x
	ldy     #$01
	sta     (sp),y
	lda     _temp_y
	dey
	sta     (sp),y
	lda     #<(_gamesprites_bigbeeright2_data)
	ldx     #>(_gamesprites_bigbeeright2_data)
	jmp     _oam_meta_spr
;
; switch (anim_frame_1)
;
L27B8:	lda     _anim_frame_1
;
; }
;
	beq     L1A6B
	cmp     #$01
	beq     L1A71
	cmp     #$02
	beq     L1A77
	rts
;
; oam_meta_spr(temp_x, temp_y, gamesprites_bigbeeleft0_data);
;
L1A6B:	jsr     decsp2
	lda     _temp_x
	ldy     #$01
	sta     (sp),y
	lda     _temp_y
	dey
	sta     (sp),y
	lda     #<(_gamesprites_bigbeeleft0_data)
	ldx     #>(_gamesprites_bigbeeleft0_data)
	jmp     _oam_meta_spr
;
; oam_meta_spr(temp_x, temp_y, gamesprites_bigbeeleft1_data);
;
L1A71:	jsr     decsp2
	lda     _temp_x
	ldy     #$01
	sta     (sp),y
	lda     _temp_y
	dey
	sta     (sp),y
	lda     #<(_gamesprites_bigbeeleft1_data)
	ldx     #>(_gamesprites_bigbeeleft1_data)
	jmp     _oam_meta_spr
;
; oam_meta_spr(temp_x, temp_y, gamesprites_bigbeeleft2_data);
;
L1A77:	jsr     decsp2
	lda     _temp_x
	ldy     #$01
	sta     (sp),y
	lda     _temp_y
	dey
	sta     (sp),y
	lda     #<(_gamesprites_bigbeeleft2_data)
	ldx     #>(_gamesprites_bigbeeleft2_data)
	jmp     _oam_meta_spr
;
; if (BoxGuy1.direction == DIR_LEFT)
;
L27B9:	lda     _BoxGuy1+4
	cmp     #$02
	bne     L27BA
;
; switch (anim_frame_1)
;
	lda     _anim_frame_1
;
; }
;
	beq     L1A83
	cmp     #$01
	beq     L1A89
	cmp     #$02
	beq     L1A8F
	rts
;
; oam_meta_spr(temp_x, temp_y, gamesprites_smallbeeleft0_data);
;
L1A83:	jsr     decsp2
	lda     _temp_x
	ldy     #$01
	sta     (sp),y
	lda     _temp_y
	dey
	sta     (sp),y
	lda     #<(_gamesprites_smallbeeleft0_data)
	ldx     #>(_gamesprites_smallbeeleft0_data)
	jmp     _oam_meta_spr
;
; oam_meta_spr(temp_x, temp_y, gamesprites_smallbeeleft1_data);
;
L1A89:	jsr     decsp2
	lda     _temp_x
	ldy     #$01
	sta     (sp),y
	lda     _temp_y
	dey
	sta     (sp),y
	lda     #<(_gamesprites_smallbeeleft1_data)
	ldx     #>(_gamesprites_smallbeeleft1_data)
	jmp     _oam_meta_spr
;
; oam_meta_spr(temp_x, temp_y, gamesprites_smallbeeleft2_data);
;
L1A8F:	jsr     decsp2
	lda     _temp_x
	ldy     #$01
	sta     (sp),y
	lda     _temp_y
	dey
	sta     (sp),y
	lda     #<(_gamesprites_smallbeeleft2_data)
	ldx     #>(_gamesprites_smallbeeleft2_data)
	jmp     _oam_meta_spr
;
; else if (BoxGuy1.direction == DIR_RIGHT)
;
L27BA:	lda     _BoxGuy1+4
	cmp     #$03
	bne     L27BB
;
; switch (anim_frame_1)
;
	lda     _anim_frame_1
;
; }
;
	beq     L1A9B
	cmp     #$01
	beq     L1AA1
	cmp     #$02
	beq     L1AA7
	rts
;
; oam_meta_spr(temp_x, temp_y, gamesprites_smallbeeright0_data);
;
L1A9B:	jsr     decsp2
	lda     _temp_x
	ldy     #$01
	sta     (sp),y
	lda     _temp_y
	dey
	sta     (sp),y
	lda     #<(_gamesprites_smallbeeright0_data)
	ldx     #>(_gamesprites_smallbeeright0_data)
	jmp     _oam_meta_spr
;
; oam_meta_spr(temp_x, temp_y, gamesprites_smallbeeright1_data);
;
L1AA1:	jsr     decsp2
	lda     _temp_x
	ldy     #$01
	sta     (sp),y
	lda     _temp_y
	dey
	sta     (sp),y
	lda     #<(_gamesprites_smallbeeright1_data)
	ldx     #>(_gamesprites_smallbeeright1_data)
	jmp     _oam_meta_spr
;
; oam_meta_spr(temp_x, temp_y, gamesprites_smallbeeright2_data);
;
L1AA7:	jsr     decsp2
	lda     _temp_x
	ldy     #$01
	sta     (sp),y
	lda     _temp_y
	dey
	sta     (sp),y
	lda     #<(_gamesprites_smallbeeright2_data)
	ldx     #>(_gamesprites_smallbeeright2_data)
	jmp     _oam_meta_spr
;
; switch (anim_frame_1)
;
L27BB:	lda     _anim_frame_1
;
; }
;
	beq     L1AB1
	cmp     #$01
	beq     L1AB7
	cmp     #$02
	beq     L1ABD
	rts
;
; oam_meta_spr(temp_x, temp_y, gamesprites_smallbeeleft0_data);
;
L1AB1:	jsr     decsp2
	lda     _temp_x
	ldy     #$01
	sta     (sp),y
	lda     _temp_y
	dey
	sta     (sp),y
	lda     #<(_gamesprites_smallbeeleft0_data)
	ldx     #>(_gamesprites_smallbeeleft0_data)
	jmp     _oam_meta_spr
;
; oam_meta_spr(temp_x, temp_y, gamesprites_smallbeeleft1_data);
;
L1AB7:	jsr     decsp2
	lda     _temp_x
	ldy     #$01
	sta     (sp),y
	lda     _temp_y
	dey
	sta     (sp),y
	lda     #<(_gamesprites_smallbeeleft1_data)
	ldx     #>(_gamesprites_smallbeeleft1_data)
	jmp     _oam_meta_spr
;
; oam_meta_spr(temp_x, temp_y, gamesprites_smallbeeleft2_data);
;
L1ABD:	jsr     decsp2
	lda     _temp_x
	ldy     #$01
	sta     (sp),y
	lda     _temp_y
	dey
	sta     (sp),y
	lda     #<(_gamesprites_smallbeeleft2_data)
	ldx     #>(_gamesprites_smallbeeleft2_data)
	jmp     _oam_meta_spr

.endproc

; ---------------------------------------------------------------
; void __near__ draw_player_2 (void)
; ---------------------------------------------------------------

.segment	"CODE"

.proc	_draw_player_2: near

.segment	"CODE"

;
; temp_x = BoxGuy2.x >> 8;
;
	lda     _BoxGuy2+1
	sta     _temp_x
;
; temp_y = BoxGuy2.y >> 8;
;
	lda     _BoxGuy2+3
	sta     _temp_y
;
; if (winner == THREEFOUR_WINNER)
;
	lda     _winner
	cmp     #$02
	bne     L27BD
;
; if (BoxGuy2.direction == DIR_LEFT)
;
	lda     _BoxGuy2+4
	cmp     #$02
	bne     L1ACF
;
; oam_meta_spr(temp_x, temp_y, gamesprites_smallduckleft0_data);
;
	jsr     decsp2
	lda     _temp_x
	ldy     #$01
	sta     (sp),y
	lda     _temp_y
	dey
	sta     (sp),y
	lda     #<(_gamesprites_smallduckleft0_data)
	ldx     #>(_gamesprites_smallduckleft0_data)
	jmp     _oam_meta_spr
;
; oam_meta_spr(temp_x, temp_y, gamesprites_smallduckright0_data);
;
L1ACF:	jsr     decsp2
	lda     _temp_x
	ldy     #$01
	sta     (sp),y
	lda     _temp_y
	dey
	sta     (sp),y
	lda     #<(_gamesprites_smallduckright0_data)
	ldx     #>(_gamesprites_smallduckright0_data)
	jmp     _oam_meta_spr
;
; if (stun_p2 > 0 && frame_counter % 2 == 0 && winner == UNDEFINED_WINNER)
;
L27BD:	lda     _stun_p2
	beq     L27C1
	lda     _frame_counter
	and     #$01
	bne     L27C1
	lda     _winner
	bne     L27C1
;
; return; // flash when stunned
;
	rts
;
; if ((frame_counter % 10) == 0 && BoxGuy2.moving)
;
L27C1:	lda     _frame_counter
	jsr     pusha0
	lda     #$0A
	jsr     tosumoda0
	cpx     #$00
	bne     L27C2
	cmp     #$00
	bne     L27C2
	lda     _BoxGuy2+5
	beq     L27C2
;
; anim_frame_2 = (anim_frame_2 + 1) % 3;
;
	lda     _anim_frame_2
	clc
	adc     #$01
	bcc     L1AE8
	inx
L1AE8:	jsr     pushax
	lda     #$03
	jsr     tosumoda0
	sta     _anim_frame_2
;
; if (BoxGuy2.direction == DIR_LEFT)
;
L27C2:	lda     _BoxGuy2+4
	cmp     #$02
	bne     L27C3
;
; switch (anim_frame_2)
;
	lda     _anim_frame_2
;
; }
;
	beq     L1AEF
	cmp     #$01
	beq     L1AF5
	cmp     #$02
	beq     L1AFB
	rts
;
; oam_meta_spr(temp_x, temp_y, gamesprites_smallduckleft0_data);
;
L1AEF:	jsr     decsp2
	lda     _temp_x
	ldy     #$01
	sta     (sp),y
	lda     _temp_y
	dey
	sta     (sp),y
	lda     #<(_gamesprites_smallduckleft0_data)
	ldx     #>(_gamesprites_smallduckleft0_data)
	jmp     _oam_meta_spr
;
; oam_meta_spr(temp_x, temp_y, gamesprites_smallduckleft1_data);
;
L1AF5:	jsr     decsp2
	lda     _temp_x
	ldy     #$01
	sta     (sp),y
	lda     _temp_y
	dey
	sta     (sp),y
	lda     #<(_gamesprites_smallduckleft1_data)
	ldx     #>(_gamesprites_smallduckleft1_data)
	jmp     _oam_meta_spr
;
; oam_meta_spr(temp_x, temp_y, gamesprites_smallduckleft2_data);
;
L1AFB:	jsr     decsp2
	lda     _temp_x
	ldy     #$01
	sta     (sp),y
	lda     _temp_y
	dey
	sta     (sp),y
	lda     #<(_gamesprites_smallduckleft2_data)
	ldx     #>(_gamesprites_smallduckleft2_data)
	jmp     _oam_meta_spr
;
; else if (BoxGuy2.direction == DIR_RIGHT)
;
L27C3:	lda     _BoxGuy2+4
	cmp     #$03
	bne     L27C4
;
; switch (anim_frame_2)
;
	lda     _anim_frame_2
;
; }
;
	beq     L1B07
	cmp     #$01
	beq     L1B0D
	cmp     #$02
	beq     L1B13
	rts
;
; oam_meta_spr(temp_x, temp_y, gamesprites_smallduckright0_data);
;
L1B07:	jsr     decsp2
	lda     _temp_x
	ldy     #$01
	sta     (sp),y
	lda     _temp_y
	dey
	sta     (sp),y
	lda     #<(_gamesprites_smallduckright0_data)
	ldx     #>(_gamesprites_smallduckright0_data)
	jmp     _oam_meta_spr
;
; oam_meta_spr(temp_x, temp_y, gamesprites_smallduckright1_data);
;
L1B0D:	jsr     decsp2
	lda     _temp_x
	ldy     #$01
	sta     (sp),y
	lda     _temp_y
	dey
	sta     (sp),y
	lda     #<(_gamesprites_smallduckright1_data)
	ldx     #>(_gamesprites_smallduckright1_data)
	jmp     _oam_meta_spr
;
; oam_meta_spr(temp_x, temp_y, gamesprites_smallduckright2_data);
;
L1B13:	jsr     decsp2
	lda     _temp_x
	ldy     #$01
	sta     (sp),y
	lda     _temp_y
	dey
	sta     (sp),y
	lda     #<(_gamesprites_smallduckright2_data)
	ldx     #>(_gamesprites_smallduckright2_data)
	jmp     _oam_meta_spr
;
; switch (anim_frame_2)
;
L27C4:	lda     _anim_frame_2
;
; }
;
	beq     L1B1D
	cmp     #$01
	beq     L1B23
	cmp     #$02
	beq     L1B29
	rts
;
; oam_meta_spr(temp_x, temp_y, gamesprites_smallduckleft0_data);
;
L1B1D:	jsr     decsp2
	lda     _temp_x
	ldy     #$01
	sta     (sp),y
	lda     _temp_y
	dey
	sta     (sp),y
	lda     #<(_gamesprites_smallduckleft0_data)
	ldx     #>(_gamesprites_smallduckleft0_data)
	jmp     _oam_meta_spr
;
; oam_meta_spr(temp_x, temp_y, gamesprites_smallduckleft1_data);
;
L1B23:	jsr     decsp2
	lda     _temp_x
	ldy     #$01
	sta     (sp),y
	lda     _temp_y
	dey
	sta     (sp),y
	lda     #<(_gamesprites_smallduckleft1_data)
	ldx     #>(_gamesprites_smallduckleft1_data)
	jmp     _oam_meta_spr
;
; oam_meta_spr(temp_x, temp_y, gamesprites_smallduckleft2_data);
;
L1B29:	jsr     decsp2
	lda     _temp_x
	ldy     #$01
	sta     (sp),y
	lda     _temp_y
	dey
	sta     (sp),y
	lda     #<(_gamesprites_smallduckleft2_data)
	ldx     #>(_gamesprites_smallduckleft2_data)
	jmp     _oam_meta_spr

.endproc

; ---------------------------------------------------------------
; void __near__ draw_player_3 (void)
; ---------------------------------------------------------------

.segment	"CODE"

.proc	_draw_player_3: near

.segment	"CODE"

;
; temp_x = BoxGuy3.x >> 8;
;
	lda     _BoxGuy3+1
	sta     _temp_x
;
; temp_y = BoxGuy3.y >> 8;
;
	lda     _BoxGuy3+3
	sta     _temp_y
;
; if (winner == ONETWO_WINNER)
;
	lda     _winner
	cmp     #$01
	bne     L27C8
;
; if (BoxGuy3.direction == DIR_LEFT)
;
	lda     _BoxGuy3+4
	cmp     #$02
	bne     L27C7
;
; if (bee3_bigbee_timer > 0)
;
	lda     _bee3_bigbee_timer
	beq     L1B3D
;
; oam_meta_spr(temp_x, temp_y, gamesprites_bigbee2left0_data);
;
	jsr     decsp2
	lda     _temp_x
	ldy     #$01
	sta     (sp),y
	lda     _temp_y
	dey
	sta     (sp),y
	lda     #<(_gamesprites_bigbee2left0_data)
	ldx     #>(_gamesprites_bigbee2left0_data)
;
; else
;
	jmp     _oam_meta_spr
;
; oam_meta_spr(temp_x, temp_y, gamesprites_smallbee2left0_data);
;
L1B3D:	jsr     decsp2
	lda     _temp_x
	ldy     #$01
	sta     (sp),y
	lda     _temp_y
	dey
	sta     (sp),y
	lda     #<(_gamesprites_smallbee2left0_data)
	ldx     #>(_gamesprites_smallbee2left0_data)
	jmp     _oam_meta_spr
;
; if (bee3_bigbee_timer > 0)
;
L27C7:	lda     _bee3_bigbee_timer
	beq     L1B49
;
; oam_meta_spr(temp_x, temp_y, gamesprites_bigbee2right0_data);
;
	jsr     decsp2
	lda     _temp_x
	ldy     #$01
	sta     (sp),y
	lda     _temp_y
	dey
	sta     (sp),y
	lda     #<(_gamesprites_bigbee2right0_data)
	ldx     #>(_gamesprites_bigbee2right0_data)
	jmp     _oam_meta_spr
;
; oam_meta_spr(temp_x, temp_y, gamesprites_smallbee2right0_data);
;
L1B49:	jsr     decsp2
	lda     _temp_x
	ldy     #$01
	sta     (sp),y
	lda     _temp_y
	dey
	sta     (sp),y
	lda     #<(_gamesprites_smallbee2right0_data)
	ldx     #>(_gamesprites_smallbee2right0_data)
	jmp     _oam_meta_spr
;
; if (stun_p3 > 0 && frame_counter % 2 == 0 && winner == UNDEFINED_WINNER)
;
L27C8:	lda     _stun_p3
	beq     L27CC
	lda     _frame_counter
	and     #$01
	bne     L27CC
	lda     _winner
	bne     L27CC
;
; return; // flash when stunned
;
	rts
;
; if ((frame_counter % 10) == 0)
;
L27CC:	lda     _frame_counter
	jsr     pusha0
	lda     #$0A
	jsr     tosumoda0
	cpx     #$00
	bne     L1B59
	cmp     #$00
	bne     L1B59
;
; anim_frame_3 = (anim_frame_3 + 1) % 3;
;
	lda     _anim_frame_3
	clc
	adc     #$01
	bcc     L1B60
	inx
L1B60:	jsr     pushax
	lda     #$03
	jsr     tosumoda0
	sta     _anim_frame_3
;
; if (bee3_bigbee_timer > 0)
;
L1B59:	lda     _bee3_bigbee_timer
	jeq     L27D2
;
; if (bee3_bigbee_timer < BIGBEE_FLICKER_START)
;
	cmp     #$04
	bcs     L27CF
;
; if ((frame_counter % 4) < 2 && winner == UNDEFINED_WINNER)
;
	lda     _frame_counter
	and     #$03
	cmp     #$02
	bcs     L27CF
	lda     _winner
	bne     L27CF
;
; return; // Skip drawing this frame
;
	rts
;
; if (BoxGuy3.direction == DIR_LEFT)
;
L27CF:	lda     _BoxGuy3+4
	cmp     #$02
	bne     L27D0
;
; switch (anim_frame_3)
;
	lda     _anim_frame_3
;
; }
;
	beq     L1B71
	cmp     #$01
	beq     L1B77
	cmp     #$02
	beq     L1B7D
	rts
;
; oam_meta_spr(temp_x, temp_y, gamesprites_bigbee2left0_data);
;
L1B71:	jsr     decsp2
	lda     _temp_x
	ldy     #$01
	sta     (sp),y
	lda     _temp_y
	dey
	sta     (sp),y
	lda     #<(_gamesprites_bigbee2left0_data)
	ldx     #>(_gamesprites_bigbee2left0_data)
	jmp     _oam_meta_spr
;
; oam_meta_spr(temp_x, temp_y, gamesprites_bigbee2left1_data);
;
L1B77:	jsr     decsp2
	lda     _temp_x
	ldy     #$01
	sta     (sp),y
	lda     _temp_y
	dey
	sta     (sp),y
	lda     #<(_gamesprites_bigbee2left1_data)
	ldx     #>(_gamesprites_bigbee2left1_data)
	jmp     _oam_meta_spr
;
; oam_meta_spr(temp_x, temp_y, gamesprites_bigbee2left2_data);
;
L1B7D:	jsr     decsp2
	lda     _temp_x
	ldy     #$01
	sta     (sp),y
	lda     _temp_y
	dey
	sta     (sp),y
	lda     #<(_gamesprites_bigbee2left2_data)
	ldx     #>(_gamesprites_bigbee2left2_data)
	jmp     _oam_meta_spr
;
; else if (BoxGuy3.direction == DIR_RIGHT)
;
L27D0:	lda     _BoxGuy3+4
	cmp     #$03
	bne     L27D1
;
; switch (anim_frame_3)
;
	lda     _anim_frame_3
;
; }
;
	beq     L1B89
	cmp     #$01
	beq     L1B8F
	cmp     #$02
	beq     L1B95
	rts
;
; oam_meta_spr(temp_x, temp_y, gamesprites_bigbee2right0_data);
;
L1B89:	jsr     decsp2
	lda     _temp_x
	ldy     #$01
	sta     (sp),y
	lda     _temp_y
	dey
	sta     (sp),y
	lda     #<(_gamesprites_bigbee2right0_data)
	ldx     #>(_gamesprites_bigbee2right0_data)
	jmp     _oam_meta_spr
;
; oam_meta_spr(temp_x, temp_y, gamesprites_bigbee2right1_data);
;
L1B8F:	jsr     decsp2
	lda     _temp_x
	ldy     #$01
	sta     (sp),y
	lda     _temp_y
	dey
	sta     (sp),y
	lda     #<(_gamesprites_bigbee2right1_data)
	ldx     #>(_gamesprites_bigbee2right1_data)
	jmp     _oam_meta_spr
;
; oam_meta_spr(temp_x, temp_y, gamesprites_bigbee2right2_data);
;
L1B95:	jsr     decsp2
	lda     _temp_x
	ldy     #$01
	sta     (sp),y
	lda     _temp_y
	dey
	sta     (sp),y
	lda     #<(_gamesprites_bigbee2right2_data)
	ldx     #>(_gamesprites_bigbee2right2_data)
	jmp     _oam_meta_spr
;
; switch (anim_frame_3)
;
L27D1:	lda     _anim_frame_3
;
; }
;
	beq     L1B9F
	cmp     #$01
	beq     L1BA5
	cmp     #$02
	beq     L1BAB
	rts
;
; oam_meta_spr(temp_x, temp_y, gamesprites_bigbee2left0_data);
;
L1B9F:	jsr     decsp2
	lda     _temp_x
	ldy     #$01
	sta     (sp),y
	lda     _temp_y
	dey
	sta     (sp),y
	lda     #<(_gamesprites_bigbee2left0_data)
	ldx     #>(_gamesprites_bigbee2left0_data)
	jmp     _oam_meta_spr
;
; oam_meta_spr(temp_x, temp_y, gamesprites_bigbee2left1_data);
;
L1BA5:	jsr     decsp2
	lda     _temp_x
	ldy     #$01
	sta     (sp),y
	lda     _temp_y
	dey
	sta     (sp),y
	lda     #<(_gamesprites_bigbee2left1_data)
	ldx     #>(_gamesprites_bigbee2left1_data)
	jmp     _oam_meta_spr
;
; oam_meta_spr(temp_x, temp_y, gamesprites_bigbee2left2_data);
;
L1BAB:	jsr     decsp2
	lda     _temp_x
	ldy     #$01
	sta     (sp),y
	lda     _temp_y
	dey
	sta     (sp),y
	lda     #<(_gamesprites_bigbee2left2_data)
	ldx     #>(_gamesprites_bigbee2left2_data)
	jmp     _oam_meta_spr
;
; if (BoxGuy3.direction == DIR_LEFT)
;
L27D2:	lda     _BoxGuy3+4
	cmp     #$02
	bne     L27D3
;
; switch (anim_frame_3)
;
	lda     _anim_frame_3
;
; }
;
	beq     L1BB7
	cmp     #$01
	beq     L1BBD
	cmp     #$02
	beq     L1BC3
	rts
;
; oam_meta_spr(temp_x, temp_y, gamesprites_smallbee2left0_data);
;
L1BB7:	jsr     decsp2
	lda     _temp_x
	ldy     #$01
	sta     (sp),y
	lda     _temp_y
	dey
	sta     (sp),y
	lda     #<(_gamesprites_smallbee2left0_data)
	ldx     #>(_gamesprites_smallbee2left0_data)
	jmp     _oam_meta_spr
;
; oam_meta_spr(temp_x, temp_y, gamesprites_smallbee2left1_data);
;
L1BBD:	jsr     decsp2
	lda     _temp_x
	ldy     #$01
	sta     (sp),y
	lda     _temp_y
	dey
	sta     (sp),y
	lda     #<(_gamesprites_smallbee2left1_data)
	ldx     #>(_gamesprites_smallbee2left1_data)
	jmp     _oam_meta_spr
;
; oam_meta_spr(temp_x, temp_y, gamesprites_smallbee2left2_data);
;
L1BC3:	jsr     decsp2
	lda     _temp_x
	ldy     #$01
	sta     (sp),y
	lda     _temp_y
	dey
	sta     (sp),y
	lda     #<(_gamesprites_smallbee2left2_data)
	ldx     #>(_gamesprites_smallbee2left2_data)
	jmp     _oam_meta_spr
;
; else if (BoxGuy3.direction == DIR_RIGHT)
;
L27D3:	lda     _BoxGuy3+4
	cmp     #$03
	bne     L27D4
;
; switch (anim_frame_3)
;
	lda     _anim_frame_3
;
; }
;
	beq     L1BCF
	cmp     #$01
	beq     L1BD5
	cmp     #$02
	beq     L1BDB
	rts
;
; oam_meta_spr(temp_x, temp_y, gamesprites_smallbee2right0_data);
;
L1BCF:	jsr     decsp2
	lda     _temp_x
	ldy     #$01
	sta     (sp),y
	lda     _temp_y
	dey
	sta     (sp),y
	lda     #<(_gamesprites_smallbee2right0_data)
	ldx     #>(_gamesprites_smallbee2right0_data)
	jmp     _oam_meta_spr
;
; oam_meta_spr(temp_x, temp_y, gamesprites_smallbee2right1_data);
;
L1BD5:	jsr     decsp2
	lda     _temp_x
	ldy     #$01
	sta     (sp),y
	lda     _temp_y
	dey
	sta     (sp),y
	lda     #<(_gamesprites_smallbee2right1_data)
	ldx     #>(_gamesprites_smallbee2right1_data)
	jmp     _oam_meta_spr
;
; oam_meta_spr(temp_x, temp_y, gamesprites_smallbee2right2_data);
;
L1BDB:	jsr     decsp2
	lda     _temp_x
	ldy     #$01
	sta     (sp),y
	lda     _temp_y
	dey
	sta     (sp),y
	lda     #<(_gamesprites_smallbee2right2_data)
	ldx     #>(_gamesprites_smallbee2right2_data)
	jmp     _oam_meta_spr
;
; switch (anim_frame_3)
;
L27D4:	lda     _anim_frame_3
;
; }
;
	beq     L1BE5
	cmp     #$01
	beq     L1BEB
	cmp     #$02
	beq     L1BF1
	rts
;
; oam_meta_spr(temp_x, temp_y, gamesprites_smallbee2left0_data);
;
L1BE5:	jsr     decsp2
	lda     _temp_x
	ldy     #$01
	sta     (sp),y
	lda     _temp_y
	dey
	sta     (sp),y
	lda     #<(_gamesprites_smallbee2left0_data)
	ldx     #>(_gamesprites_smallbee2left0_data)
	jmp     _oam_meta_spr
;
; oam_meta_spr(temp_x, temp_y, gamesprites_smallbee2left1_data);
;
L1BEB:	jsr     decsp2
	lda     _temp_x
	ldy     #$01
	sta     (sp),y
	lda     _temp_y
	dey
	sta     (sp),y
	lda     #<(_gamesprites_smallbee2left1_data)
	ldx     #>(_gamesprites_smallbee2left1_data)
	jmp     _oam_meta_spr
;
; oam_meta_spr(temp_x, temp_y, gamesprites_smallbee2left2_data);
;
L1BF1:	jsr     decsp2
	lda     _temp_x
	ldy     #$01
	sta     (sp),y
	lda     _temp_y
	dey
	sta     (sp),y
	lda     #<(_gamesprites_smallbee2left2_data)
	ldx     #>(_gamesprites_smallbee2left2_data)
	jmp     _oam_meta_spr

.endproc

; ---------------------------------------------------------------
; void __near__ draw_player_4 (void)
; ---------------------------------------------------------------

.segment	"CODE"

.proc	_draw_player_4: near

.segment	"CODE"

;
; temp_x = BoxGuy4.x >> 8;
;
	lda     _BoxGuy4+1
	sta     _temp_x
;
; temp_y = BoxGuy4.y >> 8;
;
	lda     _BoxGuy4+3
	sta     _temp_y
;
; if (winner == ONETWO_WINNER)
;
	lda     _winner
	cmp     #$01
	bne     L27D6
;
; if (BoxGuy4.direction == DIR_LEFT)
;
	lda     _BoxGuy4+4
	cmp     #$02
	bne     L1C03
;
; oam_meta_spr(temp_x, temp_y, gamesprites_smallduck2left0_data);
;
	jsr     decsp2
	lda     _temp_x
	ldy     #$01
	sta     (sp),y
	lda     _temp_y
	dey
	sta     (sp),y
	lda     #<(_gamesprites_smallduck2left0_data)
	ldx     #>(_gamesprites_smallduck2left0_data)
	jmp     _oam_meta_spr
;
; oam_meta_spr(temp_x, temp_y, gamesprites_smallduck2right0_data);
;
L1C03:	jsr     decsp2
	lda     _temp_x
	ldy     #$01
	sta     (sp),y
	lda     _temp_y
	dey
	sta     (sp),y
	lda     #<(_gamesprites_smallduck2right0_data)
	ldx     #>(_gamesprites_smallduck2right0_data)
	jmp     _oam_meta_spr
;
; if (stun_p4 > 0 && frame_counter % 2 == 0 && winner == UNDEFINED_WINNER)
;
L27D6:	lda     _stun_p4
	beq     L27DA
	lda     _frame_counter
	and     #$01
	bne     L27DA
	lda     _winner
	bne     L27DA
;
; return; // flash when stunned
;
	rts
;
; if ((frame_counter % 10) == 0 && BoxGuy4.moving)
;
L27DA:	lda     _frame_counter
	jsr     pusha0
	lda     #$0A
	jsr     tosumoda0
	cpx     #$00
	bne     L27DB
	cmp     #$00
	bne     L27DB
	lda     _BoxGuy4+5
	beq     L27DB
;
; anim_frame_4 = (anim_frame_4 + 1) % 3;
;
	lda     _anim_frame_4
	clc
	adc     #$01
	bcc     L1C1C
	inx
L1C1C:	jsr     pushax
	lda     #$03
	jsr     tosumoda0
	sta     _anim_frame_4
;
; if (BoxGuy4.direction == DIR_LEFT)
;
L27DB:	lda     _BoxGuy4+4
	cmp     #$02
	bne     L27DC
;
; switch (anim_frame_4)
;
	lda     _anim_frame_4
;
; }
;
	beq     L1C23
	cmp     #$01
	beq     L1C29
	cmp     #$02
	beq     L1C2F
	rts
;
; oam_meta_spr(temp_x, temp_y, gamesprites_smallduck2left0_data);
;
L1C23:	jsr     decsp2
	lda     _temp_x
	ldy     #$01
	sta     (sp),y
	lda     _temp_y
	dey
	sta     (sp),y
	lda     #<(_gamesprites_smallduck2left0_data)
	ldx     #>(_gamesprites_smallduck2left0_data)
	jmp     _oam_meta_spr
;
; oam_meta_spr(temp_x, temp_y, gamesprites_smallduck2left1_data);
;
L1C29:	jsr     decsp2
	lda     _temp_x
	ldy     #$01
	sta     (sp),y
	lda     _temp_y
	dey
	sta     (sp),y
	lda     #<(_gamesprites_smallduck2left1_data)
	ldx     #>(_gamesprites_smallduck2left1_data)
	jmp     _oam_meta_spr
;
; oam_meta_spr(temp_x, temp_y, gamesprites_smallduck2left2_data);
;
L1C2F:	jsr     decsp2
	lda     _temp_x
	ldy     #$01
	sta     (sp),y
	lda     _temp_y
	dey
	sta     (sp),y
	lda     #<(_gamesprites_smallduck2left2_data)
	ldx     #>(_gamesprites_smallduck2left2_data)
	jmp     _oam_meta_spr
;
; else if (BoxGuy4.direction == DIR_RIGHT)
;
L27DC:	lda     _BoxGuy4+4
	cmp     #$03
	bne     L27DD
;
; switch (anim_frame_4)
;
	lda     _anim_frame_4
;
; }
;
	beq     L1C3B
	cmp     #$01
	beq     L1C41
	cmp     #$02
	beq     L1C47
	rts
;
; oam_meta_spr(temp_x, temp_y, gamesprites_smallduck2right0_data);
;
L1C3B:	jsr     decsp2
	lda     _temp_x
	ldy     #$01
	sta     (sp),y
	lda     _temp_y
	dey
	sta     (sp),y
	lda     #<(_gamesprites_smallduck2right0_data)
	ldx     #>(_gamesprites_smallduck2right0_data)
	jmp     _oam_meta_spr
;
; oam_meta_spr(temp_x, temp_y, gamesprites_smallduck2right1_data);
;
L1C41:	jsr     decsp2
	lda     _temp_x
	ldy     #$01
	sta     (sp),y
	lda     _temp_y
	dey
	sta     (sp),y
	lda     #<(_gamesprites_smallduck2right1_data)
	ldx     #>(_gamesprites_smallduck2right1_data)
	jmp     _oam_meta_spr
;
; oam_meta_spr(temp_x, temp_y, gamesprites_smallduck2right2_data);
;
L1C47:	jsr     decsp2
	lda     _temp_x
	ldy     #$01
	sta     (sp),y
	lda     _temp_y
	dey
	sta     (sp),y
	lda     #<(_gamesprites_smallduck2right2_data)
	ldx     #>(_gamesprites_smallduck2right2_data)
	jmp     _oam_meta_spr
;
; switch (anim_frame_4)
;
L27DD:	lda     _anim_frame_4
;
; }
;
	beq     L1C51
	cmp     #$01
	beq     L1C57
	cmp     #$02
	beq     L1C5D
	rts
;
; oam_meta_spr(temp_x, temp_y, gamesprites_smallduck2left0_data);
;
L1C51:	jsr     decsp2
	lda     _temp_x
	ldy     #$01
	sta     (sp),y
	lda     _temp_y
	dey
	sta     (sp),y
	lda     #<(_gamesprites_smallduck2left0_data)
	ldx     #>(_gamesprites_smallduck2left0_data)
	jmp     _oam_meta_spr
;
; oam_meta_spr(temp_x, temp_y, gamesprites_smallduck2left1_data);
;
L1C57:	jsr     decsp2
	lda     _temp_x
	ldy     #$01
	sta     (sp),y
	lda     _temp_y
	dey
	sta     (sp),y
	lda     #<(_gamesprites_smallduck2left1_data)
	ldx     #>(_gamesprites_smallduck2left1_data)
	jmp     _oam_meta_spr
;
; oam_meta_spr(temp_x, temp_y, gamesprites_smallduck2left2_data);
;
L1C5D:	jsr     decsp2
	lda     _temp_x
	ldy     #$01
	sta     (sp),y
	lda     _temp_y
	dey
	sta     (sp),y
	lda     #<(_gamesprites_smallduck2left2_data)
	ldx     #>(_gamesprites_smallduck2left2_data)
	jmp     _oam_meta_spr

.endproc

; ---------------------------------------------------------------
; void __near__ movement (void)
; ---------------------------------------------------------------

.segment	"CODE"

.proc	_movement: near

.segment	"CODE"

;
; if ((current_player == 1 && stun_p1 > 0) ||
;
	lda     _current_player
	cmp     #$01
	bne     L27F0
	lda     _stun_p1
	bne     L27FC
;
; (current_player == 2 && stun_p2 > 0) ||
;
L27F0:	lda     _current_player
	cmp     #$02
	bne     L27F3
	lda     _stun_p2
	bne     L27FC
;
; (current_player == 3 && stun_p3 > 0) ||
;
L27F3:	lda     _current_player
	cmp     #$03
	bne     L27F6
	lda     _stun_p3
	bne     L27FC
;
; (current_player == 4 && stun_p4 > 0))
;
L27F6:	lda     _current_player
	cmp     #$04
	bne     L1E7C
	lda     _stun_p4
	beq     L1E7C
;
; return;
;
L27FC:	rts
;
; old_x = GenericBoxGuy.x;
;
L1E7C:	lda     _GenericBoxGuy+1
	sta     _old_x+1
	lda     _GenericBoxGuy
	sta     _old_x
;
; if (generic_pad & PAD_B)
;
	lda     _generic_pad
	and     #$40
	jeq     L2809
;
; if (current_player == 2 && quack2.moving == 0 && quack2_cooldown == 0)
;
	lda     _current_player
	cmp     #$02
	jne     L2803
	lda     _quack2+5
	jne     L2803
	lda     _quack2_cooldown
	jne     L2803
;
; quack2.x = GenericBoxGuy.x;
;
	lda     _GenericBoxGuy+1
	sta     _quack2+1
	lda     _GenericBoxGuy
	sta     _quack2
;
; quack2.y = GenericBoxGuy.y;
;
	lda     _GenericBoxGuy+2+1
	sta     _quack2+2+1
	lda     _GenericBoxGuy+2
	sta     _quack2+2
;
; quack2.direction = GenericBoxGuy.direction;
;
	lda     _GenericBoxGuy+4
	sta     _quack2+4
;
; quack2_cooldown = QUACK_COOLDOWN;
;
	lda     #$05
	sta     _quack2_cooldown
;
; if (quack2.direction == DIR_LEFT)
;
	lda     _quack2+4
	cmp     #$02
	bne     L27FF
;
; quack2.x -= 0x0800; // move it 1 block to the left;
;
	lda     _quack2
	sec
	sbc     #$00
	sta     _quack2
	lda     _quack2+1
	sbc     #$08
	sta     _quack2+1
;
; else if (quack2.direction == DIR_RIGHT)
;
	jmp     L2802
L27FF:	lda     _quack2+4
	cmp     #$03
	bne     L2800
;
; quack2.x += 0x0800;
;
	lda     #$00
	clc
	adc     _quack2
	sta     _quack2
	lda     #$08
	adc     _quack2+1
	sta     _quack2+1
;
; else if (quack2.direction == DIR_UP)
;
	jmp     L2802
L2800:	lda     _quack2+4
	bne     L2801
;
; quack2.y -= 0x0800;
;
	lda     _quack2+2
	sec
	sbc     #$00
	sta     _quack2+2
	lda     _quack2+2+1
	sbc     #$08
;
; else if (quack2.direction == DIR_DOWN)
;
	jmp     L283E
L2801:	lda     _quack2+4
	cmp     #$01
	bne     L2802
;
; quack2.y += 0x0800;
;
	lda     #$00
	clc
	adc     _quack2+2
	sta     _quack2+2
	lda     #$08
	adc     _quack2+2+1
L283E:	sta     _quack2+2+1
;
; quack2.moving = 1;
;
L2802:	lda     #$01
	sta     _quack2+5
;
; if (current_player == 4 && quack4.moving == 0 && quack4_cooldown == 0)
;
L2803:	lda     _current_player
	cmp     #$04
	jne     L2809
	lda     _quack4+5
	jne     L2809
	lda     _quack4_cooldown
	jne     L2809
;
; quack4.x = GenericBoxGuy.x;
;
	lda     _GenericBoxGuy+1
	sta     _quack4+1
	lda     _GenericBoxGuy
	sta     _quack4
;
; quack4.y = GenericBoxGuy.y;
;
	lda     _GenericBoxGuy+2+1
	sta     _quack4+2+1
	lda     _GenericBoxGuy+2
	sta     _quack4+2
;
; quack4.direction = GenericBoxGuy.direction;
;
	lda     _GenericBoxGuy+4
	sta     _quack4+4
;
; quack4.moving = 1;
;
	lda     #$01
	sta     _quack4+5
;
; quack4_cooldown = QUACK_COOLDOWN;
;
	lda     #$05
	sta     _quack4_cooldown
;
; if (quack4.direction == DIR_LEFT)
;
	lda     _quack4+4
	cmp     #$02
	bne     L2806
;
; quack4.x -= 0x0800; // move it 1 block to the left;
;
	lda     _quack4
	sec
	sbc     #$00
	sta     _quack4
	lda     _quack4+1
	sbc     #$08
	sta     _quack4+1
;
; else if (quack4.direction == DIR_RIGHT)
;
	jmp     L2809
L2806:	lda     _quack4+4
	cmp     #$03
	bne     L2807
;
; quack4.x += 0x0800;
;
	lda     #$00
	clc
	adc     _quack4
	sta     _quack4
	lda     #$08
	adc     _quack4+1
	sta     _quack4+1
;
; else if (quack4.direction == DIR_UP)
;
	jmp     L2809
L2807:	lda     _quack4+4
	bne     L2808
;
; quack4.y -= 0x0800;
;
	lda     _quack4+2
	sec
	sbc     #$00
	sta     _quack4+2
	lda     _quack4+2+1
	sbc     #$08
;
; else if (quack4.direction == DIR_DOWN)
;
	jmp     L283F
L2808:	lda     _quack4+4
	cmp     #$01
	bne     L2809
;
; quack4.y += 0x0800;
;
	lda     #$00
	clc
	adc     _quack4+2
	sta     _quack4+2
	lda     #$08
	adc     _quack4+2+1
L283F:	sta     _quack4+2+1
;
; if (generic_pad & PAD_A)
;
L2809:	lda     _generic_pad
	and     #$80
	beq     L1EE6
;
; if ((current_player == 1 && turbo_p1 > 0 && bee1_bigbee_timer == 0) ||
;
	lda     _current_player
	cmp     #$01
	bne     L280D
	lda     _turbo_p1
	beq     L280D
	lda     _bee1_bigbee_timer
	beq     L2847
;
; (current_player == 2 && turbo_p2 > 0) ||
;
L280D:	lda     _current_player
	cmp     #$02
	bne     L2810
	lda     _turbo_p2
	bne     L2847
;
; (current_player == 3 && turbo_p3 > 0 && bee3_bigbee_timer == 0) ||
;
L2810:	lda     _current_player
	cmp     #$03
	bne     L2814
	lda     _turbo_p3
	beq     L2814
	lda     _bee3_bigbee_timer
	beq     L2847
;
; (current_player == 4 && turbo_p4 > 0))
;
L2814:	lda     _current_player
	cmp     #$04
	bne     L1EE6
	lda     _turbo_p4
	beq     L1EE6
L2847:	lda     #$01
;
; use_turbo = 1;
;
	sta     _use_turbo
;
; switch (current_player)
;
	lda     _current_player
;
; }
;
	cmp     #$01
	beq     L281D
	cmp     #$02
	beq     L281E
	cmp     #$03
	beq     L281F
	cmp     #$04
	beq     L2820
	jmp     L1EE6
;
; turbo_p1--;
;
L281D:	dec     _turbo_p1
;
; break;
;
	jmp     L1EE6
;
; turbo_p2--;
;
L281E:	dec     _turbo_p2
;
; break;
;
	jmp     L1EE6
;
; turbo_p3--;
;
L281F:	dec     _turbo_p3
;
; break;
;
	jmp     L1EE6
;
; turbo_p4--;
;
L2820:	dec     _turbo_p4
;
; if (ducks_go_faster_over_time)
;
L1EE6:	lda     _ducks_go_faster_over_time
	beq     L1EF3
;
; if (current_player == 2 || current_player == 4)
;
	lda     _current_player
	cmp     #$02
	beq     L2821
	cmp     #$04
	bne     L1EF3
;
; current_speed = speed_option;
;
L2821:	lda     _speed_option+1
	sta     _current_speed+1
	lda     _speed_option
	sta     _current_speed
;
; if (game_timer > 80)
;
	lda     _game_timer
	cmp     #$51
	bcc     L2822
;
; current_speed -= DUCK_SPEED_LOW;
;
	lda     _current_speed
	sec
	sbc     #$14
	sta     _current_speed
	bcs     L1F13
	dec     _current_speed+1
;
; else if (game_timer > 20)
;
	jmp     L1F13
L2822:	lda     _game_timer
	cmp     #$15
;
; else if (game_timer > 10)
;
	bcs     L1EF3
	cmp     #$0B
	bcc     L2824
;
; current_speed += DUCK_SPEED_HIGH;
;
	lda     #$14
	clc
	adc     _current_speed
	sta     _current_speed
	bcc     L1F13
	inc     _current_speed+1
;
; else if (game_timer > 0)
;
	jmp     L1F13
L2824:	lda     _game_timer
	beq     L1F13
;
; current_speed += DUCK_SPEED_MAX;
;
	lda     #$28
	clc
	adc     _current_speed
	sta     _current_speed
	bcc     L1F13
	inc     _current_speed+1
;
; else
;
	jmp     L1F13
;
; current_speed = speed_option; // feature disabled, all normal speed
;
L1EF3:	lda     _speed_option+1
	sta     _current_speed+1
	lda     _speed_option
	sta     _current_speed
;
; if (bee1_bigbee_timer > 0 && current_player == 1)
;
L1F13:	lda     _bee1_bigbee_timer
	beq     L2829
	lda     _current_player
	cmp     #$01
	bne     L2829
;
; current_speed += (current_speed >> 2); // big bee boost
;
	lda     _current_speed
	ldx     _current_speed+1
	jsr     asrax2
	clc
	adc     _current_speed
	sta     _current_speed
	txa
	adc     _current_speed+1
	sta     _current_speed+1
;
; if (bee3_bigbee_timer > 0 && current_player == 3)
;
L2829:	lda     _bee3_bigbee_timer
	beq     L282D
	lda     _current_player
	cmp     #$03
	bne     L282D
;
; current_speed += (current_speed >> 2); // big bee boost
;
	lda     _current_speed
	ldx     _current_speed+1
	jsr     asrax2
	clc
	adc     _current_speed
	sta     _current_speed
	txa
	adc     _current_speed+1
	sta     _current_speed+1
;
; if (generic_pad & PAD_LEFT)
;
L282D:	lda     _generic_pad
	and     #$02
	beq     L282F
;
; hero_velocity_x = -current_speed;
;
	lda     _current_speed
	ldx     _current_speed+1
	jsr     negax
	sta     _hero_velocity_x
	stx     _hero_velocity_x+1
;
; if (use_turbo == 1)
;
	lda     _use_turbo
	cmp     #$01
	bne     L282E
;
; hero_velocity_x -= SPEED_TURBO_BOOST; // add turbo boost
;
	lda     _hero_velocity_x
	sec
	sbc     #$60
	sta     _hero_velocity_x
	bcs     L1F2C
	dec     _hero_velocity_x+1
;
; use_turbo = 0;            // reset turbo flag
;
L1F2C:	lda     #$00
	sta     _use_turbo
;
; GenericBoxGuy.direction = DIR_LEFT;
;
L282E:	lda     #$02
	sta     _GenericBoxGuy+4
;
; else if (generic_pad & PAD_RIGHT)
;
	jmp     L1F3F
L282F:	lda     _generic_pad
	and     #$01
	beq     L2832
;
; hero_velocity_x = current_speed;
;
	lda     _current_speed+1
	sta     _hero_velocity_x+1
	lda     _current_speed
	sta     _hero_velocity_x
;
; if (use_turbo == 1)
;
	lda     _use_turbo
	cmp     #$01
	bne     L2830
;
; hero_velocity_x += SPEED_TURBO_BOOST; // add turbo boost
;
	lda     #$60
	clc
	adc     _hero_velocity_x
	sta     _hero_velocity_x
	bcc     L1F3A
	inc     _hero_velocity_x+1
;
; use_turbo = 0;            // reset turbo flag
;
L1F3A:	lda     #$00
	sta     _use_turbo
;
; GenericBoxGuy.direction = DIR_RIGHT;
;
L2830:	lda     #$03
	sta     _GenericBoxGuy+4
;
; else
;
	jmp     L1F3F
;
; hero_velocity_x = 0;
;
L2832:	sta     _hero_velocity_x
	sta     _hero_velocity_x+1
;
; GenericBoxGuy.x += hero_velocity_x;
;
L1F3F:	lda     _hero_velocity_x
	clc
	adc     _GenericBoxGuy
	sta     _GenericBoxGuy
	lda     _hero_velocity_x+1
	adc     _GenericBoxGuy+1
	sta     _GenericBoxGuy+1
;
; if (GenericBoxGuy.x > 0xf000)
;
	lda     _GenericBoxGuy
	cmp     #$01
	lda     _GenericBoxGuy+1
	sbc     #$F0
	bcc     L2835
;
; if (old_x >= 0x8000)
;
	lda     _old_x
	cmp     #$00
	lda     _old_x+1
	sbc     #$80
	lda     #$00
	tax
	bcc     L2834
;
; GenericBoxGuy.x = 0xf000; // max right
;
	ldx     #$F0
;
; GenericBoxGuy.x = 0x0000; // max left
;
L2834:	sta     _GenericBoxGuy
	stx     _GenericBoxGuy+1
;
; Generic.x = GenericBoxGuy.x >> 8; // the collision routine needs an 8 bit value
;
L2835:	lda     _GenericBoxGuy+1
	sta     _Generic
;
; Generic.y = GenericBoxGuy.y >> 8;
;
	lda     _GenericBoxGuy+3
	sta     _Generic+1
;
; Generic.width = HERO_WIDTH;
;
	lda     #$06
	sta     _Generic+2
;
; Generic.height = HERO_HEIGHT;
;
	sta     _Generic+3
;
; if (hero_velocity_x < 0)
;
	ldx     _hero_velocity_x+1
	cpx     #$80
	bcc     L1F55
;
; if (bg_coll_L())
;
	jsr     _bg_coll_L
;
; else if (hero_velocity_x > 0)
;
	jmp     L284E
L1F55:	lda     _hero_velocity_x
	cmp     #$01
	lda     _hero_velocity_x+1
	sbc     #$00
	bvs     L1F5E
	eor     #$80
L1F5E:	bpl     L1F5F
;
; if (bg_coll_R())
;
	jsr     _bg_coll_R
L284E:	tax
	beq     L1F5F
;
; GenericBoxGuy.x = old_x; // revert to old position
;
	lda     _old_x+1
	sta     _GenericBoxGuy+1
	lda     _old_x
	sta     _GenericBoxGuy
;
; old_y = GenericBoxGuy.y;
;
L1F5F:	lda     _GenericBoxGuy+2+1
	sta     _old_y+1
	lda     _GenericBoxGuy+2
	sta     _old_y
;
; if (generic_pad & PAD_UP)
;
	lda     _generic_pad
	and     #$08
	beq     L2837
;
; hero_velocity_y = -current_speed;
;
	lda     _current_speed
	ldx     _current_speed+1
	jsr     negax
	sta     _hero_velocity_y
	stx     _hero_velocity_y+1
;
; if (use_turbo == 1)
;
	lda     _use_turbo
	cmp     #$01
	bne     L2836
;
; hero_velocity_y -= SPEED_TURBO_BOOST; // add turbo boost
;
	lda     _hero_velocity_y
	sec
	sbc     #$60
	sta     _hero_velocity_y
	bcs     L1F6D
	dec     _hero_velocity_y+1
;
; use_turbo = 0;            // reset turbo flag
;
L1F6D:	lda     #$00
	sta     _use_turbo
;
; GenericBoxGuy.direction = DIR_UP; // entually we'll set up and down but not now.
;
L2836:	lda     #$00
	sta     _GenericBoxGuy+4
;
; else if (generic_pad & PAD_DOWN)
;
	jmp     L1F80
L2837:	lda     _generic_pad
	and     #$04
	beq     L283A
;
; hero_velocity_y = current_speed;
;
	lda     _current_speed+1
	sta     _hero_velocity_y+1
	lda     _current_speed
	sta     _hero_velocity_y
;
; if (use_turbo == 1)
;
	lda     _use_turbo
	cmp     #$01
	bne     L2838
;
; hero_velocity_y += SPEED_TURBO_BOOST; // add turbo boost
;
	lda     #$60
	clc
	adc     _hero_velocity_y
	sta     _hero_velocity_y
	bcc     L1F7B
	inc     _hero_velocity_y+1
;
; use_turbo = 0;            // reset turbo flag
;
L1F7B:	lda     #$00
	sta     _use_turbo
;
; GenericBoxGuy.direction = DIR_DOWN;
;
L2838:	lda     #$01
	sta     _GenericBoxGuy+4
;
; else
;
	jmp     L1F80
;
; hero_velocity_y = 0;
;
L283A:	sta     _hero_velocity_y
	sta     _hero_velocity_y+1
;
; GenericBoxGuy.y += hero_velocity_y;
;
L1F80:	lda     _hero_velocity_y
	clc
	adc     _GenericBoxGuy+2
	sta     _GenericBoxGuy+2
	lda     _hero_velocity_y+1
	adc     _GenericBoxGuy+2+1
	sta     _GenericBoxGuy+2+1
;
; if (GenericBoxGuy.y > 0xe000)
;
	lda     _GenericBoxGuy+2
	cmp     #$01
	lda     _GenericBoxGuy+2+1
	sbc     #$E0
	bcc     L283D
;
; if (old_y >= 0x8000)
;
	lda     _old_y
	cmp     #$00
	lda     _old_y+1
	sbc     #$80
	lda     #$00
	tax
	bcc     L283C
;
; GenericBoxGuy.y = 0xe000; // max down
;
	ldx     #$E0
;
; GenericBoxGuy.y = 0x0000; // max up
;
L283C:	sta     _GenericBoxGuy+2
	stx     _GenericBoxGuy+2+1
;
; Generic.x = GenericBoxGuy.x >> 8; // the collision routine needs an 8 bit value
;
L283D:	lda     _GenericBoxGuy+1
	sta     _Generic
;
; Generic.y = GenericBoxGuy.y >> 8;
;
	lda     _GenericBoxGuy+3
	sta     _Generic+1
;
; if (hero_velocity_y < 0)
;
	ldx     _hero_velocity_y+1
	cpx     #$80
	bcc     L1F92
;
; if (bg_coll_U())
;
	jsr     _bg_coll_U
;
; else if (hero_velocity_y > 0)
;
	jmp     L284F
L1F92:	lda     _hero_velocity_y
	cmp     #$01
	lda     _hero_velocity_y+1
	sbc     #$00
	bvs     L1F9B
	eor     #$80
L1F9B:	bpl     L1F9C
;
; if (bg_coll_D())
;
	jsr     _bg_coll_D
L284F:	tax
	beq     L1F9C
;
; GenericBoxGuy.y = old_y; // revert to old position
;
	lda     _old_y+1
	sta     _GenericBoxGuy+2+1
	lda     _old_y
	sta     _GenericBoxGuy+2
;
; check_tile_and_collect();
;
L1F9C:	jmp     _check_tile_and_collect

.endproc

; ---------------------------------------------------------------
; void __near__ check_tile_and_collect (void)
; ---------------------------------------------------------------

.segment	"CODE"

.proc	_check_tile_and_collect: near

.segment	"CODE"

;
; if (current_player != 1 && current_player != 3)
;
	ldx     #$00
	lda     _current_player
	cmp     #$01
	beq     L2855
	cmp     #$03
	beq     L2855
;
; return; // Chasers cannot collect dots
;
	rts
;
; temp_x = (Generic.x + 4) >> 3; // get this between 0-30
;
L2855:	lda     _Generic
	clc
	adc     #$04
	bcc     L202C
	inx
L202C:	jsr     shrax3
	sta     _temp_x
;
; temp_y = (Generic.y + 2) >> 3; // get this between 0-32
;
	ldx     #$00
	lda     _Generic+1
	clc
	adc     #$02
	bcc     L2030
	inx
L2030:	jsr     shrax3
	sta     _temp_y
;
; largeindex = (temp_y << 5) + temp_x;
;
	ldx     #$00
	lda     _temp_y
	jsr     aslax4
	stx     tmp1
	asl     a
	rol     tmp1
	ldx     tmp1
	clc
	adc     _temp_x
	bcc     L2850
	inx
L2850:	sta     _largeindex
	stx     _largeindex+1
;
; temp = map_ptr[largeindex];
;
	lda     _map_ptr
	clc
	adc     _largeindex
	sta     ptr1
	lda     _map_ptr+1
	adc     _largeindex+1
	sta     ptr1+1
	ldy     #$00
	lda     (ptr1),y
	sta     _temp
;
; for (index = 0; index < sizeof(pellet_tiles); index++)
;
	sty     _index
L2856:	lda     _index
	cmp     #$06
	bcc     L2858
;
; }
;
	rts
;
; if (temp == pellet_tiles[index])
;
L2858:	ldy     _index
	lda     _pellet_tiles,y
	cmp     _temp
	jne     L2040
;
; if (!is_dot_consumed(largeindex))
;
	lda     _largeindex
	ldx     _largeindex+1
	jsr     _is_dot_consumed
	tax
	beq     L2859
;
; }
;
	rts
;
; mark_dot_consumed(largeindex);
;
L2859:	lda     _largeindex
	ldx     _largeindex+1
	jsr     _mark_dot_consumed
;
; one_vram_buffer(0x00, NTADR_A(temp_x, temp_y)); // TODO: this is just a blank tile, not as fun as the updated backgrounds
;
	lda     #$00
	jsr     pusha
	tax
	lda     _temp_y
	jsr     aslax4
	stx     tmp1
	asl     a
	rol     tmp1
	sta     ptr1
	lda     _temp_x
	ora     ptr1
	pha
	lda     tmp1
	ora     #$20
	tax
	pla
	jsr     _one_vram_buffer
;
; if (current_player == 1)
;
	lda     _current_player
	cmp     #$01
	bne     L2857
;
; sfx_play(SFX_TEAM1_DOT_COLLECT, 0);
;
	lda     #$00
	jsr     pusha
	jsr     _sfx_play
;
; team1_score++;
;
	inc     _team1_score
;
; if (team1_score >= 100)
;
	lda     _team1_score
	cmp     #$64
	bcc     L2068
;
; sfx_play(SFX_TEAM1_WIN, 0);
;
	lda     #$02
	jsr     pusha
	lda     #$00
	jsr     _sfx_play
;
; winner = ONETWO_WINNER;
;
	lda     #$01
	sta     _winner
;
; win_reason = WIN_HONEY_COLLECTED;
;
	lda     #$20
	sta     _win_reason
;
; init_roundover();
;
	jmp     _init_roundover
;
; else if (current_player == 3)
;
L2857:	lda     _current_player
	cmp     #$03
	bne     L2038
;
; sfx_play(SFX_TEAM2_DOT_COLLECT, 0);
;
	lda     #$01
	jsr     pusha
	lda     #$00
	jsr     _sfx_play
;
; team2_score++;
;
	inc     _team2_score
;
; if (team2_score >= 100)
;
	lda     _team2_score
	cmp     #$64
	bcc     L2038
;
; sfx_play(SFX_TEAM2_WIN, 0);
;
	lda     #$03
	jsr     pusha
	lda     #$00
	jsr     _sfx_play
;
; winner = THREEFOUR_WINNER;
;
	lda     #$02
	sta     _winner
;
; win_reason = WIN_HONEY_COLLECTED;
;
	lda     #$20
	sta     _win_reason
;
; init_roundover();
;
	jmp     _init_roundover
;
; break;
;
L2068:	rts
;
; else if (temp == blank_tiles[index])
;
L2040:	ldy     _index
	lda     _blank_tiles,y
	cmp     _temp
;
; break;
;
	beq     L2038
;
; for (index = 0; index < sizeof(pellet_tiles); index++)
;
	inc     _index
	jmp     L2856
;
; }
;
L2038:	rts

.endproc

; ---------------------------------------------------------------
; void __near__ draw_hud (void)
; ---------------------------------------------------------------

.segment	"CODE"

.proc	_draw_hud: near

.segment	"CODE"

;
; temp1 = (team1_score / 10) + 0x30;
;
	lda     _team1_score
	jsr     pusha0
	lda     #$0A
	jsr     tosudiva0
	clc
	adc     #$30
	sta     _temp1
;
; one_vram_buffer(temp1, NTADR_A(6, 1));
;
	jsr     pusha
	ldx     #$20
	lda     #$26
	jsr     _one_vram_buffer
;
; temp1 = (team1_score % 10) + 0x30;
;
	lda     _team1_score
	jsr     pusha0
	lda     #$0A
	jsr     tosumoda0
	clc
	adc     #$30
	sta     _temp1
;
; one_vram_buffer(temp1, NTADR_A(7, 1));
;
	jsr     pusha
	ldx     #$20
	lda     #$27
	jsr     _one_vram_buffer
;
; temp1 = (game_timer / 10) + 0x30;
;
	lda     _game_timer
	jsr     pusha0
	lda     #$0A
	jsr     tosudiva0
	clc
	adc     #$30
	sta     _temp1
;
; one_vram_buffer(temp1, NTADR_A(15, 1));
;
	jsr     pusha
	ldx     #$20
	lda     #$2F
	jsr     _one_vram_buffer
;
; temp1 = (game_timer % 10) + 0x30;
;
	lda     _game_timer
	jsr     pusha0
	lda     #$0A
	jsr     tosumoda0
	clc
	adc     #$30
	sta     _temp1
;
; one_vram_buffer(temp1, NTADR_A(16, 1));
;
	jsr     pusha
	ldx     #$20
	lda     #$30
	jsr     _one_vram_buffer
;
; temp1 = (team2_score / 10) + 0x30;
;
	lda     _team2_score
	jsr     pusha0
	lda     #$0A
	jsr     tosudiva0
	clc
	adc     #$30
	sta     _temp1
;
; one_vram_buffer(temp1, NTADR_A(24, 1));
;
	jsr     pusha
	ldx     #$20
	lda     #$38
	jsr     _one_vram_buffer
;
; temp1 = (team2_score % 10) + 0x30;
;
	lda     _team2_score
	jsr     pusha0
	lda     #$0A
	jsr     tosumoda0
	clc
	adc     #$30
	sta     _temp1
;
; one_vram_buffer(temp1, NTADR_A(25, 1));
;
	jsr     pusha
	ldx     #$20
	lda     #$39
	jmp     _one_vram_buffer

.endproc

; ---------------------------------------------------------------
; void __near__ read_controllers (void)
; ---------------------------------------------------------------

.segment	"CODE"

.proc	_read_controllers: near

.segment	"CODE"

;
; doublepad = pad_poll_4score_1_3();
;
	jsr     _pad_poll_4score_1_3
	sta     _doublepad
	stx     _doublepad+1
;
; pad1 = high_byte(doublepad); // the high byte is the first controller's input
;
	lda     _doublepad+1
	sta     _pad1
;
; pad3 = low_byte(doublepad);  // low byte is the third controller's input
;
	lda     _doublepad
	sta     _pad3
;
; doublepad = pad_poll_4score_2_4();
;
	jsr     _pad_poll_4score_2_4
	sta     _doublepad
	stx     _doublepad+1
;
; pad2 = high_byte(doublepad);
;
	lda     _doublepad+1
	sta     _pad2
;
; pad4 = low_byte(doublepad);
;
	lda     _doublepad
	sta     _pad4
;
; pad1_new = pad1 & (pad1 ^ prev_pad1);
;
	lda     _prev_pad1
	eor     _pad1
	and     _pad1
	sta     _pad1_new
;
; pad2_new = pad2 & (pad2 ^ prev_pad2);
;
	lda     _prev_pad2
	eor     _pad2
	and     _pad2
	sta     _pad2_new
;
; pad3_new = pad3 & (pad3 ^ prev_pad3);
;
	lda     _prev_pad3
	eor     _pad3
	and     _pad3
	sta     _pad3_new
;
; pad4_new = pad4 & (pad4 ^ prev_pad4);
;
	lda     _prev_pad4
	eor     _pad4
	and     _pad4
	sta     _pad4_new
;
; prev_pad1 = pad1;
;
	lda     _pad1
	sta     _prev_pad1
;
; prev_pad2 = pad2;
;
	lda     _pad2
	sta     _prev_pad2
;
; prev_pad3 = pad3;
;
	lda     _pad3
	sta     _prev_pad3
;
; prev_pad4 = pad4;
;
	lda     _pad4
	sta     _prev_pad4
;
; }
;
	rts

.endproc

; ---------------------------------------------------------------
; void __near__ player4_ai (void)
; ---------------------------------------------------------------

.segment	"CODE"

.proc	_player4_ai: near

.segment	"CODE"

;
; if (frame_counter % 32 == 0) // every 32 frames make a new move
;
	lda     _frame_counter
	and     #$1F
	bne     L285B
;
; player4_ai_ready = 1;
;
	lda     #$01
	sta     _player4_ai_ready
;
; if (player4_ai_ready == 1)
;
L285B:	lda     _player4_ai_ready
	cmp     #$01
	bne     L285F
;
; ++ai_counter;
;
	inc     _ai_counter
;
; temp_x = BoxGuy4.x >> 8;
;
	lda     _BoxGuy4+1
	sta     _temp_x
;
; temp_y = BoxGuy4.y >> 8;
;
	lda     _BoxGuy4+3
	sta     _temp_y
;
; temp_x2 = BoxGuy1.x >> 8;
;
	lda     _BoxGuy1+1
	sta     _temp_x2
;
; temp_y2 = BoxGuy1.y >> 8;
;
	lda     _BoxGuy1+3
	sta     _temp_y2
;
; if (ai_counter % 2 == 1)
;
	lda     _ai_counter
	and     #$01
	cmp     #$01
	bne     L285D
;
; if (temp_x < temp_x2)
;
	lda     _temp_x
	cmp     _temp_x2
	bcs     L285C
;
; pad4_ai = PAD_RIGHT;
;
	lda     #$01
;
; else if (temp_x >= temp_x2)
;
	jmp     L285A
L285C:	lda     _temp_x
	cmp     _temp_x2
	bcc     L285F
;
; pad4_ai = PAD_LEFT;
;
	lda     #$02
;
; else
;
	jmp     L285A
;
; if (temp_y < temp_y2)
;
L285D:	lda     _temp_y
	cmp     _temp_y2
	bcs     L285E
;
; pad4_ai = PAD_DOWN;
;
	lda     #$04
;
; else if (temp_y >= temp_y2)
;
	jmp     L285A
L285E:	lda     _temp_y
	cmp     _temp_y2
	bcc     L285F
;
; pad4_ai = PAD_UP;
;
	lda     #$08
L285A:	sta     _pad4_ai
;
; pad4 = pad4_ai;
;
L285F:	lda     _pad4_ai
	sta     _pad4
;
; }
;
	rts

.endproc

; ---------------------------------------------------------------
; void __near__ chaser_ai (void)
; ---------------------------------------------------------------

.segment	"CODE"

.proc	_chaser_ai: near

.segment	"CODE"

;
; }
;
	rts

.endproc

; ---------------------------------------------------------------
; void __near__ game_loop (void)
; ---------------------------------------------------------------

.segment	"CODE"

.proc	_game_loop: near

.segment	"CODE"

;
; ppu_wait_nmi();
;
	jsr     _ppu_wait_nmi
;
; game_counters();
;
	jsr     _game_counters
;
; read_controllers();
;
	jsr     _read_controllers
;
; quack_movement();
;
	jsr     _quack_movement
;
; current_player = 1;
;
	lda     #$01
	sta     _current_player
;
; GenericBoxGuy = BoxGuy1;
;
	lda     #<(_GenericBoxGuy)
	ldx     #>(_GenericBoxGuy)
	jsr     pushax
	lda     #<(_BoxGuy1)
	ldx     #>(_BoxGuy1)
	jsr     pushax
	ldx     #$00
	lda     #$06
	jsr     _memcpy
;
; generic_pad = pad1;
;
	lda     _pad1
	sta     _generic_pad
;
; movement();                  // this assigns old_x and old_y
;
	jsr     _movement
;
; BoxGuy1.direction = GenericBoxGuy.direction; // keep direction updated for animation
;
	lda     _GenericBoxGuy+4
	sta     _BoxGuy1+4
;
; temp_x = GenericBoxGuy.x >> 8;
;
	lda     _GenericBoxGuy+1
	sta     _temp_x
;
; temp_y = GenericBoxGuy.y >> 8;
;
	lda     _GenericBoxGuy+3
	sta     _temp_y
;
; temp_x2 = BoxGuy3.x >> 8;
;
	lda     _BoxGuy3+1
	sta     _temp_x2
;
; temp_y2 = BoxGuy3.y >> 8;
;
	lda     _BoxGuy3+3
	sta     _temp_y2
;
; if (sprite_collision()) // 1 and 3, both seekers
;
	jsr     _sprite_collision
	tax
	beq     L213B
;
; BoxGuy1.x = old_x;
;
	lda     _old_x+1
	sta     _BoxGuy1+1
	lda     _old_x
	sta     _BoxGuy1
;
; BoxGuy1.y = old_y;
;
	lda     _old_y+1
	sta     _BoxGuy1+2+1
	lda     _old_y
;
; else
;
	jmp     L2860
;
; BoxGuy1.x = GenericBoxGuy.x;
;
L213B:	lda     _GenericBoxGuy+1
	sta     _BoxGuy1+1
	lda     _GenericBoxGuy
	sta     _BoxGuy1
;
; BoxGuy1.y = GenericBoxGuy.y;
;
	lda     _GenericBoxGuy+2+1
	sta     _BoxGuy1+2+1
	lda     _GenericBoxGuy+2
L2860:	sta     _BoxGuy1+2
;
; current_player = 2;
;
	lda     #$02
	sta     _current_player
;
; GenericBoxGuy = BoxGuy2;
;
	lda     #<(_GenericBoxGuy)
	ldx     #>(_GenericBoxGuy)
	jsr     pushax
	lda     #<(_BoxGuy2)
	ldx     #>(_BoxGuy2)
	jsr     pushax
	ldx     #$00
	lda     #$06
	jsr     _memcpy
;
; generic_pad = pad2;
;
	lda     _pad2
	sta     _generic_pad
;
; movement();
;
	jsr     _movement
;
; BoxGuy2.direction = GenericBoxGuy.direction; // keep direction updated for animation
;
	lda     _GenericBoxGuy+4
	sta     _BoxGuy2+4
;
; if (!(pad2 & (PAD_LEFT | PAD_RIGHT | PAD_UP | PAD_DOWN)))
;
	lda     _pad2
	and     #$0F
;
; else
;
	beq     L2861
;
; BoxGuy2.moving = 1;
;
	lda     #$01
L2861:	sta     _BoxGuy2+5
;
; temp_x = GenericBoxGuy.x >> 8;
;
	lda     _GenericBoxGuy+1
	sta     _temp_x
;
; temp_y = GenericBoxGuy.y >> 8;
;
	lda     _GenericBoxGuy+3
	sta     _temp_y
;
; temp_x2 = BoxGuy4.x >> 8;
;
	lda     _BoxGuy4+1
	sta     _temp_x2
;
; temp_y2 = BoxGuy4.y >> 8;
;
	lda     _BoxGuy4+3
	sta     _temp_y2
;
; if (sprite_collision()) // player 2 blocks player 4 (chasers)
;
	jsr     _sprite_collision
	tax
	beq     L2160
;
; BoxGuy2.x = old_x;
;
	lda     _old_x+1
	sta     _BoxGuy2+1
	lda     _old_x
	sta     _BoxGuy2
;
; BoxGuy2.y = old_y;
;
	lda     _old_y+1
	sta     _BoxGuy2+2+1
	lda     _old_y
;
; else
;
	jmp     L2862
;
; BoxGuy2.x = GenericBoxGuy.x;
;
L2160:	lda     _GenericBoxGuy+1
	sta     _BoxGuy2+1
	lda     _GenericBoxGuy
	sta     _BoxGuy2
;
; BoxGuy2.y = GenericBoxGuy.y;
;
	lda     _GenericBoxGuy+2+1
	sta     _BoxGuy2+2+1
	lda     _GenericBoxGuy+2
L2862:	sta     _BoxGuy2+2
;
; current_player = 3;
;
	lda     #$03
	sta     _current_player
;
; GenericBoxGuy = BoxGuy3;
;
	lda     #<(_GenericBoxGuy)
	ldx     #>(_GenericBoxGuy)
	jsr     pushax
	lda     #<(_BoxGuy3)
	ldx     #>(_BoxGuy3)
	jsr     pushax
	ldx     #$00
	lda     #$06
	jsr     _memcpy
;
; generic_pad = pad3;
;
	lda     _pad3
	sta     _generic_pad
;
; movement();
;
	jsr     _movement
;
; BoxGuy3.direction = GenericBoxGuy.direction; // keep direction updated for animation
;
	lda     _GenericBoxGuy+4
	sta     _BoxGuy3+4
;
; temp_x = BoxGuy1.x >> 8;
;
	lda     _BoxGuy1+1
	sta     _temp_x
;
; temp_y = BoxGuy1.y >> 8;
;
	lda     _BoxGuy1+3
	sta     _temp_y
;
; temp_x2 = GenericBoxGuy.x >> 8;
;
	lda     _GenericBoxGuy+1
	sta     _temp_x2
;
; temp_y2 = GenericBoxGuy.y >> 8;
;
	lda     _GenericBoxGuy+3
	sta     _temp_y2
;
; if (sprite_collision()) // 1 blocks 3 (seekers)
;
	jsr     _sprite_collision
	tax
	beq     L217C
;
; BoxGuy3.x = old_x;
;
	lda     _old_x+1
	sta     _BoxGuy3+1
	lda     _old_x
	sta     _BoxGuy3
;
; BoxGuy3.y = old_y;
;
	lda     _old_y+1
	sta     _BoxGuy3+2+1
	lda     _old_y
;
; else
;
	jmp     L2863
;
; BoxGuy3.x = GenericBoxGuy.x;
;
L217C:	lda     _GenericBoxGuy+1
	sta     _BoxGuy3+1
	lda     _GenericBoxGuy
	sta     _BoxGuy3
;
; BoxGuy3.y = GenericBoxGuy.y;
;
	lda     _GenericBoxGuy+2+1
	sta     _BoxGuy3+2+1
	lda     _GenericBoxGuy+2
L2863:	sta     _BoxGuy3+2
;
; current_player = 4;
;
	lda     #$04
	sta     _current_player
;
; GenericBoxGuy = BoxGuy4;
;
	lda     #<(_GenericBoxGuy)
	ldx     #>(_GenericBoxGuy)
	jsr     pushax
	lda     #<(_BoxGuy4)
	ldx     #>(_BoxGuy4)
	jsr     pushax
	ldx     #$00
	lda     #$06
	jsr     _memcpy
;
; generic_pad = pad4;
;
	lda     _pad4
	sta     _generic_pad
;
; movement();
;
	jsr     _movement
;
; BoxGuy4.direction = GenericBoxGuy.direction; // keep direction updated for animation
;
	lda     _GenericBoxGuy+4
	sta     _BoxGuy4+4
;
; if (!(pad4 & (PAD_LEFT | PAD_RIGHT | PAD_UP | PAD_DOWN)))
;
	lda     _pad4
	and     #$0F
;
; else
;
	beq     L2864
;
; BoxGuy4.moving = 1;
;
	lda     #$01
L2864:	sta     _BoxGuy4+5
;
; temp_x = BoxGuy2.x >> 8;
;
	lda     _BoxGuy2+1
	sta     _temp_x
;
; temp_y = BoxGuy2.y >> 8;
;
	lda     _BoxGuy2+3
	sta     _temp_y
;
; temp_x2 = GenericBoxGuy.x >> 8;
;
	lda     _GenericBoxGuy+1
	sta     _temp_x2
;
; temp_y2 = GenericBoxGuy.y >> 8;
;
	lda     _GenericBoxGuy+3
	sta     _temp_y2
;
; if (sprite_collision()) // 2 blocks 4 (seekers)
;
	jsr     _sprite_collision
	tax
	beq     L21A1
;
; BoxGuy4.x = old_x;
;
	lda     _old_x+1
	sta     _BoxGuy4+1
	lda     _old_x
	sta     _BoxGuy4
;
; BoxGuy4.y = old_y;
;
	lda     _old_y+1
	sta     _BoxGuy4+2+1
	lda     _old_y
;
; else
;
	jmp     L2865
;
; BoxGuy4.x = GenericBoxGuy.x;
;
L21A1:	lda     _GenericBoxGuy+1
	sta     _BoxGuy4+1
	lda     _GenericBoxGuy
	sta     _BoxGuy4
;
; BoxGuy4.y = GenericBoxGuy.y;
;
	lda     _GenericBoxGuy+2+1
	sta     _BoxGuy4+2+1
	lda     _GenericBoxGuy+2
L2865:	sta     _BoxGuy4+2
;
; if (bee1_bigbee_timer == 0)
;
	lda     _bee1_bigbee_timer
	bne     L2868
;
; temp_x = BoxGuy1.x >> 8;
;
	lda     _BoxGuy1+1
	sta     _temp_x
;
; temp_y = BoxGuy1.y >> 8;
;
	lda     _BoxGuy1+3
	sta     _temp_y
;
; temp = 1; // which bee are we checking
;
	lda     #$01
	sta     _temp
;
; check_powerup();
;
	jsr     _check_powerup
;
; if (bee3_bigbee_timer == 0)
;
L2868:	lda     _bee3_bigbee_timer
	bne     L2869
;
; temp_x = BoxGuy3.x >> 8;
;
	lda     _BoxGuy3+1
	sta     _temp_x
;
; temp_y = BoxGuy3.y >> 8;
;
	lda     _BoxGuy3+3
	sta     _temp_y
;
; temp = 3;
;
	lda     #$03
	sta     _temp
;
; check_powerup();
;
	jsr     _check_powerup
;
; if (bee1_bigbee_timer > 0)
;
L2869:	lda     _bee1_bigbee_timer
	beq     L286B
;
; temp_x = BoxGuy1.x >> 8;
;
	lda     _BoxGuy1+1
	sta     _temp_x
;
; temp_y = BoxGuy1.y >> 8;
;
	lda     _BoxGuy1+3
	sta     _temp_y
;
; temp_x2 = BoxGuy2.x >> 8;
;
	lda     _BoxGuy2+1
	sta     _temp_x2
;
; temp_y2 = BoxGuy2.y >> 8;
;
	lda     _BoxGuy2+3
	sta     _temp_y2
;
; if (sprite_collision())
;
	jsr     _sprite_collision
	tax
	beq     L286A
;
; sfx_play(SFX_TEAM2_WIN, 0);
;
	lda     #$03
	jsr     pusha
	lda     #$00
	jsr     _sfx_play
;
; winner = THREEFOUR_WINNER;
;
	lda     #$02
	sta     _winner
;
; win_reason = WIN_FRIENDLY_FIRE_DUCK_EATEN;
;
	lda     #$08
	sta     _win_reason
;
; init_roundover();
;
	jmp     _init_roundover
;
; temp_x2 = BoxGuy4.x >> 8;
;
L286A:	lda     _BoxGuy4+1
	sta     _temp_x2
;
; temp_y2 = BoxGuy4.y >> 8;
;
	lda     _BoxGuy4+3
	sta     _temp_y2
;
; if (sprite_collision())
;
	jsr     _sprite_collision
	tax
	beq     L286B
;
; sfx_play(SFX_TEAM1_WIN, 0);
;
	lda     #$02
	jsr     pusha
	lda     #$00
	jsr     _sfx_play
;
; winner = ONETWO_WINNER;
;
	lda     #$01
	sta     _winner
;
; win_reason = WIN_DUCK_EATEN;
;
	lda     #$02
	sta     _win_reason
;
; init_roundover();
;
	jmp     _init_roundover
;
; if (bee3_bigbee_timer > 0)
;
L286B:	lda     _bee3_bigbee_timer
	beq     L286D
;
; temp_x = BoxGuy3.x >> 8;
;
	lda     _BoxGuy3+1
	sta     _temp_x
;
; temp_y = BoxGuy3.y >> 8;
;
	lda     _BoxGuy3+3
	sta     _temp_y
;
; temp_x2 = BoxGuy4.x >> 8;
;
	lda     _BoxGuy4+1
	sta     _temp_x2
;
; temp_y2 = BoxGuy4.y >> 8;
;
	lda     _BoxGuy4+3
	sta     _temp_y2
;
; if (sprite_collision())
;
	jsr     _sprite_collision
	tax
	beq     L286C
;
; sfx_play(SFX_TEAM1_WIN, 0);
;
	lda     #$02
	jsr     pusha
	lda     #$00
	jsr     _sfx_play
;
; winner = ONETWO_WINNER;
;
	lda     #$01
	sta     _winner
;
; win_reason = WIN_FRIENDLY_FIRE_DUCK_EATEN;
;
	lda     #$08
	sta     _win_reason
;
; init_roundover();
;
	jmp     _init_roundover
;
; temp_x2 = BoxGuy2.x >> 8;
;
L286C:	lda     _BoxGuy2+1
	sta     _temp_x2
;
; temp_y2 = BoxGuy2.y >> 8;
;
	lda     _BoxGuy2+3
	sta     _temp_y2
;
; if (sprite_collision())
;
	jsr     _sprite_collision
	tax
	beq     L286D
;
; sfx_play(SFX_TEAM2_WIN, 0);
;
	lda     #$03
	jsr     pusha
	lda     #$00
	jsr     _sfx_play
;
; winner = THREEFOUR_WINNER;
;
	lda     #$02
	sta     _winner
;
; win_reason = WIN_DUCK_EATEN;
;
	sta     _win_reason
;
; init_roundover();
;
	jmp     _init_roundover
;
; temp_x = BoxGuy1.x >> 8;
;
L286D:	lda     _BoxGuy1+1
	sta     _temp_x
;
; temp_y = BoxGuy1.y >> 8;
;
	lda     _BoxGuy1+3
	sta     _temp_y
;
; temp_x2 = BoxGuy2.x >> 8;
;
	lda     _BoxGuy2+1
	sta     _temp_x2
;
; temp_y2 = BoxGuy2.y >> 8;
;
	lda     _BoxGuy2+3
	sta     _temp_y2
;
; if (sprite_collision())
;
	jsr     _sprite_collision
	tax
	beq     L286E
;
; sfx_play(SFX_TEAM2_WIN, 0);
;
	lda     #$03
	jsr     pusha
	lda     #$00
	jsr     _sfx_play
;
; winner = THREEFOUR_WINNER;
;
	lda     #$02
	sta     _winner
;
; win_reason = WIN_FRIENDLY_FIRE_BEE_EATEN;
;
	lda     #$10
	sta     _win_reason
;
; init_roundover();
;
	jmp     _init_roundover
;
; temp_x = BoxGuy3.x >> 8;
;
L286E:	lda     _BoxGuy3+1
	sta     _temp_x
;
; temp_y = BoxGuy3.y >> 8;
;
	lda     _BoxGuy3+3
	sta     _temp_y
;
; temp_x2 = BoxGuy4.x >> 8;
;
	lda     _BoxGuy4+1
	sta     _temp_x2
;
; temp_y2 = BoxGuy4.y >> 8;
;
	lda     _BoxGuy4+3
	sta     _temp_y2
;
; if (sprite_collision())
;
	jsr     _sprite_collision
	tax
	beq     L286F
;
; sfx_play(SFX_TEAM1_WIN, 0);
;
	lda     #$02
	jsr     pusha
	lda     #$00
	jsr     _sfx_play
;
; winner = ONETWO_WINNER;
;
	lda     #$01
	sta     _winner
;
; win_reason = WIN_FRIENDLY_FIRE_BEE_EATEN;
;
	lda     #$10
	sta     _win_reason
;
; init_roundover();
;
	jmp     _init_roundover
;
; temp_x = BoxGuy1.x >> 8;
;
L286F:	lda     _BoxGuy1+1
	sta     _temp_x
;
; temp_y = BoxGuy1.y >> 8;
;
	lda     _BoxGuy1+3
	sta     _temp_y
;
; temp_x2 = BoxGuy4.x >> 8;
;
	lda     _BoxGuy4+1
	sta     _temp_x2
;
; temp_y2 = BoxGuy4.y >> 8;
;
	lda     _BoxGuy4+3
	sta     _temp_y2
;
; if (sprite_collision())
;
	jsr     _sprite_collision
	tax
	beq     L2870
;
; sfx_play(SFX_TEAM2_WIN, 0);
;
	lda     #$03
	jsr     pusha
	lda     #$00
	jsr     _sfx_play
;
; winner = THREEFOUR_WINNER;
;
	lda     #$02
	sta     _winner
;
; win_reason = WIN_BEE_EATEN;
;
	lda     #$04
	sta     _win_reason
;
; init_roundover();
;
	jmp     _init_roundover
;
; temp_x = BoxGuy2.x >> 8;
;
L2870:	lda     _BoxGuy2+1
	sta     _temp_x
;
; temp_y = BoxGuy2.y >> 8;
;
	lda     _BoxGuy2+3
	sta     _temp_y
;
; temp_x2 = BoxGuy3.x >> 8;
;
	lda     _BoxGuy3+1
	sta     _temp_x2
;
; temp_y2 = BoxGuy3.y >> 8;
;
	lda     _BoxGuy3+3
	sta     _temp_y2
;
; if (sprite_collision())
;
	jsr     _sprite_collision
	tax
	beq     L2240
;
; sfx_play(SFX_TEAM1_WIN, 0);
;
	lda     #$02
	jsr     pusha
	lda     #$00
	jsr     _sfx_play
;
; winner = ONETWO_WINNER;
;
	lda     #$01
	sta     _winner
;
; win_reason = WIN_BEE_EATEN;
;
	lda     #$04
	sta     _win_reason
;
; init_roundover();
;
	jmp     _init_roundover
;
; draw_sprites();
;
L2240:	jsr     _draw_sprites
;
; update_hud();
;
	jsr     _update_hud
;
; draw_hud();
;
	jmp     _draw_hud

.endproc

; ---------------------------------------------------------------
; void __near__ title_loop (void)
; ---------------------------------------------------------------

.segment	"CODE"

.proc	_title_loop: near

.segment	"CODE"

;
; frame_counter++;
;
L224E:	inc     _frame_counter
;
; ppu_wait_nmi();
;
	jsr     _ppu_wait_nmi
;
; read_controllers();
;
	jsr     _read_controllers
;
; if (pad1_new & PAD_UP)
;
	lda     _pad1_new
	and     #$08
	beq     L2871
;
; if ((BoxGuy1.y >> 8) > 160)
;
	lda     _BoxGuy1+3
	cmp     #$A1
	bcc     L2871
;
; BoxGuy1.y -= 0x0400; // Move up 4 pixels (0x0400 = 1024 sub-pixels)
;
	lda     _BoxGuy1+2
	sec
	sbc     #$00
	sta     _BoxGuy1+2
	lda     _BoxGuy1+2+1
	sbc     #$04
	sta     _BoxGuy1+2+1
;
; if (pad2_new & PAD_UP)
;
L2871:	lda     _pad2_new
	and     #$08
	beq     L2872
;
; if ((BoxGuy2.y >> 8) > 160)
;
	lda     _BoxGuy2+3
	cmp     #$A1
	bcc     L2872
;
; BoxGuy2.y -= 0x0400;
;
	lda     _BoxGuy2+2
	sec
	sbc     #$00
	sta     _BoxGuy2+2
	lda     _BoxGuy2+2+1
	sbc     #$04
	sta     _BoxGuy2+2+1
;
; if (pad3_new & PAD_UP)
;
L2872:	lda     _pad3_new
	and     #$08
	beq     L2873
;
; if ((BoxGuy3.y >> 8) > 160)
;
	lda     _BoxGuy3+3
	cmp     #$A1
	bcc     L2873
;
; BoxGuy3.y -= 0x0400;
;
	lda     _BoxGuy3+2
	sec
	sbc     #$00
	sta     _BoxGuy3+2
	lda     _BoxGuy3+2+1
	sbc     #$04
	sta     _BoxGuy3+2+1
;
; if (pad4_new & PAD_UP)
;
L2873:	lda     _pad4_new
	and     #$08
	beq     L2874
;
; if ((BoxGuy4.y >> 8) > 160)
;
	lda     _BoxGuy4+3
	cmp     #$A1
	bcc     L2874
;
; BoxGuy4.y -= 0x0400;
;
	lda     _BoxGuy4+2
	sec
	sbc     #$00
	sta     _BoxGuy4+2
	lda     _BoxGuy4+2+1
	sbc     #$04
	sta     _BoxGuy4+2+1
;
; if (pad1_new & PAD_START || pad2_new & PAD_START || pad3_new & PAD_START || pad4_new & PAD_START)
;
L2874:	lda     _pad1_new
	and     #$10
	bne     L2875
	lda     _pad2_new
	and     #$10
	bne     L2875
	lda     _pad3_new
	and     #$10
	bne     L2875
	lda     _pad4_new
	and     #$10
	jeq     L224E
;
; init_options_loop();
;
L2875:	jmp     _init_options_loop

.endproc

; ---------------------------------------------------------------
; void __near__ options_loop (void)
; ---------------------------------------------------------------

.segment	"CODE"

.proc	_options_loop: near

.segment	"CODE"

;
; ppu_wait_nmi();
;
L2276:	jsr     _ppu_wait_nmi
;
; frame_counter++;
;
	inc     _frame_counter
;
; oam_clear();
;
	jsr     _oam_clear
;
; if ((frame_counter % 10) == 0)
;
	lda     _frame_counter
	jsr     pusha0
	lda     #$0A
	jsr     tosumoda0
	cpx     #$00
	bne     L227D
	cmp     #$00
	bne     L227D
;
; anim_frame_1 = (anim_frame_1 + 1) % 3;
;
	lda     _anim_frame_1
	clc
	adc     #$01
	bcc     L2284
	inx
L2284:	jsr     pushax
	lda     #$03
	jsr     tosumoda0
	sta     _anim_frame_1
;
; switch (anim_frame_1)
;
L227D:	lda     _anim_frame_1
;
; }
;
	beq     L2289
	cmp     #$01
	beq     L228F
	cmp     #$02
	beq     L2295
	jmp     L2287
;
; oam_meta_spr(temp_x, temp_y, gamesprites_smallbeeright0_data);
;
L2289:	jsr     decsp2
	lda     _temp_x
	ldy     #$01
	sta     (sp),y
	lda     _temp_y
	dey
	sta     (sp),y
	lda     #<(_gamesprites_smallbeeright0_data)
	ldx     #>(_gamesprites_smallbeeright0_data)
;
; break;
;
	jmp     L2876
;
; oam_meta_spr(temp_x, temp_y, gamesprites_smallbeeright1_data);
;
L228F:	jsr     decsp2
	lda     _temp_x
	ldy     #$01
	sta     (sp),y
	lda     _temp_y
	dey
	sta     (sp),y
	lda     #<(_gamesprites_smallbeeright1_data)
	ldx     #>(_gamesprites_smallbeeright1_data)
;
; break;
;
	jmp     L2876
;
; oam_meta_spr(temp_x, temp_y, gamesprites_smallbeeright2_data);
;
L2295:	jsr     decsp2
	lda     _temp_x
	ldy     #$01
	sta     (sp),y
	lda     _temp_y
	dey
	sta     (sp),y
	lda     #<(_gamesprites_smallbeeright2_data)
	ldx     #>(_gamesprites_smallbeeright2_data)
L2876:	jsr     _oam_meta_spr
;
; read_controllers();
;
L2287:	jsr     _read_controllers
;
; if (pad1_new & PAD_DOWN)
;
	lda     _pad1_new
	and     #$04
	beq     L2877
;
; if (current_settings_choice < SETTING_SONG)
;
	lda     _current_settings_choice
	cmp     #$02
	bcs     L2877
;
; current_settings_choice++;
;
	inc     _current_settings_choice
;
; update_options_screen();
;
	jsr     _update_options_screen
;
; if (pad1_new & PAD_UP)
;
L2877:	lda     _pad1_new
	and     #$08
	beq     L2878
;
; if (current_settings_choice > 0)
;
	lda     _current_settings_choice
	beq     L2878
;
; current_settings_choice--;
;
	dec     _current_settings_choice
;
; update_options_screen();
;
	jsr     _update_options_screen
;
; if (pad1_new & PAD_RIGHT)
;
L2878:	lda     _pad1_new
	and     #$01
	beq     L287B
;
; if (current_settings_choice == SETTING_MAP)
;
	lda     _current_settings_choice
	cmp     #$01
	bne     L2879
;
; if (settings_map < MAP_RANDOM)
;
	lda     _settings_map
	cmp     #$03
	bcs     L2879
;
; settings_map++;
;
	inc     _settings_map
;
; if (current_settings_choice == SETTING_SPEED)
;
L2879:	lda     _current_settings_choice
	bne     L287A
;
; if (settings_speed < GAME_FAST)
;
	lda     _settings_speed
	cmp     #$02
	bcs     L287A
;
; settings_speed++;
;
	inc     _settings_speed
;
; if (current_settings_choice == SETTING_SONG)
;
L287A:	lda     _current_settings_choice
	cmp     #$02
	bne     L22B5
;
; if (settings_song < SONG_HONEY)
;
	lda     _settings_song
	cmp     #$02
	bcs     L22B5
;
; settings_song++;
;
	inc     _settings_song
;
; update_options_screen();
;
L22B5:	jsr     _update_options_screen
;
; if (pad1_new & PAD_LEFT)
;
L287B:	lda     _pad1_new
	and     #$02
	beq     L287E
;
; if (current_settings_choice == SETTING_MAP)
;
	lda     _current_settings_choice
	cmp     #$01
	bne     L287C
;
; if (settings_map > 0)
;
	lda     _settings_map
	beq     L287C
;
; settings_map--;
;
	dec     _settings_map
;
; if (current_settings_choice == SETTING_SPEED)
;
L287C:	lda     _current_settings_choice
	bne     L287D
;
; if (settings_speed > 0)
;
	lda     _settings_speed
	beq     L287D
;
; settings_speed--;
;
	dec     _settings_speed
;
; if (current_settings_choice == SETTING_SONG)
;
L287D:	lda     _current_settings_choice
	cmp     #$02
	bne     L22C7
;
; if (settings_song > 0)
;
	lda     _settings_song
	beq     L22C7
;
; settings_song--;
;
	dec     _settings_song
;
; update_options_screen();
;
L22C7:	jsr     _update_options_screen
;
; if (pad1_new & PAD_START || pad2_new & PAD_START || pad3_new & PAD_START || pad4_new & PAD_START)
;
L287E:	lda     _pad1_new
	and     #$10
	bne     L287F
	lda     _pad2_new
	and     #$10
	bne     L287F
	lda     _pad3_new
	and     #$10
	bne     L287F
	lda     _pad4_new
	and     #$10
	jeq     L2276
;
; sfx_play(SFX_START, 0);
;
L287F:	lda     #$08
	jsr     pusha
	lda     #$00
	jsr     _sfx_play
;
; init_game_loop();
;
	jsr     _init_game_loop
;
; prev_pad1 = pad1;
;
	lda     _pad1
	sta     _prev_pad1
;
; prev_pad2 = pad2;
;
	lda     _pad2
	sta     _prev_pad2
;
; prev_pad3 = pad3;
;
	lda     _pad3
	sta     _prev_pad3
;
; prev_pad4 = pad4;
;
	lda     _pad4
	sta     _prev_pad4
;
; }
;
	rts

.endproc

; ---------------------------------------------------------------
; void __near__ gameover_loop (void)
; ---------------------------------------------------------------

.segment	"CODE"

.proc	_gameover_loop: near

.segment	"CODE"

;
; ppu_wait_nmi();
;
L22DB:	jsr     _ppu_wait_nmi
;
; read_controllers();
;
	jsr     _read_controllers
;
; if (pad1_new & PAD_START || pad2_new & PAD_START || pad3_new & PAD_START || pad4_new & PAD_START)
;
	lda     _pad1_new
	and     #$10
	bne     L2880
	lda     _pad2_new
	and     #$10
	bne     L2880
	lda     _pad3_new
	and     #$10
	bne     L2880
	lda     _pad4_new
	and     #$10
	beq     L22DB
;
; init_title_loop();
;
L2880:	jmp     _init_title_loop

.endproc

; ---------------------------------------------------------------
; void __near__ init_game_loop (void)
; ---------------------------------------------------------------

.segment	"CODE"

.proc	_init_game_loop: near

.segment	"CODE"

;
; clear_background();
;
	jsr     _clear_background
;
; game_mode = MODE_GAME;
;
	lda     #$02
	sta     _game_mode
;
; team1_wins = 0;
;
	lda     #$00
	sta     _team1_wins
;
; team2_wins = 0;
;
	sta     _team2_wins
;
; current_round = 1;
;
	lda     #$01
	sta     _current_round
;
; round_1 = 0;
;
	lda     #$00
	sta     _round_1
;
; round_2 = 0;
;
	sta     _round_2
;
; round_3 = 0;
;
	sta     _round_3
;
; round_4 = 0;
;
	sta     _round_4
;
; round_5 = 0;
;
	sta     _round_5
;
; round_1_winner = 0;
;
	sta     _round_1_winner
;
; round_2_winner = 0;
;
	sta     _round_2_winner
;
; round_3_winner = 0;
;
	sta     _round_3_winner
;
; round_4_winner = 0;
;
	sta     _round_4_winner
;
; round_5_winner = 0;
;
	sta     _round_5_winner
;
; team1_win1 = 0xFF;
;
	lda     #$FF
	sta     _team1_win1
;
; team1_win2 = 0xFF;
;
	sta     _team1_win2
;
; team1_win3 = 0xFF;
;
	sta     _team1_win3
;
; team2_win1 = 0xFF;
;
	sta     _team2_win1
;
; team2_win2 = 0xFF;
;
	sta     _team2_win2
;
; team2_win3 = 0xFF;
;
	sta     _team2_win3
;
; tick_frequency = TIMER_TICK_FREQUENCY;
;
	lda     #$18
	sta     _tick_frequency
;
; if (settings_speed == GAME_SLOW)
;
	lda     _settings_speed
	bne     L2884
;
; tick_frequency += 8;
;
	lda     #$08
	clc
	adc     _tick_frequency
;
; else if (settings_speed == GAME_FAST)
;
	jmp     L2881
L2884:	lda     _settings_speed
	cmp     #$02
	bne     L2885
;
; tick_frequency -= 12;
;
	lda     _tick_frequency
	sec
	sbc     #$0C
L2881:	sta     _tick_frequency
;
; if (settings_map == MAP_COMBS)
;
L2885:	lda     _settings_map
	bne     L2886
;
; map_ptr = combs;
;
	lda     #>(_combs)
	sta     _map_ptr+1
	lda     #<(_combs)
	sta     _map_ptr
;
; map = MAP_COMBS;
;
	lda     #$00
;
; else if (settings_map == MAP_VINES)
;
	jmp     L2882
L2886:	lda     _settings_map
	cmp     #$02
	bne     L2887
;
; map_ptr = vines;
;
	lda     #>(_vines)
	sta     _map_ptr+1
	lda     #<(_vines)
	sta     _map_ptr
;
; map = MAP_VINES;
;
	lda     #$02
;
; else if (settings_map == MAP_OUTDOORS)
;
	jmp     L2882
L2887:	lda     _settings_map
	cmp     #$01
	bne     L2888
;
; map_ptr = outdoors;
;
	lda     #>(_outdoors)
	sta     _map_ptr+1
	lda     #<(_outdoors)
	sta     _map_ptr
;
; map = MAP_OUTDOORS;
;
	lda     #$01
L2882:	sta     _map
;
; if (settings_speed == GAME_SLOW)
;
L2888:	lda     _settings_speed
	bne     L2889
;
; speed_option = SPEED_SLOW;
;
	tax
	lda     #$80
;
; else if (settings_speed == GAME_REGULAR)
;
	jmp     L288B
L2889:	lda     _settings_speed
	cmp     #$01
	bne     L288A
;
; speed_option = SPEED_REGULAR;
;
	ldx     #$00
	lda     #$C0
;
; else if (settings_speed == GAME_FAST)
;
	jmp     L288B
L288A:	lda     _settings_speed
	cmp     #$02
	bne     L2422
;
; speed_option = SPEED_FAST;
;
	ldx     #$01
	lda     #$00
L288B:	sta     _speed_option
	stx     _speed_option+1
;
; load_bg_palette();
;
L2422:	jsr     _load_bg_palette
;
; pal_spr(palette_sp);
;
	lda     #<(_palette_sp)
	ldx     #>(_palette_sp)
	jsr     _pal_spr
;
; start_round();
;
	jmp     _start_round

.endproc

; ---------------------------------------------------------------
; void __near__ init_options_loop (void)
; ---------------------------------------------------------------

.segment	"CODE"

.proc	_init_options_loop: near

.segment	"CODE"

;
; prev_pad1 = 0;
;
	lda     #$00
	sta     _prev_pad1
;
; prev_pad2 = 0;
;
	sta     _prev_pad2
;
; prev_pad3 = 0;
;
	sta     _prev_pad3
;
; prev_pad4 = 0;
;
	sta     _prev_pad4
;
; clear_background();
;
	jsr     _clear_background
;
; game_mode = MODE_OPTIONS;
;
	lda     #$01
	sta     _game_mode
;
; ppu_off(); // screen off
;
	jsr     _ppu_off
;
; load_room(); // loads the options screen
;
	jsr     _load_room
;
; pal_bg(palette_options_bg);
;
	lda     #<(_palette_options_bg)
	ldx     #>(_palette_options_bg)
	jsr     _pal_bg
;
; pal_spr(palette_sp);
;
	lda     #<(_palette_sp)
	ldx     #>(_palette_sp)
	jsr     _pal_spr
;
; update_options_screen();
;
	jsr     _update_options_screen
;
; start_hold_timer = 0;
;
	lda     #$00
	sta     _start_hold_timer
;
; start_held = 0;
;
	sta     _start_held
;
; ppu_on_all(); // turn on screen
;
	jmp     _ppu_on_all

.endproc

; ---------------------------------------------------------------
; void __near__ init_gameover_loop (void)
; ---------------------------------------------------------------

.segment	"CODE"

.proc	_init_gameover_loop: near

.segment	"CODE"

;
; oam_clear();
;
	jsr     _oam_clear
;
; clear_background();
;
	jsr     _clear_background
;
; music_stop();
;
	jsr     _music_stop
;
; game_mode = MODE_GAMEOVER;
;
	lda     #$03
	sta     _game_mode
;
; ppu_off(); // screen off
;
	jsr     _ppu_off
;
; clear_vram_buffer();
;
	jsr     _clear_vram_buffer
;
; pal_spr(palette_sp);
;
	lda     #<(_palette_sp)
	ldx     #>(_palette_sp)
	jsr     _pal_spr
;
; if (team1_wins >= 3)
;
	lda     _team1_wins
	cmp     #$03
	bcc     L288D
;
; multi_vram_buffer_horz("TEAM 1 WINS THE MATCH!", 21, NTADR_A(4, 4));
;
	jsr     decsp3
	lda     #<(L2672)
	ldy     #$01
	sta     (sp),y
	iny
	lda     #>(L2672)
;
; else if (team2_wins >= 3)
;
	jmp     L2894
L288D:	lda     _team2_wins
	cmp     #$03
	bcc     L267C
;
; multi_vram_buffer_horz("TEAM 2 WINS THE MATCH!", 21, NTADR_A(4, 4));
;
	jsr     decsp3
	lda     #<(L267F)
	ldy     #$01
	sta     (sp),y
	iny
	lda     #>(L267F)
L2894:	sta     (sp),y
	lda     #$15
	ldy     #$00
	sta     (sp),y
	ldx     #$20
	lda     #$84
	jsr     _multi_vram_buffer_horz
;
; multi_vram_buffer_horz("ROUND 1:", 9, NTADR_A(6, 10));
;
L267C:	jsr     decsp3
	lda     #<(L2689)
	ldy     #$01
	sta     (sp),y
	iny
	lda     #>(L2689)
	sta     (sp),y
	lda     #$09
	ldy     #$00
	sta     (sp),y
	ldx     #$21
	lda     #$46
	jsr     _multi_vram_buffer_horz
;
; temp_y = 10;
;
	lda     #$0A
	sta     _temp_y
;
; temp_winner = round_1_winner;
;
	lda     _round_1_winner
	sta     _temp_winner
;
; temp_round = round_1;
;
	lda     _round_1
	sta     _temp_round
;
; display_round_summary();
;
	jsr     _display_round_summary
;
; multi_vram_buffer_horz("ROUND 2:", 9, NTADR_A(6, 13));
;
	jsr     decsp3
	lda     #<(L269A)
	ldy     #$01
	sta     (sp),y
	iny
	lda     #>(L269A)
	sta     (sp),y
	lda     #$09
	ldy     #$00
	sta     (sp),y
	ldx     #$21
	lda     #$A6
	jsr     _multi_vram_buffer_horz
;
; temp_y = 13;
;
	lda     #$0D
	sta     _temp_y
;
; temp_winner = round_2_winner;
;
	lda     _round_2_winner
	sta     _temp_winner
;
; temp_round = round_2;
;
	lda     _round_2
	sta     _temp_round
;
; display_round_summary();
;
	jsr     _display_round_summary
;
; multi_vram_buffer_horz("ROUND 3:", 9, NTADR_A(6, 16));
;
	jsr     decsp3
	lda     #<(L26AB)
	ldy     #$01
	sta     (sp),y
	iny
	lda     #>(L26AB)
	sta     (sp),y
	lda     #$09
	ldy     #$00
	sta     (sp),y
	ldx     #$22
	lda     #$06
	jsr     _multi_vram_buffer_horz
;
; temp_y = 16;
;
	lda     #$10
	sta     _temp_y
;
; temp_winner = round_3_winner;
;
	lda     _round_3_winner
	sta     _temp_winner
;
; temp_round = round_3;
;
	lda     _round_3
	sta     _temp_round
;
; display_round_summary();
;
	jsr     _display_round_summary
;
; if (current_round >= 4)
;
	lda     _current_round
	cmp     #$04
	bcc     L288E
;
; multi_vram_buffer_horz("ROUND 4:", 9, NTADR_A(6, 19));
;
	jsr     decsp3
	lda     #<(L26BE)
	ldy     #$01
	sta     (sp),y
	iny
	lda     #>(L26BE)
	sta     (sp),y
	lda     #$09
	ldy     #$00
	sta     (sp),y
	ldx     #$22
	lda     #$66
	jsr     _multi_vram_buffer_horz
;
; temp_y = 19;
;
	lda     #$13
	sta     _temp_y
;
; temp_winner = round_4_winner;
;
	lda     _round_4_winner
	sta     _temp_winner
;
; temp_round = round_4;
;
	lda     _round_4
	sta     _temp_round
;
; display_round_summary();
;
	jsr     _display_round_summary
;
; if (current_round >= 5)
;
L288E:	lda     _current_round
	cmp     #$05
	bcc     L26CE
;
; multi_vram_buffer_horz("ROUND 5:", 9, NTADR_A(6, 21));
;
	jsr     decsp3
	lda     #<(L26D1)
	ldy     #$01
	sta     (sp),y
	iny
	lda     #>(L26D1)
	sta     (sp),y
	lda     #$09
	ldy     #$00
	sta     (sp),y
	ldx     #$22
	lda     #$A6
	jsr     _multi_vram_buffer_horz
;
; temp_y = 21;
;
	lda     #$15
	sta     _temp_y
;
; temp_winner = round_5_winner;
;
	lda     _round_5_winner
	sta     _temp_winner
;
; temp_round = round_5;
;
	lda     _round_5
	sta     _temp_round
;
; display_round_summary();
;
	jsr     _display_round_summary
;
; multi_vram_buffer_horz("PRESS START", 11, NTADR_A(10, 25));
;
L26CE:	jsr     decsp3
	lda     #<(L26E2)
	ldy     #$01
	sta     (sp),y
	iny
	lda     #>(L26E2)
	sta     (sp),y
	lda     #$0B
	ldy     #$00
	sta     (sp),y
	ldx     #$23
	lda     #$2A
	jsr     _multi_vram_buffer_horz
;
; ppu_on_all(); // turn on screen
;
	jsr     _ppu_on_all
;
; delay(10);
;
	lda     #$0A
	jmp     _delay

.endproc

; ---------------------------------------------------------------
; void __near__ init_title_loop (void)
; ---------------------------------------------------------------

.segment	"CODE"

.proc	_init_title_loop: near

.segment	"CODE"

;
; delay(30);
;
	lda     #$1E
	jsr     _delay
;
; game_mode = MODE_TITLE;
;
	lda     #$00
	sta     _game_mode
;
; ppu_off(); // screen off
;
	jsr     _ppu_off
;
; pal_bg(palette_title_bg);
;
	lda     #<(_palette_title_bg)
	ldx     #>(_palette_title_bg)
	jsr     _pal_bg
;
; pal_spr(palette_sp);
;
	lda     #<(_palette_sp)
	ldx     #>(_palette_sp)
	jsr     _pal_spr
;
; load_room(); // loads the title screen;
;
	jsr     _load_room
;
; BoxGuy1.x = 0x2800; // x = 40 (0x28)
;
	ldx     #$28
	lda     #$00
	sta     _BoxGuy1
	stx     _BoxGuy1+1
;
; BoxGuy1.y = 0xC800; // y = 200 (0xC8)
;
	ldx     #$C8
	sta     _BoxGuy1+2
	stx     _BoxGuy1+2+1
;
; BoxGuy1.direction = DIR_NONE;
;
	lda     #$04
	sta     _BoxGuy1+4
;
; BoxGuy2.x = 0x7800; // x = 120 (0x78)
;
	ldx     #$78
	lda     #$00
	sta     _BoxGuy2
	stx     _BoxGuy2+1
;
; BoxGuy2.y = 0xC800; // y = 200 (0xC8)
;
	ldx     #$C8
	sta     _BoxGuy2+2
	stx     _BoxGuy2+2+1
;
; BoxGuy2.direction = DIR_NONE;
;
	lda     #$04
	sta     _BoxGuy2+4
;
; BoxGuy3.x = 0xC800; // x = 200 (0xC8)
;
	lda     #$00
	sta     _BoxGuy3
	stx     _BoxGuy3+1
;
; BoxGuy3.y = 0xC800; // y = 200 (0xC8)
;
	sta     _BoxGuy3+2
	stx     _BoxGuy3+2+1
;
; BoxGuy3.direction = DIR_NONE;
;
	lda     #$04
	sta     _BoxGuy3+4
;
; BoxGuy4.x = 0x1801; // x = 280 (0x118)
;
	ldx     #$18
	lda     #$01
	sta     _BoxGuy4
	stx     _BoxGuy4+1
;
; BoxGuy4.y = 0xC800; // y = 200 (0xC8)
;
	ldx     #$C8
	lda     #$00
	sta     _BoxGuy4+2
	stx     _BoxGuy4+2+1
;
; BoxGuy4.direction = DIR_NONE;
;
	lda     #$04
	sta     _BoxGuy4+4
;
; ppu_on_all(); // turn on screen
;
	jmp     _ppu_on_all

.endproc

; ---------------------------------------------------------------
; void __near__ init_system (void)
; ---------------------------------------------------------------

.segment	"CODE"

.proc	_init_system: near

.segment	"CODE"

;
; ppu_off();
;
	jsr     _ppu_off
;
; clear_vram_buffer();
;
	jsr     _clear_vram_buffer
;
; set_vram_buffer();
;
	jsr     _set_vram_buffer
;
; bank_spr(1);
;
	lda     #$01
	jsr     _bank_spr
;
; set_scroll_y(0xff); // shift the bg down one pixel
;
	ldx     #$00
	lda     #$FF
	jsr     _set_scroll_y
;
; settings_speed = GAME_REGULAR;
;
	lda     #$01
	sta     _settings_speed
;
; settings_map = MAP_RANDOM;
;
	lda     #$03
	sta     _settings_map
;
; settings_song = SONG_BEE;
;
	lda     #$00
	sta     _settings_song
;
; speed_option = SPEED_REGULAR;
;
	tax
	lda     #$C0
	sta     _speed_option
	stx     _speed_option+1
;
; turbo_amount = TURBO_MEDIUM;
;
	lda     #$80
	sta     _turbo_amount
;
; ducks_go_faster_over_time = 1;
;
	lda     #$01
	sta     _ducks_go_faster_over_time
;
; collision_box_size = 6; // quacks and players are 6x6
;
	lda     #$06
	sta     _collision_box_size
;
; sprite_rotation = 0;
;
	txa
	sta     _sprite_rotation
;
; anim_frame_1 = 0;
;
	sta     _anim_frame_1
;
; anim_frame_2 = 0;
;
	sta     _anim_frame_2
;
; anim_frame_3 = 0;
;
	sta     _anim_frame_3
;
; anim_frame_4 = 0;
;
	sta     _anim_frame_4
;
; prev_pad1 = 0;
;
	sta     _prev_pad1
;
; prev_pad2 = 0;
;
	sta     _prev_pad2
;
; prev_pad3 = 0;
;
	sta     _prev_pad3
;
; prev_pad4 = 0;
;
	sta     _prev_pad4
;
; bee1_bigbee_timer = 0;
;
	sta     _bee1_bigbee_timer
;
; bee3_bigbee_timer = 0;
;
	sta     _bee3_bigbee_timer
;
; ppu_on_all(); // turn on screenxw
;
	jmp     _ppu_on_all

.endproc

; ---------------------------------------------------------------
; void __near__ clear_background (void)
; ---------------------------------------------------------------

.segment	"CODE"

.proc	_clear_background: near

.segment	"CODE"

;
; ppu_off(); // screen off
;
	jsr     _ppu_off
;
; vram_adr(NAMETABLE_A);
;
	ldx     #$20
	lda     #$00
	jsr     _vram_adr
;
; for (tempint = 0; tempint < 1024; ++tempint)
;
	lda     #$00
	sta     _tempint
	sta     _tempint+1
L271F:	ldx     _tempint+1
	cpx     #$04
	bcs     L2720
;
; vram_put(0x00);
;
	lda     #$00
	jsr     _vram_put
;
; flush_vram_update2();
;
	jsr     _flush_vram_update2
;
; for (tempint = 0; tempint < 1024; ++tempint)
;
	inc     _tempint
	bne     L271F
	inc     _tempint+1
	jmp     L271F
;
; ppu_on_all(); // turn on screen
;
L2720:	jmp     _ppu_on_all

.endproc

; ---------------------------------------------------------------
; void __near__ update_hud (void)
; ---------------------------------------------------------------

.segment	"CODE"

.proc	_update_hud: near

.segment	"CODE"

;
; temp_x = 102;
;
	lda     #$66
	sta     _temp_x
;
; temp_y = 8;
;
	lda     #$08
	sta     _temp_y
;
; if (team1_win1 != 0xFF)
;
	lda     _team1_win1
	cmp     #$FF
	beq     L1CAD
;
; temp_win_team = 1;
;
	lda     #$01
	sta     _temp_win_team
;
; temp_win_reason = team1_win1;
;
	lda     _team1_win1
	sta     _temp_win_reason
;
; draw_win_round_sprite();
;
	jsr     _draw_win_round_sprite
;
; else
;
	jmp     L1CB4
;
; oam_meta_spr(temp_x, temp_y, gamesprites_win_unwon);
;
L1CAD:	jsr     decsp2
	lda     _temp_x
	ldy     #$01
	sta     (sp),y
	lda     _temp_y
	dey
	sta     (sp),y
	lda     #<(_gamesprites_win_unwon)
	ldx     #>(_gamesprites_win_unwon)
	jsr     _oam_meta_spr
;
; temp_x = 92;
;
L1CB4:	lda     #$5C
	sta     _temp_x
;
; temp_y = 8;
;
	lda     #$08
	sta     _temp_y
;
; if (team1_win2 != 0xFF)
;
	lda     _team1_win2
	cmp     #$FF
	beq     L1CBD
;
; temp_win_team = 1;
;
	lda     #$01
	sta     _temp_win_team
;
; temp_win_reason = team1_win2;
;
	lda     _team1_win2
	sta     _temp_win_reason
;
; draw_win_round_sprite();
;
	jsr     _draw_win_round_sprite
;
; else
;
	jmp     L1CC4
;
; oam_meta_spr(temp_x, temp_y, gamesprites_win_unwon);
;
L1CBD:	jsr     decsp2
	lda     _temp_x
	ldy     #$01
	sta     (sp),y
	lda     _temp_y
	dey
	sta     (sp),y
	lda     #<(_gamesprites_win_unwon)
	ldx     #>(_gamesprites_win_unwon)
	jsr     _oam_meta_spr
;
; temp_x = 82;
;
L1CC4:	lda     #$52
	sta     _temp_x
;
; temp_y = 8;
;
	lda     #$08
	sta     _temp_y
;
; if (team1_win3 != 0xFF)
;
	lda     _team1_win3
	cmp     #$FF
	beq     L1CCD
;
; temp_win_team = 1;
;
	lda     #$01
	sta     _temp_win_team
;
; temp_win_reason = team1_win3;
;
	lda     _team1_win3
	sta     _temp_win_reason
;
; draw_win_round_sprite();
;
	jsr     _draw_win_round_sprite
;
; else
;
	jmp     L1CD4
;
; oam_meta_spr(temp_x, temp_y, gamesprites_win_unwon);
;
L1CCD:	jsr     decsp2
	lda     _temp_x
	ldy     #$01
	sta     (sp),y
	lda     _temp_y
	dey
	sta     (sp),y
	lda     #<(_gamesprites_win_unwon)
	ldx     #>(_gamesprites_win_unwon)
	jsr     _oam_meta_spr
;
; temp_x = 146;
;
L1CD4:	lda     #$92
	sta     _temp_x
;
; temp_y = 8;
;
	lda     #$08
	sta     _temp_y
;
; if (team2_win1 != 0xFF)
;
	lda     _team2_win1
	cmp     #$FF
	beq     L1CDD
;
; temp_win_team = 2;
;
	lda     #$02
	sta     _temp_win_team
;
; temp_win_reason = team2_win1;
;
	lda     _team2_win1
	sta     _temp_win_reason
;
; draw_win_round_sprite();
;
	jsr     _draw_win_round_sprite
;
; else
;
	jmp     L1CE4
;
; oam_meta_spr(temp_x, temp_y, gamesprites_win_unwon);
;
L1CDD:	jsr     decsp2
	lda     _temp_x
	ldy     #$01
	sta     (sp),y
	lda     _temp_y
	dey
	sta     (sp),y
	lda     #<(_gamesprites_win_unwon)
	ldx     #>(_gamesprites_win_unwon)
	jsr     _oam_meta_spr
;
; temp_x = 156;
;
L1CE4:	lda     #$9C
	sta     _temp_x
;
; temp_y = 8;
;
	lda     #$08
	sta     _temp_y
;
; if (team2_win2 != 0xFF)
;
	lda     _team2_win2
	cmp     #$FF
	beq     L1CED
;
; temp_win_team = 2;
;
	lda     #$02
	sta     _temp_win_team
;
; temp_win_reason = team2_win2;
;
	lda     _team2_win2
	sta     _temp_win_reason
;
; draw_win_round_sprite();
;
	jsr     _draw_win_round_sprite
;
; else
;
	jmp     L1CF4
;
; oam_meta_spr(temp_x, temp_y, gamesprites_win_unwon);
;
L1CED:	jsr     decsp2
	lda     _temp_x
	ldy     #$01
	sta     (sp),y
	lda     _temp_y
	dey
	sta     (sp),y
	lda     #<(_gamesprites_win_unwon)
	ldx     #>(_gamesprites_win_unwon)
	jsr     _oam_meta_spr
;
; temp_x = 166;
;
L1CF4:	lda     #$A6
	sta     _temp_x
;
; temp_y = 8;
;
	lda     #$08
	sta     _temp_y
;
; if (team2_win3 != 0xFF)
;
	lda     _team2_win3
	cmp     #$FF
	beq     L1CFD
;
; temp_win_team = 2;
;
	lda     #$02
	sta     _temp_win_team
;
; temp_win_reason = team2_win3;
;
	lda     _team2_win3
	sta     _temp_win_reason
;
; draw_win_round_sprite();
;
	jmp     _draw_win_round_sprite
;
; oam_meta_spr(temp_x, temp_y, gamesprites_win_unwon);
;
L1CFD:	jsr     decsp2
	lda     _temp_x
	ldy     #$01
	sta     (sp),y
	lda     _temp_y
	dey
	sta     (sp),y
	lda     #<(_gamesprites_win_unwon)
	ldx     #>(_gamesprites_win_unwon)
	jmp     _oam_meta_spr

.endproc

; ---------------------------------------------------------------
; void __near__ init_roundover (void)
; ---------------------------------------------------------------

.segment	"CODE"

.proc	_init_roundover: near

.segment	"CODE"

;
; game_mode = MODE_ROUNDOVER;
;
	lda     #$04
	sta     _game_mode
;
; music_stop();
;
	jsr     _music_stop
;
; if (winner == ONETWO_WINNER)
;
	lda     _winner
	cmp     #$01
	bne     L2896
;
; team1_wins++;
;
	inc     _team1_wins
;
; else if (winner == THREEFOUR_WINNER)
;
	jmp     L252B
L2896:	lda     _winner
	cmp     #$02
	bne     L252B
;
; team2_wins++;
;
	inc     _team2_wins
;
; if (round_1)
;
L252B:	lda     _round_1
	beq     L252E
;
; round_1 = win_reason;
;
	lda     _win_reason
	sta     _round_1
;
; if (winner == ONETWO_WINNER)
;
	lda     _winner
	cmp     #$01
	bne     L2897
;
; round_1_winner = TEAM1_WIN;
;
	lda     #$80
	sta     _round_1_winner
;
; else if (winner == THREEFOUR_WINNER)
;
	jmp     L289C
L2897:	lda     _winner
	cmp     #$02
	jne     L289C
;
; round_1_winner = TEAM2_WIN;
;
	lda     #$40
	sta     _round_1_winner
;
; else if (round_2)
;
	jmp     L289C
L252E:	lda     _round_2
	beq     L253C
;
; round_2 = win_reason;
;
	lda     _win_reason
	sta     _round_2
;
; if (winner == ONETWO_WINNER)
;
	lda     _winner
	cmp     #$01
	bne     L2898
;
; round_2_winner = TEAM1_WIN;
;
	lda     #$80
	sta     _round_2_winner
;
; else if (winner == THREEFOUR_WINNER)
;
	jmp     L289C
L2898:	lda     _winner
	cmp     #$02
	bne     L289C
;
; round_2_winner = TEAM2_WIN;
;
	lda     #$40
	sta     _round_2_winner
;
; else if (round_3)
;
	jmp     L289C
L253C:	lda     _round_3
	beq     L254A
;
; round_3 = win_reason;
;
	lda     _win_reason
	sta     _round_3
;
; if (winner == ONETWO_WINNER)
;
	lda     _winner
	cmp     #$01
	bne     L2899
;
; round_3_winner = TEAM1_WIN;
;
	lda     #$80
	sta     _round_3_winner
;
; else if (winner == THREEFOUR_WINNER)
;
	jmp     L289C
L2899:	lda     _winner
	cmp     #$02
	bne     L289C
;
; round_3_winner = TEAM2_WIN;
;
	lda     #$40
	sta     _round_3_winner
;
; else if (round_4)
;
	jmp     L289C
L254A:	lda     _round_4
	beq     L2558
;
; round_4 = win_reason;
;
	lda     _win_reason
	sta     _round_4
;
; if (winner == ONETWO_WINNER)
;
	lda     _winner
	cmp     #$01
	bne     L289A
;
; round_4_winner = TEAM1_WIN;
;
	lda     #$80
	sta     _round_4_winner
;
; else if (winner == THREEFOUR_WINNER)
;
	jmp     L289C
L289A:	lda     _winner
	cmp     #$02
	bne     L289C
;
; round_4_winner = TEAM2_WIN;
;
	lda     #$40
	sta     _round_4_winner
;
; else if (round_5)
;
	jmp     L289C
L2558:	lda     _round_5
	beq     L289C
;
; round_5 = win_reason;
;
	lda     _win_reason
	sta     _round_5
;
; if (winner == ONETWO_WINNER)
;
	lda     _winner
	cmp     #$01
	bne     L289B
;
; round_5_winner = TEAM1_WIN;
;
	lda     #$80
;
; else if (winner == THREEFOUR_WINNER)
;
	jmp     L2895
L289B:	lda     _winner
	cmp     #$02
	bne     L289C
;
; round_5_winner = TEAM2_WIN;
;
	lda     #$40
L2895:	sta     _round_5_winner
;
; if (winner == ONETWO_WINNER)
;
L289C:	lda     _winner
	cmp     #$01
	bne     L289F
;
; if (team1_wins == 1)
;
	lda     _team1_wins
	cmp     #$01
	bne     L289D
;
; team1_win1 = win_reason;
;
	lda     _win_reason
	sta     _team1_win1
;
; else if (team1_wins == 2)
;
	jmp     L28A2
L289D:	lda     _team1_wins
	cmp     #$02
	bne     L289E
;
; team1_win2 = win_reason;
;
	lda     _win_reason
	sta     _team1_win2
;
; else if (team1_wins == 3)
;
	jmp     L28A2
L289E:	lda     _team1_wins
	cmp     #$03
	bne     L28A2
;
; team1_win3 = win_reason;
;
	lda     _win_reason
	sta     _team1_win3
;
; else if (winner == THREEFOUR_WINNER)
;
	jmp     L28A2
L289F:	lda     _winner
	cmp     #$02
	bne     L28A2
;
; if (team2_wins == 1)
;
	lda     _team2_wins
	cmp     #$01
	bne     L28A0
;
; team2_win1 = win_reason;
;
	lda     _win_reason
	sta     _team2_win1
;
; else if (team2_wins == 2)
;
	jmp     L28A2
L28A0:	lda     _team2_wins
	cmp     #$02
	bne     L28A1
;
; team2_win2 = win_reason;
;
	lda     _win_reason
	sta     _team2_win2
;
; else if (team2_wins == 3)
;
	jmp     L28A2
L28A1:	lda     _team2_wins
	cmp     #$03
	bne     L28A2
;
; team2_win3 = win_reason;
;
	lda     _win_reason
	sta     _team2_win3
;
; current_round++;
;
L28A2:	inc     _current_round
;
; multi_vram_buffer_horz("                      ", 22, NTADR_A(5, 3));
;
	jsr     decsp3
	lda     #<(L2596)
	ldy     #$01
	sta     (sp),y
	iny
	lda     #>(L2596)
	sta     (sp),y
	lda     #$16
	ldy     #$00
	sta     (sp),y
	ldx     #$20
	lda     #$65
	jsr     _multi_vram_buffer_horz
;
; if (win_reason == WIN_HONEY_COLLECTED)
;
	lda     _win_reason
	cmp     #$20
	bne     L28A3
;
; multi_vram_buffer_horz("COLLECTED 100 HONEY", 19, NTADR_A(6, 3));
;
	jsr     decsp3
	lda     #<(L25A2)
	ldy     #$01
	sta     (sp),y
	iny
	lda     #>(L25A2)
	sta     (sp),y
	lda     #$13
	ldy     #$00
	sta     (sp),y
	ldx     #$20
	lda     #$66
	jmp     _multi_vram_buffer_horz
;
; else if (win_reason == WIN_FRIENDLY_FIRE_BEE_EATEN)
;
L28A3:	lda     _win_reason
	cmp     #$10
	bne     L28A4
;
; multi_vram_buffer_horz("FRIENDLY BEE EATEN", 18, NTADR_A(7, 3));
;
	jsr     decsp3
	lda     #<(L25AF)
	ldy     #$01
	sta     (sp),y
	iny
	lda     #>(L25AF)
	sta     (sp),y
	lda     #$12
	ldy     #$00
	sta     (sp),y
	ldx     #$20
	lda     #$67
	jmp     _multi_vram_buffer_horz
;
; else if (win_reason == WIN_FRIENDLY_FIRE_DUCK_EATEN)
;
L28A4:	lda     _win_reason
	cmp     #$08
	bne     L28A5
;
; multi_vram_buffer_horz("FRIENDLY DUCK EATEN", 19, NTADR_A(6, 3));
;
	jsr     decsp3
	lda     #<(L25BC)
	ldy     #$01
	sta     (sp),y
	iny
	lda     #>(L25BC)
	sta     (sp),y
	lda     #$13
	ldy     #$00
	sta     (sp),y
	ldx     #$20
	lda     #$66
	jmp     _multi_vram_buffer_horz
;
; else if (win_reason == WIN_BEE_EATEN)
;
L28A5:	lda     _win_reason
	cmp     #$04
	bne     L28A6
;
; multi_vram_buffer_horz("ENEMY BEE EATEN", 15, NTADR_A(8, 3));
;
	jsr     decsp3
	lda     #<(L25C9)
	ldy     #$01
	sta     (sp),y
	iny
	lda     #>(L25C9)
	sta     (sp),y
	lda     #$0F
	ldy     #$00
	sta     (sp),y
	ldx     #$20
	lda     #$68
	jmp     _multi_vram_buffer_horz
;
; else if (win_reason == WIN_DUCK_EATEN)
;
L28A6:	lda     _win_reason
	cmp     #$02
	bne     L28A7
;
; multi_vram_buffer_horz("BIGBEE ATE DUCK!", 16, NTADR_A(8, 3));
;
	jsr     decsp3
	lda     #<(L25D6)
	ldy     #$01
	sta     (sp),y
	iny
	lda     #>(L25D6)
	sta     (sp),y
	lda     #$10
	ldy     #$00
	sta     (sp),y
	ldx     #$20
	lda     #$68
	jmp     _multi_vram_buffer_horz
;
; else if (win_reason == WIN_MOST_HONEY_COLLECTED)
;
L28A7:	lda     _win_reason
	cmp     #$01
	bne     L25E0
;
; multi_vram_buffer_horz("COLLECTED MORE HONEY", 20, NTADR_A(6, 3));
;
	jsr     decsp3
	lda     #<(L25E3)
	ldy     #$01
	sta     (sp),y
	iny
	lda     #>(L25E3)
	sta     (sp),y
	lda     #$14
	ldy     #$00
	sta     (sp),y
	ldx     #$20
	lda     #$66
	jmp     _multi_vram_buffer_horz
;
; multi_vram_buffer_horz("DRAW GAME!", 10, NTADR_A(11, 3));
;
L25E0:	jsr     decsp3
	lda     #<(L25EE)
	ldy     #$01
	sta     (sp),y
	iny
	lda     #>(L25EE)
	sta     (sp),y
	lda     #$0A
	ldy     #$00
	sta     (sp),y
	ldx     #$20
	lda     #$6B
	jmp     _multi_vram_buffer_horz

.endproc

; ---------------------------------------------------------------
; void __near__ start_round (void)
; ---------------------------------------------------------------

.segment	"CODE"

.proc	_start_round: near

.segment	"CODE"

;
; if (settings_map == MAP_RANDOM)
;
	lda     _settings_map
	cmp     #$03
	bne     L22E6
;
; if (frame_counter % 3 == 0)
;
	lda     _frame_counter
	jsr     pusha0
	lda     #$03
	jsr     tosumoda0
	cpx     #$00
	bne     L28B5
	cmp     #$00
	bne     L28B5
;
; map_ptr = combs;
;
	lda     #>(_combs)
	sta     _map_ptr+1
	lda     #<(_combs)
	sta     _map_ptr
;
; map = MAP_COMBS;
;
	txa
;
; else if (frame_counter % 3 == 1)
;
	jmp     L28A8
L28B5:	lda     _frame_counter
	jsr     pusha0
	lda     #$03
	jsr     tosumoda0
	cpx     #$00
	bne     L22F0
	cmp     #$01
	bne     L22F0
;
; map_ptr = vines;
;
	lda     #>(_vines)
	sta     _map_ptr+1
	lda     #<(_vines)
	sta     _map_ptr
;
; map = MAP_VINES;
;
	lda     #$02
;
; else
;
	jmp     L28A8
;
; map_ptr = outdoors;
;
L22F0:	lda     #>(_outdoors)
	sta     _map_ptr+1
	lda     #<(_outdoors)
	sta     _map_ptr
;
; map = MAP_OUTDOORS;
;
	lda     #$01
L28A8:	sta     _map
;
; load_bg_palette();
;
	jsr     _load_bg_palette
;
; load_room();
;
L22E6:	jsr     _load_room
;
; for (index = 0; index < 128; index++)
;
	lda     #$00
	sta     _index
L28AB:	lda     _index
	cmp     #$80
	bcs     L28AC
;
; consumed_dots[index] = 0;
;
	ldy     _index
	lda     #$00
	sta     _consumed_dots,y
;
; for (index = 0; index < 128; index++)
;
	inc     _index
	jmp     L28AB
;
; if (map == MAP_COMBS)
;
L28AC:	lda     _map
	bne     L28AD
;
; BoxGuy1.x = 0x3800;
;
	ldx     #$38
	sta     _BoxGuy1
	stx     _BoxGuy1+1
;
; BoxGuy1.y = 0xA800;
;
	ldx     #$A8
	sta     _BoxGuy1+2
	stx     _BoxGuy1+2+1
;
; BoxGuy2.x = 0x5000;
;
	ldx     #$50
	sta     _BoxGuy2
	stx     _BoxGuy2+1
;
; BoxGuy2.y = 0x2800;
;
	ldx     #$28
	sta     _BoxGuy2+2
	stx     _BoxGuy2+2+1
;
; BoxGuy3.x = 0xC000;
;
	ldx     #$C0
	sta     _BoxGuy3
	stx     _BoxGuy3+1
;
; BoxGuy3.y = 0xA800;
;
	ldx     #$A8
	sta     _BoxGuy3+2
	stx     _BoxGuy3+2+1
;
; BoxGuy4.x = 0xA000;
;
	ldx     #$A0
	sta     _BoxGuy4
	stx     _BoxGuy4+1
;
; BoxGuy4.y = 0x2800;
;
	ldx     #$28
;
; else if (map == MAP_VINES)
;
	jmp     L28B4
L28AD:	lda     _map
	cmp     #$02
	bne     L28AE
;
; BoxGuy1.x = 0x6000;
;
	ldx     #$60
	lda     #$00
	sta     _BoxGuy1
	stx     _BoxGuy1+1
;
; BoxGuy1.y = 0xA000;
;
	ldx     #$A0
	sta     _BoxGuy1+2
	stx     _BoxGuy1+2+1
;
; BoxGuy2.x = 0x4800;
;
	ldx     #$48
	sta     _BoxGuy2
	stx     _BoxGuy2+1
;
; BoxGuy2.y = 0x4800;
;
	sta     _BoxGuy2+2
	stx     _BoxGuy2+2+1
;
; BoxGuy3.x = 0x9800;
;
	ldx     #$98
	sta     _BoxGuy3
	stx     _BoxGuy3+1
;
; BoxGuy3.y = 0xA000;
;
	ldx     #$A0
	sta     _BoxGuy3+2
	stx     _BoxGuy3+2+1
;
; BoxGuy4.x = 0xB000;
;
	ldx     #$B0
	sta     _BoxGuy4
	stx     _BoxGuy4+1
;
; BoxGuy4.y = 0x4800;
;
	ldx     #$48
;
; else if (map == MAP_OUTDOORS)
;
	jmp     L28B4
L28AE:	lda     _map
	cmp     #$01
	bne     L28AF
;
; BoxGuy1.x = 0x2800;
;
	ldx     #$28
	lda     #$00
	sta     _BoxGuy1
	stx     _BoxGuy1+1
;
; BoxGuy1.y = 0x2000;
;
	ldx     #$20
	sta     _BoxGuy1+2
	stx     _BoxGuy1+2+1
;
; BoxGuy2.x = 0x2800;
;
	ldx     #$28
	sta     _BoxGuy2
	stx     _BoxGuy2+1
;
; BoxGuy2.y = 0xd800;
;
	ldx     #$D8
	sta     _BoxGuy2+2
	stx     _BoxGuy2+2+1
;
; BoxGuy3.x = 0xD800;
;
	sta     _BoxGuy3
	stx     _BoxGuy3+1
;
; BoxGuy3.y = 0x2000;
;
	ldx     #$20
	sta     _BoxGuy3+2
	stx     _BoxGuy3+2+1
;
; BoxGuy4.x = 0xD800;
;
	ldx     #$D8
	sta     _BoxGuy4
	stx     _BoxGuy4+1
;
; BoxGuy4.y = 0xD800;
;
L28B4:	sta     _BoxGuy4+2
	stx     _BoxGuy4+2+1
;
; team1_score = 0;
;
L28AF:	lda     #$00
	sta     _team1_score
;
; team2_score = 0;
;
	sta     _team2_score
;
; powerup1 = 1;
;
	lda     #$01
	sta     _powerup1
;
; powerup2 = 1;
;
	sta     _powerup2
;
; powerup3 = 1;
;
	sta     _powerup3
;
; powerup4 = 1;
;
	sta     _powerup4
;
; game_timer = GAME_LENGTH;
;
	lda     #$63
	sta     _game_timer
;
; win_reason = WIN_HONEY_COLLECTED; // default
;
	lda     #$20
	sta     _win_reason
;
; winner = UNDEFINED_WINNER;
;
	lda     #$00
	sta     _winner
;
; turbo_p1 = turbo_amount;
;
	lda     _turbo_amount
	sta     _turbo_p1
;
; turbo_p2 = turbo_amount;
;
	lda     _turbo_amount
	sta     _turbo_p2
;
; turbo_p3 = turbo_amount;
;
	lda     _turbo_amount
	sta     _turbo_p3
;
; turbo_p4 = turbo_amount;
;
	lda     _turbo_amount
	sta     _turbo_p4
;
; stun_p1 = 0;
;
	lda     #$00
	sta     _stun_p1
;
; stun_p2 = 0;
;
	sta     _stun_p2
;
; stun_p3 = 0;
;
	sta     _stun_p3
;
; quack2.moving = 0;
;
	sta     _quack2+5
;
; quack4.moving = 0;
;
	sta     _quack4+5
;
; quack2_cooldown = 0;
;
	sta     _quack2_cooldown
;
; quack4_cooldown = 0;
;
	sta     _quack4_cooldown
;
; bee1_bigbee_timer = 0;
;
	sta     _bee1_bigbee_timer
;
; bee3_bigbee_timer = 0;
;
	sta     _bee3_bigbee_timer
;
; ppu_wait_nmi();
;
	jsr     _ppu_wait_nmi
;
; oam_clear();
;
	jsr     _oam_clear
;
; draw_hud();
;
	jsr     _draw_hud
;
; update_hud();
;
	jsr     _update_hud
;
; draw_player_1();
;
	jsr     _draw_player_1
;
; draw_player_2();
;
	jsr     _draw_player_2
;
; draw_player_3();
;
	jsr     _draw_player_3
;
; draw_player_4();
;
	jsr     _draw_player_4
;
; oam_meta_spr(116, 100, gamesprites_big3_data);
;
	jsr     decsp2
	lda     #$74
	ldy     #$01
	sta     (sp),y
	lda     #$64
	dey
	sta     (sp),y
	lda     #<(_gamesprites_big3_data)
	ldx     #>(_gamesprites_big3_data)
	jsr     _oam_meta_spr
;
; sfx_play(SFX_TEAM1_DOT_COLLECT, 0);
;
	lda     #$00
	jsr     pusha
	jsr     _sfx_play
;
; ppu_wait_nmi();
;
	jsr     _ppu_wait_nmi
;
; delay(40);
;
	lda     #$28
	jsr     _delay
;
; oam_clear();
;
	jsr     _oam_clear
;
; draw_player_1();
;
	jsr     _draw_player_1
;
; draw_player_2();
;
	jsr     _draw_player_2
;
; draw_player_3();
;
	jsr     _draw_player_3
;
; draw_player_4();
;
	jsr     _draw_player_4
;
; ppu_wait_nmi();
;
	jsr     _ppu_wait_nmi
;
; oam_meta_spr(116, 100, gamesprites_big2_data);
;
	jsr     decsp2
	lda     #$74
	ldy     #$01
	sta     (sp),y
	lda     #$64
	dey
	sta     (sp),y
	lda     #<(_gamesprites_big2_data)
	ldx     #>(_gamesprites_big2_data)
	jsr     _oam_meta_spr
;
; sfx_play(SFX_TEAM1_DOT_COLLECT, 0);
;
	lda     #$00
	jsr     pusha
	jsr     _sfx_play
;
; delay(40);
;
	lda     #$28
	jsr     _delay
;
; oam_clear();
;
	jsr     _oam_clear
;
; draw_player_1();
;
	jsr     _draw_player_1
;
; draw_player_2();
;
	jsr     _draw_player_2
;
; draw_player_3();
;
	jsr     _draw_player_3
;
; draw_player_4();
;
	jsr     _draw_player_4
;
; ppu_wait_nmi();
;
	jsr     _ppu_wait_nmi
;
; oam_meta_spr(116, 100, gamesprites_big1_data);
;
	jsr     decsp2
	lda     #$74
	ldy     #$01
	sta     (sp),y
	lda     #$64
	dey
	sta     (sp),y
	lda     #<(_gamesprites_big1_data)
	ldx     #>(_gamesprites_big1_data)
	jsr     _oam_meta_spr
;
; sfx_play(SFX_TEAM1_DOT_COLLECT, 0);
;
	lda     #$00
	jsr     pusha
	jsr     _sfx_play
;
; delay(40);
;
	lda     #$28
	jsr     _delay
;
; oam_clear();
;
	jsr     _oam_clear
;
; draw_player_1();
;
	jsr     _draw_player_1
;
; draw_player_2();
;
	jsr     _draw_player_2
;
; draw_player_3();
;
	jsr     _draw_player_3
;
; draw_player_4();
;
	jsr     _draw_player_4
;
; ppu_wait_nmi();
;
	jsr     _ppu_wait_nmi
;
; sfx_play(SFX_START, 0);
;
	lda     #$08
	jsr     pusha
	lda     #$00
	jsr     _sfx_play
;
; delay(10);
;
	lda     #$0A
	jsr     _delay
;
; ppu_wait_nmi();
;
	jsr     _ppu_wait_nmi
;
; game_mode = MODE_GAME;
;
	lda     #$02
	sta     _game_mode
;
; if (settings_song == SONG_BEE)
;
	lda     _settings_song
;
; else if (settings_song == SONG_LAKE)
;
	beq     L28AA
	cmp     #$01
;
; else if (settings_song == SONG_HONEY)
;
	beq     L28AA
	cmp     #$02
;
; else if (settings_song == SONG_RANDOM)
;
	beq     L28AA
	cmp     #$03
	bne     L28B3
;
; if (frame_counter % 3 == 0)
;
	lda     _frame_counter
	jsr     pusha0
	lda     #$03
	jsr     tosumoda0
	cpx     #$00
	bne     L23BD
	cmp     #$00
;
; else if (frame_counter % 3 == 1)
;
	beq     L28AA
L23BD:	lda     _frame_counter
	jsr     pusha0
	lda     #$03
	jsr     tosumoda0
	cpx     #$00
	bne     L23C3
	cmp     #$01
;
; else
;
	beq     L28AA
;
; song = SONG_HONEY;
;
L23C3:	lda     #$02
L28AA:	sta     _song
;
; song = SONG_BEE; // TODO: add more songs then fix this
;
L28B3:	lda     #$00
	sta     _song
;
; music_play(song);
;
	jmp     _music_play

.endproc

; ---------------------------------------------------------------
; void __near__ roundover_loop (void)
; ---------------------------------------------------------------

.segment	"CODE"

.proc	_roundover_loop: near

.segment	"CODE"

;
; ++frame_counter;
;
L272D:	inc     _frame_counter
;
; draw_sprites();
;
	jsr     _draw_sprites
;
; update_hud();
;
	jsr     _update_hud
;
; draw_hud();
;
	jsr     _draw_hud
;
; ppu_wait_nmi();
;
	jsr     _ppu_wait_nmi
;
; read_controllers();
;
	jsr     _read_controllers
;
; if (pad1_new & PAD_START || pad2_new & PAD_START || pad3_new & PAD_START || pad4_new & PAD_START)
;
	lda     _pad1_new
	and     #$10
	bne     L28B6
	lda     _pad2_new
	and     #$10
	bne     L28B6
	lda     _pad3_new
	and     #$10
	bne     L28B6
	lda     _pad4_new
	and     #$10
	beq     L272D
;
; if (team1_wins >= 3)
;
L28B6:	lda     _team1_wins
	cmp     #$03
;
; init_gameover_loop();
;
	jcs     _init_gameover_loop
;
; else if (team2_wins >= 3)
;
	lda     _team2_wins
	cmp     #$03
;
; init_gameover_loop();
;
	jcs     _init_gameover_loop
;
; start_round();
;
	jmp     _start_round

.endproc

; ---------------------------------------------------------------
; void __near__ game_counters (void)
; ---------------------------------------------------------------

.segment	"CODE"

.proc	_game_counters: near

.segment	"CODE"

;
; frame_counter++;
;
	inc     _frame_counter
;
; game_frame_timer++;
;
	inc     _game_frame_timer
;
; sprite_rotation++;
;
	inc     _sprite_rotation
;
; if (game_frame_timer >= tick_frequency)
;
	lda     _game_frame_timer
	cmp     _tick_frequency
	bcs     L28C5
;
; }
;
	rts
;
; game_frame_timer = 0; // reset the frame timer
;
L28C5:	lda     #$00
	sta     _game_frame_timer
;
; game_timer--;
;
	dec     _game_timer
;
; if (game_timer == 0)
;
	bne     L28BB
;
; if (team1_score > team2_score)
;
	lda     _team1_score
	sec
	sbc     _team2_score
	bcc     L28B9
	beq     L28B9
;
; winner = ONETWO_WINNER;
;
	lda     #$01
	sta     _winner
;
; win_reason = WIN_MOST_HONEY_COLLECTED;
;
	sta     _win_reason
;
; sfx_play(SFX_TEAM1_WIN, 0);
;
	lda     #$02
;
; else if (team2_score > team1_score)
;
	jmp     L28C4
L28B9:	lda     _team2_score
	sec
	sbc     _team1_score
	bcc     L28BA
	beq     L28BA
;
; winner = THREEFOUR_WINNER;
;
	lda     #$02
	sta     _winner
;
; win_reason = WIN_MOST_HONEY_COLLECTED;
;
	lda     #$01
	sta     _win_reason
;
; sfx_play(SFX_TEAM2_WIN, 0);
;
	lda     #$03
;
; else
;
	jmp     L28C4
;
; winner = TIE_WINNER;
;
L28BA:	lda     #$03
	sta     _winner
;
; win_reason = WIN_TIMEUP;
;
	sta     _win_reason
;
; sfx_play(SFX_DRAW_GAME, 0);
;
	lda     #$04
L28C4:	jsr     pusha
	lda     #$00
	jsr     _sfx_play
;
; init_roundover();
;
	jsr     _init_roundover
;
; if (quack2_cooldown > 0)
;
L28BB:	lda     _quack2_cooldown
	beq     L28BC
;
; quack2_cooldown--;
;
	dec     _quack2_cooldown
;
; if (quack4_cooldown > 0)
;
L28BC:	lda     _quack4_cooldown
	beq     L28BD
;
; quack4_cooldown--;
;
	dec     _quack4_cooldown
;
; if (stun_p1 > 0)
;
L28BD:	lda     _stun_p1
	beq     L28BE
;
; stun_p1--;
;
	dec     _stun_p1
;
; if (stun_p2 > 0)
;
L28BE:	lda     _stun_p2
	beq     L28BF
;
; stun_p2--;
;
	dec     _stun_p2
;
; if (stun_p3 > 0)
;
L28BF:	lda     _stun_p3
	beq     L28C0
;
; stun_p3--;
;
	dec     _stun_p3
;
; if (stun_p4 > 0)
;
L28C0:	lda     _stun_p4
	beq     L28C1
;
; stun_p4--;
;
	dec     _stun_p4
;
; if (bee1_bigbee_timer > 0)
;
L28C1:	lda     _bee1_bigbee_timer
	beq     L28C2
;
; bee1_bigbee_timer--;
;
	dec     _bee1_bigbee_timer
;
; if (bee3_bigbee_timer > 0)
;
L28C2:	lda     _bee3_bigbee_timer
	beq     L277E
;
; bee3_bigbee_timer--;
;
	dec     _bee3_bigbee_timer
;
; }
;
L277E:	rts

.endproc

; ---------------------------------------------------------------
; void __near__ quack_movement (void)
; ---------------------------------------------------------------

.segment	"CODE"

.proc	_quack_movement: near

.segment	"CODE"

;
; if (quack2.moving)
;
	lda     _quack2+5
	jeq     L1D6F
;
; if (quack2.direction == DIR_LEFT)
;
	lda     _quack2+4
	cmp     #$02
	bne     L28CC
;
; quack2.x -= (speed_option + SPEED_QUACK);
;
	lda     _speed_option
	ldx     _speed_option+1
	clc
	adc     #$60
	bcc     L1D27
	inx
L1D27:	eor     #$FF
	sec
	adc     _quack2
	sta     _quack2
	txa
	eor     #$FF
	adc     _quack2+1
	sta     _quack2+1
;
; else if (quack2.direction == DIR_RIGHT)
;
	jmp     L28CF
L28CC:	lda     _quack2+4
	cmp     #$03
	bne     L28CD
;
; quack2.x += (speed_option + SPEED_QUACK);
;
	lda     _speed_option
	ldx     _speed_option+1
	clc
	adc     #$60
	bcc     L28C8
	inx
	clc
L28C8:	adc     _quack2
	sta     _quack2
	txa
	adc     _quack2+1
	sta     _quack2+1
;
; else if (quack2.direction == DIR_UP)
;
	jmp     L28CF
L28CD:	lda     _quack2+4
	bne     L28CE
;
; quack2.y -= (speed_option + SPEED_QUACK);
;
	lda     _speed_option
	ldx     _speed_option+1
	clc
	adc     #$60
	bcc     L1D35
	inx
L1D35:	eor     #$FF
	sec
	adc     _quack2+2
	sta     _quack2+2
	txa
	eor     #$FF
;
; else if (quack2.direction == DIR_DOWN)
;
	jmp     L28E2
L28CE:	lda     _quack2+4
	cmp     #$01
	bne     L28CF
;
; quack2.y += (speed_option + SPEED_QUACK);
;
	lda     _speed_option
	ldx     _speed_option+1
	clc
	adc     #$60
	bcc     L28C9
	inx
	clc
L28C9:	adc     _quack2+2
	sta     _quack2+2
	txa
L28E2:	adc     _quack2+2+1
	sta     _quack2+2+1
;
; temp_x2 = quack2.x >> 8;
;
L28CF:	lda     _quack2+1
	sta     _temp_x2
;
; temp_y2 = quack2.y >> 8;
;
	lda     _quack2+3
	sta     _temp_y2
;
; if (quack_tile_solid())
;
	jsr     _quack_tile_solid
	tax
	beq     L28D0
;
; quack2.moving = 0;
;
	lda     #$00
	sta     _quack2+5
;
; temp_x = BoxGuy1.x >> 8;
;
L28D0:	lda     _BoxGuy1+1
	sta     _temp_x
;
; temp_y = BoxGuy1.y >> 8;
;
	lda     _BoxGuy1+3
	sta     _temp_y
;
; temp_x2 = quack2.x >> 8;
;
	lda     _quack2+1
	sta     _temp_x2
;
; temp_y2 = quack2.y >> 8;
;
	lda     _quack2+3
	sta     _temp_y2
;
; if (sprite_collision())
;
	jsr     _sprite_collision
	tax
	beq     L28D2
;
; if (bee1_bigbee_timer == 0)
;
	lda     _bee1_bigbee_timer
	bne     L28D1
;
; stun_p1 = STUN_DURATION;
;
	lda     #$03
	sta     _stun_p1
;
; quack2.moving = 0;
;
L28D1:	lda     #$00
	sta     _quack2+5
;
; temp_x = BoxGuy2.x >> 8;
;
L28D2:	lda     _BoxGuy2+1
	sta     _temp_x
;
; temp_y = BoxGuy2.y >> 8;
;
	lda     _BoxGuy2+3
	sta     _temp_y
;
; if (sprite_collision())
;
	jsr     _sprite_collision
	tax
	beq     L28D3
;
; stun_p2 = STUN_DURATION;
;
	lda     #$03
	sta     _stun_p2
;
; quack2.moving = 0;
;
	lda     #$00
	sta     _quack2+5
;
; temp_x = BoxGuy3.x >> 8;
;
L28D3:	lda     _BoxGuy3+1
	sta     _temp_x
;
; temp_y = BoxGuy3.y >> 8;
;
	lda     _BoxGuy3+3
	sta     _temp_y
;
; if (sprite_collision())
;
	jsr     _sprite_collision
	tax
	beq     L28D5
;
; if (bee3_bigbee_timer == 0)
;
	lda     _bee3_bigbee_timer
	bne     L28D4
;
; stun_p3 = STUN_DURATION;
;
	lda     #$03
	sta     _stun_p3
;
; quack2.moving = 0;
;
L28D4:	lda     #$00
	sta     _quack2+5
;
; temp_x = BoxGuy4.x >> 8;
;
L28D5:	lda     _BoxGuy4+1
	sta     _temp_x
;
; temp_y = BoxGuy4.y >> 8;
;
	lda     _BoxGuy4+3
	sta     _temp_y
;
; if (sprite_collision())
;
	jsr     _sprite_collision
	tax
	beq     L1D6F
;
; stun_p4 = STUN_DURATION;
;
	lda     #$03
	sta     _stun_p4
;
; quack2.moving = 0;
;
	lda     #$00
	sta     _quack2+5
;
; if (quack4.moving)
;
L1D6F:	lda     _quack4+5
	bne     L28E4
;
; }
;
	rts
;
; if (quack4.direction == DIR_LEFT)
;
L28E4:	lda     _quack4+4
	cmp     #$02
	bne     L28D6
;
; quack4.x -= (speed_option + SPEED_QUACK);
;
	lda     _speed_option
	ldx     _speed_option+1
	clc
	adc     #$60
	bcc     L1D7C
	inx
L1D7C:	eor     #$FF
	sec
	adc     _quack4
	sta     _quack4
	txa
	eor     #$FF
	adc     _quack4+1
	sta     _quack4+1
;
; else if (quack4.direction == DIR_RIGHT)
;
	jmp     L28D9
L28D6:	lda     _quack4+4
	cmp     #$03
	bne     L28D7
;
; quack4.x += (speed_option + SPEED_QUACK);
;
	lda     _speed_option
	ldx     _speed_option+1
	clc
	adc     #$60
	bcc     L28CA
	inx
	clc
L28CA:	adc     _quack4
	sta     _quack4
	txa
	adc     _quack4+1
	sta     _quack4+1
;
; else if (quack4.direction == DIR_UP)
;
	jmp     L28D9
L28D7:	lda     _quack4+4
	bne     L28D8
;
; quack4.y -= (speed_option + SPEED_QUACK);
;
	lda     _speed_option
	ldx     _speed_option+1
	clc
	adc     #$60
	bcc     L1D8A
	inx
L1D8A:	eor     #$FF
	sec
	adc     _quack4+2
	sta     _quack4+2
	txa
	eor     #$FF
;
; else if (quack4.direction == DIR_DOWN)
;
	jmp     L28E3
L28D8:	lda     _quack4+4
	cmp     #$01
	bne     L28D9
;
; quack4.y += (speed_option + SPEED_QUACK);
;
	lda     _speed_option
	ldx     _speed_option+1
	clc
	adc     #$60
	bcc     L28CB
	inx
	clc
L28CB:	adc     _quack4+2
	sta     _quack4+2
	txa
L28E3:	adc     _quack4+2+1
	sta     _quack4+2+1
;
; temp_x2 = quack4.x >> 8;
;
L28D9:	lda     _quack4+1
	sta     _temp_x2
;
; temp_y2 = quack4.y >> 8;
;
	lda     _quack4+3
	sta     _temp_y2
;
; if (quack_tile_solid())
;
	jsr     _quack_tile_solid
	tax
	beq     L28DA
;
; quack4.moving = 0;
;
	lda     #$00
	sta     _quack4+5
;
; temp_x = BoxGuy1.x >> 8;
;
L28DA:	lda     _BoxGuy1+1
	sta     _temp_x
;
; temp_y = BoxGuy1.y >> 8;
;
	lda     _BoxGuy1+3
	sta     _temp_y
;
; temp_x2 = quack4.x >> 8;
;
	lda     _quack4+1
	sta     _temp_x2
;
; temp_y2 = quack4.y >> 8;
;
	lda     _quack4+3
	sta     _temp_y2
;
; if (sprite_collision())
;
	jsr     _sprite_collision
	tax
	beq     L28DC
;
; if (bee1_bigbee_timer == 0)
;
	lda     _bee1_bigbee_timer
	bne     L28DB
;
; stun_p1 = STUN_DURATION;
;
	lda     #$03
	sta     _stun_p1
;
; quack4.moving = 0;
;
L28DB:	lda     #$00
	sta     _quack4+5
;
; temp_x = BoxGuy2.x >> 8;
;
L28DC:	lda     _BoxGuy2+1
	sta     _temp_x
;
; temp_y = BoxGuy2.y >> 8;
;
	lda     _BoxGuy2+3
	sta     _temp_y
;
; if (sprite_collision())
;
	jsr     _sprite_collision
	tax
	beq     L28DD
;
; stun_p2 = STUN_DURATION;
;
	lda     #$03
	sta     _stun_p2
;
; quack4.moving = 0;
;
	lda     #$00
	sta     _quack4+5
;
; temp_x = BoxGuy3.x >> 8;
;
L28DD:	lda     _BoxGuy3+1
	sta     _temp_x
;
; temp_y = BoxGuy3.y >> 8;
;
	lda     _BoxGuy3+3
	sta     _temp_y
;
; if (sprite_collision())
;
	jsr     _sprite_collision
	tax
	beq     L28DF
;
; if (bee3_bigbee_timer == 0)
;
	lda     _bee3_bigbee_timer
	bne     L28DE
;
; stun_p3 = STUN_DURATION;
;
	lda     #$03
	sta     _stun_p3
;
; quack4.moving = 0;
;
L28DE:	lda     #$00
	sta     _quack4+5
;
; temp_x = BoxGuy4.x >> 8;
;
L28DF:	lda     _BoxGuy4+1
	sta     _temp_x
;
; temp_y = BoxGuy4.y >> 8;
;
	lda     _BoxGuy4+3
	sta     _temp_y
;
; if (sprite_collision())
;
	jsr     _sprite_collision
	tax
	beq     L1DC4
;
; stun_p4 = STUN_DURATION;
;
	lda     #$03
	sta     _stun_p4
;
; quack4.moving = 0;
;
	lda     #$00
	sta     _quack4+5
;
; }
;
L1DC4:	rts

.endproc

; ---------------------------------------------------------------
; void __near__ load_bg_palette (void)
; ---------------------------------------------------------------

.segment	"CODE"

.proc	_load_bg_palette: near

.segment	"CODE"

;
; if (map == MAP_OUTDOORS)
;
	lda     _map
	cmp     #$01
	bne     L28E5
;
; pal_bg(palette_outdoors_bg);
;
	lda     #<(_palette_outdoors_bg)
	ldx     #>(_palette_outdoors_bg)
	jmp     _pal_bg
;
; else if (map == MAP_COMBS)
;
L28E5:	lda     _map
	bne     L28E6
;
; pal_bg(palette_combsnplants_bg);
;
	lda     #<(_palette_combsnplants_bg)
	ldx     #>(_palette_combsnplants_bg)
	jmp     _pal_bg
;
; else if (map == MAP_VINES)
;
L28E6:	lda     _map
	cmp     #$02
	bne     L2435
;
; pal_bg(palette_vineswoflowers_bg);
;
	lda     #<(_palette_vineswoflowers_bg)
	ldx     #>(_palette_vineswoflowers_bg)
	jmp     _pal_bg
;
; }
;
L2435:	rts

.endproc

; ---------------------------------------------------------------
; void __near__ update_options_screen (void)
; ---------------------------------------------------------------

.segment	"CODE"

.proc	_update_options_screen: near

.segment	"CODE"

;
; temp_x = 64;
;
	lda     #$40
	sta     _temp_x
;
; if (current_settings_choice == SETTING_SPEED)
;
	lda     _current_settings_choice
	bne     L28EA
;
; temp_y = 96;
;
	lda     #$60
;
; else if (current_settings_choice == SETTING_MAP)
;
	jmp     L28E7
L28EA:	lda     _current_settings_choice
	cmp     #$01
	bne     L28EB
;
; temp_y = 128;
;
	lda     #$80
;
; else if (current_settings_choice == SETTING_SONG)
;
	jmp     L28E7
L28EB:	lda     _current_settings_choice
	cmp     #$02
	bne     L246A
;
; temp_y = 160;
;
	lda     #$A0
L28E7:	sta     _temp_y
;
; multi_vram_buffer_horz("SPEED:", 6, NTADR_A(8, 10));
;
L246A:	jsr     decsp3
	lda     #<(L246F)
	ldy     #$01
	sta     (sp),y
	iny
	lda     #>(L246F)
	sta     (sp),y
	lda     #$06
	ldy     #$00
	sta     (sp),y
	ldx     #$21
	lda     #$48
	jsr     _multi_vram_buffer_horz
;
; if (settings_speed == GAME_SLOW)
;
	lda     _settings_speed
	bne     L28EC
;
; multi_vram_buffer_horz("SLOW   ", 7, NTADR_A(11, 12));
;
	jsr     decsp3
	lda     #<(L247B)
	ldy     #$01
	sta     (sp),y
	iny
	lda     #>(L247B)
;
; else if (settings_speed == GAME_REGULAR)
;
	jmp     L28FD
L28EC:	lda     _settings_speed
	cmp     #$01
	bne     L28ED
;
; multi_vram_buffer_horz("REGULAR", 7, NTADR_A(11, 12));
;
	jsr     decsp3
	lda     #<(L2488)
	ldy     #$01
	sta     (sp),y
	iny
	lda     #>(L2488)
;
; else if (settings_speed == GAME_FAST)
;
	jmp     L28FD
L28ED:	lda     _settings_speed
	cmp     #$02
	bne     L2492
;
; multi_vram_buffer_horz("FAST   ", 7, NTADR_A(11, 12));
;
	jsr     decsp3
	lda     #<(L2495)
	ldy     #$01
	sta     (sp),y
	iny
	lda     #>(L2495)
L28FD:	sta     (sp),y
	lda     #$07
	ldy     #$00
	sta     (sp),y
	ldx     #$21
	lda     #$8B
	jsr     _multi_vram_buffer_horz
;
; multi_vram_buffer_horz("MAP:", 4, NTADR_A(8, 14));
;
L2492:	jsr     decsp3
	lda     #<(L249F)
	ldy     #$01
	sta     (sp),y
	iny
	lda     #>(L249F)
	sta     (sp),y
	lda     #$04
	ldy     #$00
	sta     (sp),y
	ldx     #$21
	lda     #$C8
	jsr     _multi_vram_buffer_horz
;
; if (settings_map == MAP_RANDOM)
;
	lda     _settings_map
	cmp     #$03
	bne     L28EE
;
; multi_vram_buffer_horz("RANDOM  ", 8, NTADR_A(11, 16));
;
	jsr     decsp3
	lda     #<(L24AB)
	ldy     #$01
	sta     (sp),y
	iny
	lda     #>(L24AB)
;
; else if (settings_map == MAP_OUTDOORS)
;
	jmp     L28FE
L28EE:	lda     _settings_map
	cmp     #$01
	bne     L28EF
;
; multi_vram_buffer_horz("OUTDOORS", 8, NTADR_A(11, 16));
;
	jsr     decsp3
	lda     #<(L24B8)
	ldy     #$01
	sta     (sp),y
	iny
	lda     #>(L24B8)
;
; else if (settings_map == MAP_COMBS)
;
	jmp     L28FE
L28EF:	lda     _settings_map
	bne     L28F0
;
; multi_vram_buffer_horz("COMBS   ", 8, NTADR_A(11, 16));
;
	jsr     decsp3
	lda     #<(L24C5)
	ldy     #$01
	sta     (sp),y
	iny
	lda     #>(L24C5)
;
; else if (settings_map == MAP_VINES)
;
	jmp     L28FE
L28F0:	lda     _settings_map
	cmp     #$02
	bne     L24CF
;
; multi_vram_buffer_horz("VINES   ", 8, NTADR_A(11, 16));
;
	jsr     decsp3
	lda     #<(L24D2)
	ldy     #$01
	sta     (sp),y
	iny
	lda     #>(L24D2)
L28FE:	sta     (sp),y
	lda     #$08
	ldy     #$00
	sta     (sp),y
	ldx     #$22
	lda     #$0B
	jsr     _multi_vram_buffer_horz
;
; multi_vram_buffer_horz("MUSIC:", 6, NTADR_A(8, 18));
;
L24CF:	jsr     decsp3
	lda     #<(L24DC)
	ldy     #$01
	sta     (sp),y
	iny
	lda     #>(L24DC)
	sta     (sp),y
	lda     #$06
	ldy     #$00
	sta     (sp),y
	ldx     #$22
	lda     #$48
	jsr     _multi_vram_buffer_horz
;
; if (settings_song == SONG_BEE)
;
	lda     _settings_song
	bne     L28F1
;
; multi_vram_buffer_horz("BEE  ", 5, NTADR_A(11, 20));
;
	jsr     decsp3
	lda     #<(L24E8)
	ldy     #$01
	sta     (sp),y
	iny
	lda     #>(L24E8)
	sta     (sp),y
	lda     #$05
	ldy     #$00
	sta     (sp),y
	ldx     #$22
	lda     #$8B
	jmp     _multi_vram_buffer_horz
;
; else if (settings_song == SONG_LAKE)
;
L28F1:	lda     _settings_song
	cmp     #$01
	bne     L28F2
;
; multi_vram_buffer_horz("LAKE ", 5, NTADR_A(11, 20));
;
	jsr     decsp3
	lda     #<(L24F5)
	ldy     #$01
	sta     (sp),y
	iny
	lda     #>(L24F5)
	sta     (sp),y
	lda     #$05
	ldy     #$00
	sta     (sp),y
	ldx     #$22
	lda     #$8B
	jmp     _multi_vram_buffer_horz
;
; else if (settings_song == SONG_HONEY)
;
L28F2:	lda     _settings_song
	cmp     #$02
	bne     L24FF
;
; multi_vram_buffer_horz("HONEY", 5, NTADR_A(11, 20));
;
	jsr     decsp3
	lda     #<(L2502)
	ldy     #$01
	sta     (sp),y
	iny
	lda     #>(L2502)
	sta     (sp),y
	lda     #$05
	ldy     #$00
	sta     (sp),y
	ldx     #$22
	lda     #$8B
	jmp     _multi_vram_buffer_horz
;
; }
;
L24FF:	rts

.endproc

; ---------------------------------------------------------------
; void __near__ draw_win_round_sprite (void)
; ---------------------------------------------------------------

.segment	"CODE"

.proc	_draw_win_round_sprite: near

.segment	"CODE"

;
; if (temp_win_reason == WIN_HONEY_COLLECTED)
;
	lda     _temp_win_reason
	cmp     #$20
	bne     L28FF
;
; oam_meta_spr(temp_x, temp_y, gamesprites_win_icon_honey);
;
	jsr     decsp2
	lda     _temp_x
	ldy     #$01
	sta     (sp),y
	lda     _temp_y
	dey
	sta     (sp),y
	lda     #<(_gamesprites_win_icon_honey)
	ldx     #>(_gamesprites_win_icon_honey)
	jmp     _oam_meta_spr
;
; else if (temp_win_reason == WIN_MOST_HONEY_COLLECTED)
;
L28FF:	lda     _temp_win_reason
	cmp     #$01
	bne     L2900
;
; oam_meta_spr(temp_x, temp_y, gamesprites_win_icon_time);
;
	jsr     decsp2
	lda     _temp_x
	ldy     #$01
	sta     (sp),y
	lda     _temp_y
	dey
	sta     (sp),y
	lda     #<(_gamesprites_win_icon_time)
	ldx     #>(_gamesprites_win_icon_time)
	jmp     _oam_meta_spr
;
; else if (temp_win_reason == WIN_BEE_EATEN)
;
L2900:	lda     _temp_win_reason
	cmp     #$04
	bne     L2901
;
; if (temp_win_team == 1)
;
	lda     _temp_win_team
	cmp     #$01
	bne     L1C73
;
; oam_meta_spr(temp_x, temp_y, gamesprites_win_redduck);
;
	jsr     decsp2
	lda     _temp_x
	ldy     #$01
	sta     (sp),y
	lda     _temp_y
	dey
	sta     (sp),y
	lda     #<(_gamesprites_win_redduck)
	ldx     #>(_gamesprites_win_redduck)
	jmp     _oam_meta_spr
;
; oam_meta_spr(temp_x, temp_y, gamesprites_win_blueduck);
;
L1C73:	jsr     decsp2
	lda     _temp_x
	ldy     #$01
	sta     (sp),y
	lda     _temp_y
	dey
	sta     (sp),y
	lda     #<(_gamesprites_win_blueduck)
	ldx     #>(_gamesprites_win_blueduck)
	jmp     _oam_meta_spr
;
; else if (temp_win_reason == WIN_DUCK_EATEN)
;
L2901:	lda     _temp_win_reason
	cmp     #$02
	bne     L2902
;
; if (temp_win_team == 1)
;
	lda     _temp_win_team
	cmp     #$01
	bne     L1C81
;
; oam_meta_spr(temp_x, temp_y, gamesprites_win_redbee);
;
	jsr     decsp2
	lda     _temp_x
	ldy     #$01
	sta     (sp),y
	lda     _temp_y
	dey
	sta     (sp),y
	lda     #<(_gamesprites_win_redbee)
	ldx     #>(_gamesprites_win_redbee)
	jmp     _oam_meta_spr
;
; oam_meta_spr(temp_x, temp_y, gamesprites_win_bluebee);
;
L1C81:	jsr     decsp2
	lda     _temp_x
	ldy     #$01
	sta     (sp),y
	lda     _temp_y
	dey
	sta     (sp),y
	lda     #<(_gamesprites_win_bluebee)
	ldx     #>(_gamesprites_win_bluebee)
	jmp     _oam_meta_spr
;
; else if (temp_win_reason == WIN_FRIENDLY_FIRE_BEE_EATEN)
;
L2902:	lda     _temp_win_reason
	cmp     #$10
	bne     L2903
;
; if (temp_win_team == 1)
;
	lda     _temp_win_team
	cmp     #$01
	bne     L1C8F
;
; oam_meta_spr(temp_x, temp_y, gamesprites_win_blueduck);
;
	jsr     decsp2
	lda     _temp_x
	ldy     #$01
	sta     (sp),y
	lda     _temp_y
	dey
	sta     (sp),y
	lda     #<(_gamesprites_win_blueduck)
	ldx     #>(_gamesprites_win_blueduck)
	jmp     _oam_meta_spr
;
; oam_meta_spr(temp_x, temp_y, gamesprites_win_redduck);
;
L1C8F:	jsr     decsp2
	lda     _temp_x
	ldy     #$01
	sta     (sp),y
	lda     _temp_y
	dey
	sta     (sp),y
	lda     #<(_gamesprites_win_redduck)
	ldx     #>(_gamesprites_win_redduck)
	jmp     _oam_meta_spr
;
; else if (temp_win_reason == WIN_FRIENDLY_FIRE_DUCK_EATEN)
;
L2903:	lda     _temp_win_reason
	cmp     #$08
	bne     L1CA3
;
; if (temp_win_team == 1)
;
	lda     _temp_win_team
	cmp     #$01
	bne     L1C9D
;
; oam_meta_spr(temp_x, temp_y, gamesprites_win_bluebee);
;
	jsr     decsp2
	lda     _temp_x
	ldy     #$01
	sta     (sp),y
	lda     _temp_y
	dey
	sta     (sp),y
	lda     #<(_gamesprites_win_bluebee)
	ldx     #>(_gamesprites_win_bluebee)
	jmp     _oam_meta_spr
;
; oam_meta_spr(temp_x, temp_y, gamesprites_win_redbee);
;
L1C9D:	jsr     decsp2
	lda     _temp_x
	ldy     #$01
	sta     (sp),y
	lda     _temp_y
	dey
	sta     (sp),y
	lda     #<(_gamesprites_win_redbee)
	ldx     #>(_gamesprites_win_redbee)
	jmp     _oam_meta_spr
;
; }
;
L1CA3:	rts

.endproc

; ---------------------------------------------------------------
; void __near__ display_round_summary (void)
; ---------------------------------------------------------------

.segment	"CODE"

.proc	_display_round_summary: near

.segment	"CODE"

;
; if (temp_winner == TEAM1_WIN)
;
	lda     _temp_winner
	cmp     #$80
	bne     L2905
;
; multi_vram_buffer_horz("TEAM 1", 7, NTADR_A(16, temp_y));
;
	jsr     decsp3
	lda     #<(L25FB)
	ldy     #$01
	sta     (sp),y
	iny
	lda     #>(L25FB)
;
; else if (temp_winner == TEAM2_WIN)
;
	jmp     L291B
L2905:	lda     _temp_winner
	cmp     #$40
	bne     L2906
;
; multi_vram_buffer_horz("TEAM 2", 7, NTADR_A(16, temp_y));
;
	jsr     decsp3
	lda     #<(L2608)
	ldy     #$01
	sta     (sp),y
	iny
	lda     #>(L2608)
L291B:	sta     (sp),y
	lda     #$07
	ldy     #$00
	sta     (sp),y
	ldx     #$00
	lda     _temp_y
	jsr     aslax4
	stx     tmp1
	asl     a
	rol     tmp1
	ora     #$10
	pha
	lda     tmp1
	ora     #$20
	tax
	pla
	jsr     _multi_vram_buffer_horz
;
; if((temp_round == WIN_HONEY_COLLECTED))
;
L2906:	lda     _temp_round
	cmp     #$20
	bne     L2907
;
; multi_vram_buffer_horz("100 HONEY COLLECTED", 19, NTADR_A(7, temp_y+1));
;
	jsr     decsp3
	lda     #<(L2615)
	ldy     #$01
	sta     (sp),y
	iny
	lda     #>(L2615)
	sta     (sp),y
	lda     #$13
	ldy     #$00
	sta     (sp),y
	ldx     #$00
	lda     _temp_y
	clc
	adc     #$01
	bcc     L261D
	inx
L261D:	jsr     shlax4
	stx     tmp1
	asl     a
	rol     tmp1
	ora     #$07
	pha
	lda     tmp1
	ora     #$20
	tax
	pla
	jmp     _multi_vram_buffer_horz
;
; else if(temp_round == WIN_FRIENDLY_FIRE_BEE_EATEN)
;
L2907:	lda     _temp_round
	cmp     #$10
	bne     L2908
;
; multi_vram_buffer_horz("ENEMY ATE THEIR BEE", 19, NTADR_A(7, temp_y+1));
;
	jsr     decsp3
	lda     #<(L2623)
	ldy     #$01
	sta     (sp),y
	iny
	lda     #>(L2623)
	sta     (sp),y
	lda     #$13
	ldy     #$00
	sta     (sp),y
	ldx     #$00
	lda     _temp_y
	clc
	adc     #$01
	bcc     L262B
	inx
L262B:	jsr     shlax4
	stx     tmp1
	asl     a
	rol     tmp1
	ora     #$07
	pha
	lda     tmp1
	ora     #$20
	tax
	pla
	jmp     _multi_vram_buffer_horz
;
; else if(temp_round == WIN_FRIENDLY_FIRE_DUCK_EATEN)
;
L2908:	lda     _temp_round
	cmp     #$08
	bne     L2909
;
; multi_vram_buffer_horz("ENEMY ATE THEIR DUCK", 20, NTADR_A(7, temp_y+1));
;
	jsr     decsp3
	lda     #<(L2631)
	ldy     #$01
	sta     (sp),y
	iny
	lda     #>(L2631)
	sta     (sp),y
	lda     #$14
	ldy     #$00
	sta     (sp),y
	ldx     #$00
	lda     _temp_y
	clc
	adc     #$01
	bcc     L2639
	inx
L2639:	jsr     shlax4
	stx     tmp1
	asl     a
	rol     tmp1
	ora     #$07
	pha
	lda     tmp1
	ora     #$20
	tax
	pla
	jmp     _multi_vram_buffer_horz
;
; else if(temp_round == WIN_BEE_EATEN)
;
L2909:	lda     _temp_round
	cmp     #$04
	bne     L290A
;
; multi_vram_buffer_horz("ENEMY BEE EATEN", 15, NTADR_A(7, temp_y+1));
;
	jsr     decsp3
	lda     #<(L263F)
	ldy     #$01
	sta     (sp),y
	iny
	lda     #>(L263F)
	sta     (sp),y
	lda     #$0F
	ldy     #$00
	sta     (sp),y
	ldx     #$00
	lda     _temp_y
	clc
	adc     #$01
	bcc     L2647
	inx
L2647:	jsr     shlax4
	stx     tmp1
	asl     a
	rol     tmp1
	ora     #$07
	pha
	lda     tmp1
	ora     #$20
	tax
	pla
	jmp     _multi_vram_buffer_horz
;
; else if(temp_round == WIN_DUCK_EATEN)
;
L290A:	lda     _temp_round
	cmp     #$02
	bne     L290B
;
; multi_vram_buffer_horz("ENEMY DUCK EATEN", 16, NTADR_A(7, temp_y+1));
;
	jsr     decsp3
	lda     #<(L264D)
	ldy     #$01
	sta     (sp),y
	iny
	lda     #>(L264D)
	sta     (sp),y
	lda     #$10
	ldy     #$00
	sta     (sp),y
	ldx     #$00
	lda     _temp_y
	clc
	adc     #$01
	bcc     L2655
	inx
L2655:	jsr     shlax4
	stx     tmp1
	asl     a
	rol     tmp1
	ora     #$07
	pha
	lda     tmp1
	ora     #$20
	tax
	pla
	jmp     _multi_vram_buffer_horz
;
; else if (temp_round == WIN_MOST_HONEY_COLLECTED)
;
L290B:	lda     _temp_round
	cmp     #$01
	bne     L2658
;
; multi_vram_buffer_horz("COLLECTED MORE HONEY", 20, NTADR_A(7, temp_y+1));
;
	jsr     decsp3
	lda     #<(L265B)
	ldy     #$01
	sta     (sp),y
	iny
	lda     #>(L265B)
	sta     (sp),y
	lda     #$14
	ldy     #$00
	sta     (sp),y
	ldx     #$00
	lda     _temp_y
	clc
	adc     #$01
	bcc     L2663
	inx
L2663:	jsr     shlax4
	stx     tmp1
	asl     a
	rol     tmp1
	ora     #$07
	pha
	lda     tmp1
	ora     #$20
	tax
	pla
	jmp     _multi_vram_buffer_horz
;
; }
;
L2658:	rts

.endproc

; ---------------------------------------------------------------
; unsigned char __near__ bg_collision_sub (void)
; ---------------------------------------------------------------

.segment	"CODE"

.proc	_bg_collision_sub: near

.segment	"CODE"

;
; if (temp_y >= 0xf0)
;
	lda     _temp_y
	cmp     #$F0
	ldx     #$00
	bcc     L291C
;
; return 0;
;
	txa
	rts
;
; temp = map_ptr[((temp_y >> 3) << 5) + (temp_x >> 3)];
;
L291C:	lda     _temp_y
	lsr     a
	lsr     a
	lsr     a
	jsr     aslax4
	stx     tmp1
	asl     a
	rol     tmp1
	ldx     tmp1
	sta     ptr1
	stx     ptr1+1
	lda     _temp_x
	lsr     a
	lsr     a
	lsr     a
	clc
	adc     ptr1
	pha
	lda     #$00
	adc     ptr1+1
	tax
	pla
	clc
	adc     _map_ptr
	sta     ptr1
	txa
	adc     _map_ptr+1
	sta     ptr1+1
	ldy     #$00
	lda     (ptr1),y
	sta     _temp
;
; if (temp == 0xc6 || temp == 0xc7 || temp == 0xc8 || temp == 0xc9 || temp == 0xca || temp == 0xa5)
;
	cmp     #$C6
	beq     L291D
	lda     _temp
	cmp     #$C7
	beq     L291D
	cmp     #$C8
	beq     L291D
	cmp     #$C9
	beq     L291D
	cmp     #$CA
	beq     L291D
	cmp     #$A5
	bne     L291E
;
; return 0;
;
L291D:	ldx     #$00
	txa
	rts
;
; else if (temp == 0xb6 || temp == 0xb7 || temp == 0xb8 || temp == 0xb9 || temp == 0xba || temp == 0x00 || temp == 0x69 || temp == 0x6a || temp == 0x6b)
;
L291E:	lda     _temp
	cmp     #$B6
	beq     L291F
	cmp     #$B7
	beq     L291F
	cmp     #$B8
	beq     L291F
	cmp     #$B9
	beq     L291F
	cmp     #$BA
	beq     L291F
	lda     _temp
	beq     L291F
	cmp     #$69
	beq     L291F
	cmp     #$6A
	beq     L291F
	cmp     #$6B
	beq     L291F
	ldx     #$00
	jmp     L2920
;
; return 0;
;
L291F:	ldx     #$00
	txa
	rts
;
; return 1;
;
L2920:	lda     #$01
;
; }
;
	rts

.endproc

; ---------------------------------------------------------------
; unsigned char __near__ bg_coll_L (void)
; ---------------------------------------------------------------

.segment	"CODE"

.proc	_bg_coll_L: near

.segment	"CODE"

;
; temp_x = Generic.x;
;
	lda     _Generic
	sta     _temp_x
;
; eject_L = temp_x & 0x07; // distance to next tile boundary
;
	and     #$07
	sta     _eject_L
;
; temp_y = Generic.y + 2;
;
	lda     _Generic+1
	clc
	adc     #$02
	sta     _temp_y
;
; if (bg_collision_sub())
;
	jsr     _bg_collision_sub
	tax
	beq     L2922
;
; return 1;
;
	ldx     #$00
	lda     #$01
	rts
;
; temp_y = Generic.y + Generic.height;
;
L2922:	lda     _Generic+1
	clc
	adc     _Generic+3
	sta     _temp_y
;
; temp_y -= 2;
;
	sec
	sbc     #$02
	sta     _temp_y
;
; if (bg_collision_sub())
;
	jsr     _bg_collision_sub
	tax
	beq     L2924
;
; return 1;
;
	ldx     #$00
	lda     #$01
	rts
;
; }
;
L2924:	rts

.endproc

; ---------------------------------------------------------------
; unsigned char __near__ bg_coll_R (void)
; ---------------------------------------------------------------

.segment	"CODE"

.proc	_bg_coll_R: near

.segment	"CODE"

;
; temp_x = Generic.x + Generic.width;
;
	lda     _Generic
	clc
	adc     _Generic+2
	sta     _temp_x
;
; eject_R = 8 - (temp_x & 0x07); // distance to next tile boundary
;
	lda     #$08
	jsr     pusha0
	lda     _temp_x
	and     #$07
	jsr     tossuba0
	sta     _eject_R
;
; temp_y = Generic.y + 2;
;
	lda     _Generic+1
	clc
	adc     #$02
	sta     _temp_y
;
; if (bg_collision_sub())
;
	jsr     _bg_collision_sub
	tax
	beq     L2927
;
; return 1;
;
	ldx     #$00
	lda     #$01
	rts
;
; temp_y = Generic.y + Generic.height;
;
L2927:	lda     _Generic+1
	clc
	adc     _Generic+3
	sta     _temp_y
;
; temp_y -= 2;
;
	sec
	sbc     #$02
	sta     _temp_y
;
; if (bg_collision_sub())
;
	jsr     _bg_collision_sub
	tax
	beq     L2929
;
; return 1;
;
	ldx     #$00
	lda     #$01
	rts
;
; }
;
L2929:	rts

.endproc

; ---------------------------------------------------------------
; unsigned char __near__ bg_coll_U (void)
; ---------------------------------------------------------------

.segment	"CODE"

.proc	_bg_coll_U: near

.segment	"CODE"

;
; temp_x = Generic.x + 2;
;
	lda     _Generic
	clc
	adc     #$02
	sta     _temp_x
;
; temp_y = Generic.y;
;
	lda     _Generic+1
	sta     _temp_y
;
; eject_U = temp_y & 0x07; // distance to next tile boundary
;
	and     #$07
	sta     _eject_U
;
; if (bg_collision_sub())
;
	jsr     _bg_collision_sub
	tax
	beq     L292B
;
; return 1;
;
	ldx     #$00
	lda     #$01
	rts
;
; temp_x = Generic.x + Generic.width;
;
L292B:	lda     _Generic
	clc
	adc     _Generic+2
	sta     _temp_x
;
; temp_x -= 2;
;
	sec
	sbc     #$02
	sta     _temp_x
;
; if (bg_collision_sub())
;
	jsr     _bg_collision_sub
	tax
	beq     L292D
;
; return 1;
;
	ldx     #$00
	lda     #$01
	rts
;
; }
;
L292D:	rts

.endproc

; ---------------------------------------------------------------
; unsigned char __near__ bg_coll_D (void)
; ---------------------------------------------------------------

.segment	"CODE"

.proc	_bg_coll_D: near

.segment	"CODE"

;
; temp_x = Generic.x + 2;
;
	lda     _Generic
	clc
	adc     #$02
	sta     _temp_x
;
; temp_y = Generic.y + Generic.height;
;
	lda     _Generic+1
	clc
	adc     _Generic+3
	sta     _temp_y
;
; eject_D = 8 - (temp_y & 0x07); // distance to next tile boundary
;
	lda     #$08
	jsr     pusha0
	lda     _temp_y
	and     #$07
	jsr     tossuba0
	sta     _eject_D
;
; if (bg_collision_sub())
;
	jsr     _bg_collision_sub
	tax
	beq     L2930
;
; return 1;
;
	ldx     #$00
	lda     #$01
	rts
;
; temp_x = Generic.x + Generic.width;
;
L2930:	lda     _Generic
	clc
	adc     _Generic+2
	sta     _temp_x
;
; temp_x -= 2;
;
	sec
	sbc     #$02
	sta     _temp_x
;
; if (bg_collision_sub())
;
	jsr     _bg_collision_sub
	tax
	beq     L2932
;
; return 1;
;
	ldx     #$00
	lda     #$01
	rts
;
; }
;
L2932:	rts

.endproc

; ---------------------------------------------------------------
; unsigned char __near__ sprite_collision (void)
; ---------------------------------------------------------------

.segment	"CODE"

.proc	_sprite_collision: near

.segment	"CODE"

;
; if (temp_x < temp_x2 + collision_box_size && temp_x + collision_box_size > temp_x2 &&
;
	lda     _temp_x
	jsr     pusha0
	lda     _temp_x2
	clc
	adc     _collision_box_size
	bcc     L2933
	ldx     #$01
L2933:	jsr     tosicmp
	bcs     L207B
	ldx     #$00
	lda     _temp_x
	clc
	adc     _collision_box_size
	bcc     L2934
	inx
L2934:	sec
	sbc     _temp_x2
	sta     tmp1
	txa
	sbc     #$00
	ora     tmp1
	bcc     L207B
	beq     L207B
;
; temp_y < temp_y2 + collision_box_size && temp_y + collision_box_size > temp_y2)
;
	lda     _temp_y
	jsr     pusha0
	lda     _temp_y2
	clc
	adc     _collision_box_size
	bcc     L2935
	ldx     #$01
L2935:	jsr     tosicmp
	bcs     L207B
	ldx     #$00
	lda     _temp_y
	clc
	adc     _collision_box_size
	bcc     L2936
	inx
L2936:	sec
	sbc     _temp_y2
	sta     tmp1
	txa
	sbc     #$00
	ora     tmp1
	beq     L207B
	bcs     L207A
L207B:	ldx     #$00
	txa
	rts
;
; return 1;
;
L207A:	ldx     #$00
	lda     #$01
	rts

.endproc

; ---------------------------------------------------------------
; unsigned char __near__ check_powerup_collision (void)
; ---------------------------------------------------------------

.segment	"CODE"

.proc	_check_powerup_collision: near

.segment	"CODE"

;
; if (temp_x + 4 >= temp_x2 && temp_x + 4 < temp_x2 + 16 &&
;
	ldx     #$00
	lda     _temp_x
	clc
	adc     #$04
	bcc     L2083
	inx
L2083:	cmp     _temp_x2
	txa
	sbc     #$00
	lda     #$00
	tax
	bcc     L293C
	lda     _temp_x
	clc
	adc     #$04
	bcc     L2085
	inx
L2085:	jsr     pushax
	ldx     #$00
	lda     _temp_x2
	clc
	adc     #$10
	bcc     L2086
	inx
L2086:	jsr     tosicmp
	bcs     L2084
;
; temp_y + 4 >= temp_y2 && temp_y + 4 < temp_y2 + 16)
;
	ldx     #$00
	lda     _temp_y
	clc
	adc     #$04
	bcc     L2087
	inx
L2087:	cmp     _temp_y2
	txa
	sbc     #$00
	lda     #$00
	tax
	bcc     L293C
	lda     _temp_y
	clc
	adc     #$04
	bcc     L2088
	inx
L2088:	jsr     pushax
	ldx     #$00
	lda     _temp_y2
	clc
	adc     #$10
	bcc     L2089
	inx
L2089:	jsr     tosicmp
	bcc     L2082
L2084:	ldx     #$00
	txa
	rts
;
; return 1;
;
L2082:	ldx     #$00
	lda     #$01
	rts
;
; }
;
L293C:	rts

.endproc

; ---------------------------------------------------------------
; void __near__ main (void)
; ---------------------------------------------------------------

.segment	"CODE"

.proc	_main: near

.segment	"CODE"

;
; init_system();
;
	jsr     _init_system
;
; init_title_loop();
;
	jsr     _init_title_loop
;
; if (game_mode == MODE_TITLE)
;
L293D:	lda     _game_mode
	bne     L293E
;
; title_loop();
;
	jsr     _title_loop
;
; if (game_mode == MODE_OPTIONS)
;
L293E:	lda     _game_mode
	cmp     #$01
	bne     L293F
;
; options_loop();
;
	jsr     _options_loop
;
; if (game_mode == MODE_GAME)
;
L293F:	lda     _game_mode
	cmp     #$02
	bne     L2940
;
; game_loop();
;
	jsr     _game_loop
;
; if (game_mode == MODE_GAMEOVER)
;
L2940:	lda     _game_mode
	cmp     #$03
	bne     L2941
;
; gameover_loop();
;
	jsr     _gameover_loop
;
; if (game_mode == MODE_ROUNDOVER)
;
L2941:	lda     _game_mode
	cmp     #$04
	bne     L293D
;
; roundover_loop();
;
	jsr     _roundover_loop
;
; while (1)
;
	jmp     L293D

.endproc

; ---------------------------------------------------------------
; unsigned char __near__ quack_tile_solid (void)
; ---------------------------------------------------------------

.segment	"CODE"

.proc	_quack_tile_solid: near

.segment	"CODE"

;
; if (temp_y2 >= 0xf0)
;
	lda     _temp_y2
	cmp     #$F0
	ldx     #$00
	bcc     L2942
;
; return 0;
;
	txa
	rts
;
; largeindex = ((temp_y2 >> 3) << 5) + (temp_x2 >> 3);
;
L2942:	lda     _temp_y2
	lsr     a
	lsr     a
	lsr     a
	jsr     aslax4
	stx     tmp1
	asl     a
	rol     tmp1
	ldx     tmp1
	sta     ptr1
	stx     ptr1+1
	lda     _temp_x2
	lsr     a
	lsr     a
	lsr     a
	clc
	adc     ptr1
	sta     _largeindex
	lda     #$00
	adc     ptr1+1
	sta     _largeindex+1
;
; temp = map_ptr[largeindex];
;
	lda     _map_ptr
	clc
	adc     _largeindex
	sta     ptr1
	lda     _map_ptr+1
	adc     _largeindex+1
	sta     ptr1+1
	ldy     #$00
	lda     (ptr1),y
	sta     _temp
;
; if (temp == 0xc6 || temp == 0xc7 || temp == 0xc8 || temp == 0xc9 || temp == 0xca || temp == 0xa5)
;
	cmp     #$C6
	beq     L2943
	lda     _temp
	cmp     #$C7
	beq     L2943
	cmp     #$C8
	beq     L2943
	cmp     #$C9
	beq     L2943
	cmp     #$CA
	beq     L2943
	cmp     #$A5
	bne     L2944
;
; return 0;
;
L2943:	ldx     #$00
	txa
	rts
;
; else if (temp == 0xb6 || temp == 0xb7 || temp == 0xb8 || temp == 0xb9 || temp == 0xba || temp == 0x00 || temp == 0x69 || temp == 0x6a || temp == 0x6b)
;
L2944:	lda     _temp
	cmp     #$B6
	beq     L2945
	cmp     #$B7
	beq     L2945
	cmp     #$B8
	beq     L2945
	cmp     #$B9
	beq     L2945
	cmp     #$BA
	beq     L2945
	lda     _temp
	beq     L2945
	cmp     #$69
	beq     L2945
	cmp     #$6A
	beq     L2945
	cmp     #$6B
	beq     L2945
	ldx     #$00
	jmp     L2946
;
; return 0;
;
L2945:	ldx     #$00
	txa
	rts
;
; return 1;
;
L2946:	lda     #$01
;
; }
;
	rts

.endproc

; ---------------------------------------------------------------
; void __near__ check_powerup (void)
; ---------------------------------------------------------------

.segment	"CODE"

.proc	_check_powerup: near

.segment	"CODE"

;
; if (powerup1 == 1)
;
	lda     _powerup1
	cmp     #$01
	bne     L294E
;
; if (map == MAP_COMBS)
;
	lda     _map
	bne     L294B
;
; temp_x2 = COMBS_FLOWER_X[0];
;
	lda     _COMBS_FLOWER_X
	sta     _temp_x2
;
; temp_y2 = COMBS_FLOWER_Y[0];
;
	lda     _COMBS_FLOWER_Y
;
; else if (map == MAP_VINES)
;
	jmp     L2947
L294B:	lda     _map
	cmp     #$02
	bne     L294C
;
; temp_x2 = VINES_FLOWER_X[0];
;
	lda     _VINES_FLOWER_X
	sta     _temp_x2
;
; temp_y2 = VINES_FLOWER_Y[0];
;
	lda     _VINES_FLOWER_Y
;
; else if (map == MAP_OUTDOORS)
;
	jmp     L2947
L294C:	lda     _map
	cmp     #$01
	bne     L1DDF
;
; temp_x2 = OUTDOORS_FLOWER_X[0];
;
	lda     _OUTDOORS_FLOWER_X
	sta     _temp_x2
;
; temp_y2 = OUTDOORS_FLOWER_Y[0];
;
	lda     _OUTDOORS_FLOWER_Y
L2947:	sta     _temp_y2
;
; if (check_powerup_collision())
;
L1DDF:	jsr     _check_powerup_collision
	tax
	beq     L294E
;
; powerup1 = 0; // Remove powerup
;
	lda     #$00
	sta     _powerup1
;
; if (temp == 1)
;
	lda     _temp
	cmp     #$01
	bne     L294D
;
; bee1_bigbee_timer = POWERUP_TIMER;
;
	lda     #$0C
	sta     _bee1_bigbee_timer
;
; else if (temp == 3)
;
	jmp     L1DF0
L294D:	lda     _temp
	cmp     #$03
	bne     L1DF0
;
; bee3_bigbee_timer = POWERUP_TIMER;
;
	lda     #$0C
	sta     _bee3_bigbee_timer
;
; sfx_play(SFX_POWERUP, 0);
;
L1DF0:	lda     #$06
	jsr     pusha
	lda     #$00
	jsr     _sfx_play
;
; if (powerup2 == 1)
;
L294E:	lda     _powerup2
	cmp     #$01
	bne     L2952
;
; if (map == MAP_COMBS)
;
	lda     _map
	bne     L294F
;
; temp_x2 = COMBS_FLOWER_X[1];
;
	lda     _COMBS_FLOWER_X+1
	sta     _temp_x2
;
; temp_y2 = COMBS_FLOWER_Y[1];
;
	lda     _COMBS_FLOWER_Y+1
;
; else if (map == MAP_VINES)
;
	jmp     L2948
L294F:	lda     _map
	cmp     #$02
	bne     L2950
;
; temp_x2 = VINES_FLOWER_X[1];
;
	lda     _VINES_FLOWER_X+1
	sta     _temp_x2
;
; temp_y2 = VINES_FLOWER_Y[1];
;
	lda     _VINES_FLOWER_Y+1
;
; else if (map == MAP_OUTDOORS)
;
	jmp     L2948
L2950:	lda     _map
	cmp     #$01
	bne     L1E0B
;
; temp_x2 = OUTDOORS_FLOWER_X[1];
;
	lda     _OUTDOORS_FLOWER_X+1
	sta     _temp_x2
;
; temp_y2 = OUTDOORS_FLOWER_Y[1];
;
	lda     _OUTDOORS_FLOWER_Y+1
L2948:	sta     _temp_y2
;
; if (check_powerup_collision())
;
L1E0B:	jsr     _check_powerup_collision
	tax
	beq     L2952
;
; powerup2 = 0; // Remove powerup
;
	lda     #$00
	sta     _powerup2
;
; if (temp == 1)
;
	lda     _temp
	cmp     #$01
	bne     L2951
;
; bee1_bigbee_timer = POWERUP_TIMER;
;
	lda     #$0C
	sta     _bee1_bigbee_timer
;
; else if (temp == 3)
;
	jmp     L1E1C
L2951:	lda     _temp
	cmp     #$03
	bne     L1E1C
;
; bee3_bigbee_timer = POWERUP_TIMER;
;
	lda     #$0C
	sta     _bee3_bigbee_timer
;
; sfx_play(SFX_POWERUP, 0);
;
L1E1C:	lda     #$06
	jsr     pusha
	lda     #$00
	jsr     _sfx_play
;
; if (powerup3 == 1)
;
L2952:	lda     _powerup3
	cmp     #$01
	bne     L2956
;
; if (map == MAP_COMBS)
;
	lda     _map
	bne     L2953
;
; temp_x2 = COMBS_FLOWER_X[2];
;
	lda     _COMBS_FLOWER_X+2
	sta     _temp_x2
;
; temp_y2 = COMBS_FLOWER_Y[2];
;
	lda     _COMBS_FLOWER_Y+2
;
; else if (map == MAP_VINES)
;
	jmp     L2949
L2953:	lda     _map
	cmp     #$02
	bne     L2954
;
; temp_x2 = VINES_FLOWER_X[2];
;
	lda     _VINES_FLOWER_X+2
	sta     _temp_x2
;
; temp_y2 = VINES_FLOWER_Y[2];
;
	lda     _VINES_FLOWER_Y+2
;
; else if (map == MAP_OUTDOORS)
;
	jmp     L2949
L2954:	lda     _map
	cmp     #$01
	bne     L1E37
;
; temp_x2 = OUTDOORS_FLOWER_X[2];
;
	lda     _OUTDOORS_FLOWER_X+2
	sta     _temp_x2
;
; temp_y2 = OUTDOORS_FLOWER_Y[2];
;
	lda     _OUTDOORS_FLOWER_Y+2
L2949:	sta     _temp_y2
;
; if (check_powerup_collision())
;
L1E37:	jsr     _check_powerup_collision
	tax
	beq     L2956
;
; powerup3 = 0; // Remove powerup
;
	lda     #$00
	sta     _powerup3
;
; if (temp == 1)
;
	lda     _temp
	cmp     #$01
	bne     L2955
;
; bee1_bigbee_timer = POWERUP_TIMER;
;
	lda     #$0C
	sta     _bee1_bigbee_timer
;
; else if (temp == 3)
;
	jmp     L1E48
L2955:	lda     _temp
	cmp     #$03
	bne     L1E48
;
; bee3_bigbee_timer = POWERUP_TIMER;
;
	lda     #$0C
	sta     _bee3_bigbee_timer
;
; sfx_play(SFX_POWERUP, 0);
;
L1E48:	lda     #$06
	jsr     pusha
	lda     #$00
	jsr     _sfx_play
;
; if (powerup4 == 1)
;
L2956:	lda     _powerup4
	cmp     #$01
	bne     L1E6B
;
; if (map == MAP_COMBS)
;
	lda     _map
	bne     L2957
;
; temp_x2 = COMBS_FLOWER_X[3];
;
	lda     _COMBS_FLOWER_X+3
	sta     _temp_x2
;
; temp_y2 = COMBS_FLOWER_Y[3];
;
	lda     _COMBS_FLOWER_Y+3
;
; else if (map == MAP_VINES)
;
	jmp     L294A
L2957:	lda     _map
	cmp     #$02
	bne     L2958
;
; temp_x2 = VINES_FLOWER_X[3];
;
	lda     _VINES_FLOWER_X+3
	sta     _temp_x2
;
; temp_y2 = VINES_FLOWER_Y[3];
;
	lda     _VINES_FLOWER_Y+3
;
; else if (map == MAP_OUTDOORS)
;
	jmp     L294A
L2958:	lda     _map
	cmp     #$01
	bne     L1E63
;
; temp_x2 = OUTDOORS_FLOWER_X[3];
;
	lda     _OUTDOORS_FLOWER_X+3
	sta     _temp_x2
;
; temp_y2 = OUTDOORS_FLOWER_Y[3];
;
	lda     _OUTDOORS_FLOWER_Y+3
L294A:	sta     _temp_y2
;
; if (check_powerup_collision())
;
L1E63:	jsr     _check_powerup_collision
	tax
	beq     L1E6B
;
; powerup4 = 0; // Remove powerup
;
	lda     #$00
	sta     _powerup4
;
; if (temp == 1)
;
	lda     _temp
	cmp     #$01
	bne     L2959
;
; bee1_bigbee_timer = POWERUP_TIMER;
;
	lda     #$0C
	sta     _bee1_bigbee_timer
;
; else if (temp == 3)
;
	jmp     L1E74
L2959:	lda     _temp
	cmp     #$03
	bne     L1E74
;
; bee3_bigbee_timer = POWERUP_TIMER;
;
	lda     #$0C
	sta     _bee3_bigbee_timer
;
; sfx_play(SFX_POWERUP, 0);
;
L1E74:	lda     #$06
	jsr     pusha
	lda     #$00
	jmp     _sfx_play
;
; }
;
L1E6B:	rts

.endproc

; ---------------------------------------------------------------
; unsigned char __near__ is_dot_consumed (unsigned int)
; ---------------------------------------------------------------

.segment	"CODE"

.proc	_is_dot_consumed: near

.segment	"CODE"

;
; {
;
	jsr     pushax
;
; unsigned char byte_index = map_index >> 3; // divide by 8
;
	ldy     #$01
	lda     (sp),y
	tax
	dey
	lda     (sp),y
	jsr     shrax3
	jsr     pusha
;
; unsigned char bit_index = map_index & 0x07; // modulo 8
;
	ldy     #$01
	lda     (sp),y
	and     #$07
	jsr     pusha
;
; return (consumed_dots[byte_index] >> bit_index) & 0x01;
;
	ldy     #$01
	lda     (sp),y
	tay
	lda     _consumed_dots,y
	sta     ptr1
	ldy     #$00
	lda     (sp),y
	tay
	lda     ptr1
L295A:	lsr     a
	dey
	bpl     L295A
	rol     a
	and     #$01
	ldx     #$00
;
; }
;
	jmp     incsp4

.endproc

; ---------------------------------------------------------------
; void __near__ mark_dot_consumed (unsigned int)
; ---------------------------------------------------------------

.segment	"CODE"

.proc	_mark_dot_consumed: near

.segment	"CODE"

;
; {
;
	jsr     pushax
;
; unsigned char byte_index = map_index >> 3; // divide by 8
;
	ldy     #$01
	lda     (sp),y
	tax
	dey
	lda     (sp),y
	jsr     shrax3
	jsr     pusha
;
; unsigned char bit_index = map_index & 0x07; // modulo 8
;
	ldy     #$01
	lda     (sp),y
	and     #$07
	jsr     pusha
;
; consumed_dots[byte_index] |= (0x01 << bit_index);
;
	lda     #<(_consumed_dots)
	ldx     #>(_consumed_dots)
	ldy     #$01
	clc
	adc     (sp),y
	bcc     L2021
	inx
L2021:	jsr     pushax
	sta     ptr1
	stx     ptr1+1
	ldy     #$00
	lda     (ptr1),y
	sta     ptr1
	ldy     #$02
	lda     (sp),y
	tay
	lda     #$01
L295B:	asl     a
	dey
	bpl     L295B
	ror     a
	ora     ptr1
	ldy     #$00
	jsr     staspidx
;
; }
;
	jmp     incsp4

.endproc

